

Microchip MPLAB XC8 Assembler V2.31 build 20201012212115 
                                                                                               Fri Feb 12 07:41:37 2021

Microchip MPLAB XC8 C Compiler v2.31 (Free license) build 20201012212115 Og1 
     1                           	processor	16F887
     2                           	pagewidth 120
     3                           	opt	flic
     4                           	psect	strings,global,class=STRING,delta=2,noexec
     5                           	psect	cinit,global,class=CODE,merge=1,delta=2
     6                           	psect	bssBANK0,global,class=BANK0,space=1,delta=1,noexec
     7                           	psect	bssBANK1,global,class=BANK1,space=1,delta=1,noexec
     8                           	psect	clrtext,global,class=CODE,delta=2
     9                           	psect	cstackCOMMON,global,class=COMMON,space=1,delta=1,noexec
    10                           	psect	cstackBANK0,global,class=BANK0,space=1,delta=1,noexec
    11                           	psect	maintext,global,class=CODE,split=1,delta=2
    12                           	psect	text1,local,class=CODE,merge=1,delta=2
    13                           	psect	text2,local,class=CODE,merge=1,delta=2
    14                           	psect	text3,local,class=CODE,merge=1,delta=2
    15                           	psect	text4,local,class=CODE,merge=1,delta=2
    16                           	psect	text5,local,class=CODE,merge=1,delta=2
    17                           	psect	text6,local,class=CODE,merge=1,delta=2
    18                           	psect	text7,local,class=CODE,merge=1,delta=2
    19                           	psect	text8,local,class=CODE,merge=1,delta=2,group=1
    20                           	psect	text9,local,class=CODE,merge=1,delta=2,group=3
    21                           	psect	text10,local,class=CODE,merge=1,delta=2,group=2
    22                           	psect	text11,local,class=CODE,merge=1,delta=2,group=2
    23                           	psect	text12,local,class=CODE,merge=1,delta=2,group=2
    24                           	psect	text13,local,class=CODE,merge=1,delta=2
    25                           	psect	text14,local,class=CODE,merge=1,delta=2
    26                           	psect	text15,local,class=CODE,merge=1,delta=2
    27                           	psect	text16,local,class=CODE,merge=1,delta=2
    28                           	psect	text17,local,class=CODE,merge=1,delta=2
    29                           	psect	text18,local,class=CODE,merge=1,delta=2
    30                           	psect	text19,local,class=CODE,merge=1,delta=2
    31                           	psect	text20,local,class=CODE,merge=1,delta=2,group=2
    32                           	psect	text21,local,class=CODE,merge=1,delta=2,group=2
    33                           	psect	text22,local,class=CODE,merge=1,delta=2,group=2
    34                           	psect	text23,local,class=CODE,merge=1,delta=2,group=2
    35                           	psect	text24,local,class=CODE,merge=1,delta=2
    36                           	psect	config,global,abs,ovrld,class=CONFIG,space=4,delta=2,noexec
    37                           	dabs	1,0x7E,2
    38  0000                     
    39                           ; Version 2.20
    40                           ; Generated 12/02/2020 GMT
    41                           ; 
    42                           ; Copyright © 2020, Microchip Technology Inc. and its subsidiaries ("Microchip")
    43                           ; All rights reserved.
    44                           ; 
    45                           ; This software is developed by Microchip Technology Inc. and its subsidiaries ("Microch
      +                          ip").
    46                           ; 
    47                           ; Redistribution and use in source and binary forms, with or without modification, are
    48                           ; permitted provided that the following conditions are met:
    49                           ; 
    50                           ;     1. Redistributions of source code must retain the above copyright notice, this lis
      +                          t of
    51                           ;        conditions and the following disclaimer.
    52                           ; 
    53                           ;     2. Redistributions in binary form must reproduce the above copyright notice, this 
      +                          list
    54                           ;        of conditions and the following disclaimer in the documentation and/or other
    55                           ;        materials provided with the distribution.
    56                           ; 
    57                           ;     3. Microchip's name may not be used to endorse or promote products derived from th
      +                          is
    58                           ;        software without specific prior written permission.
    59                           ; 
    60                           ; THIS SOFTWARE IS PROVIDED BY MICROCHIP "AS IS" AND ANY EXPRESS OR IMPLIED WARRANTIES,
    61                           ; INCLUDING, BUT NOT LIMITED TO, THE IMPLIED WARRANTIES OF MERCHANTABILITY AND FITNESS F
      +                          OR
    62                           ; PURPOSE ARE DISCLAIMED.  IN NO EVENT SHALL MICROCHIP BE LIABLE FOR ANY DIRECT, INDIREC
      +                          T,
    63                           ; INCIDENTAL, SPECIAL, EXEMPLARY, OR CONSEQUENTIAL DAMAGES (INCLUDING BUT NOT LIMITED TO
    64                           ; PROCUREMENT OF SUBSTITUTE GOODS OR SERVICES; LOSS OF USE, DATA OR PROFITS; OR BUSINESS
    65                           ; INTERRUPTION) HOWSOEVER CAUSED AND ON ANY THEORY OF LIABILITY, WHETHER IN CONTRACT, ST
      +                          RICT
    66                           ; LIABILITY, OR TORT (INCLUDING NEGLIGENCE OR OTHERWISE) ARISING IN ANY WAY OUT OF THE U
      +                          SE OF
    67                           ; THIS SOFTWARE, EVEN IF ADVISED OF THE POSSIBILITY OF SUCH DAMAGE.
    68                           ; 
    69                           ; 
    70                           ; Code-generator required, PIC16F887 Definitions
    71                           ; 
    72                           ; SFR Addresses
    73  0000                     	;# 
    74  0001                     	;# 
    75  0002                     	;# 
    76  0003                     	;# 
    77  0004                     	;# 
    78  0005                     	;# 
    79  0006                     	;# 
    80  0007                     	;# 
    81  0008                     	;# 
    82  0009                     	;# 
    83  000A                     	;# 
    84  000B                     	;# 
    85  000C                     	;# 
    86  000D                     	;# 
    87  000E                     	;# 
    88  000E                     	;# 
    89  000F                     	;# 
    90  0010                     	;# 
    91  0011                     	;# 
    92  0012                     	;# 
    93  0013                     	;# 
    94  0014                     	;# 
    95  0015                     	;# 
    96  0015                     	;# 
    97  0016                     	;# 
    98  0017                     	;# 
    99  0018                     	;# 
   100  0019                     	;# 
   101  001A                     	;# 
   102  001B                     	;# 
   103  001B                     	;# 
   104  001C                     	;# 
   105  001D                     	;# 
   106  001E                     	;# 
   107  001F                     	;# 
   108  0081                     	;# 
   109  0085                     	;# 
   110  0086                     	;# 
   111  0087                     	;# 
   112  0088                     	;# 
   113  0089                     	;# 
   114  008C                     	;# 
   115  008D                     	;# 
   116  008E                     	;# 
   117  008F                     	;# 
   118  0090                     	;# 
   119  0091                     	;# 
   120  0092                     	;# 
   121  0093                     	;# 
   122  0093                     	;# 
   123  0093                     	;# 
   124  0094                     	;# 
   125  0095                     	;# 
   126  0096                     	;# 
   127  0097                     	;# 
   128  0098                     	;# 
   129  0099                     	;# 
   130  009A                     	;# 
   131  009B                     	;# 
   132  009C                     	;# 
   133  009D                     	;# 
   134  009E                     	;# 
   135  009F                     	;# 
   136  0105                     	;# 
   137  0107                     	;# 
   138  0108                     	;# 
   139  0109                     	;# 
   140  010C                     	;# 
   141  010C                     	;# 
   142  010D                     	;# 
   143  010E                     	;# 
   144  010F                     	;# 
   145  0185                     	;# 
   146  0187                     	;# 
   147  0188                     	;# 
   148  0189                     	;# 
   149  018C                     	;# 
   150  018D                     	;# 
   151  0000                     	;# 
   152  0001                     	;# 
   153  0002                     	;# 
   154  0003                     	;# 
   155  0004                     	;# 
   156  0005                     	;# 
   157  0006                     	;# 
   158  0007                     	;# 
   159  0008                     	;# 
   160  0009                     	;# 
   161  000A                     	;# 
   162  000B                     	;# 
   163  000C                     	;# 
   164  000D                     	;# 
   165  000E                     	;# 
   166  000E                     	;# 
   167  000F                     	;# 
   168  0010                     	;# 
   169  0011                     	;# 
   170  0012                     	;# 
   171  0013                     	;# 
   172  0014                     	;# 
   173  0015                     	;# 
   174  0015                     	;# 
   175  0016                     	;# 
   176  0017                     	;# 
   177  0018                     	;# 
   178  0019                     	;# 
   179  001A                     	;# 
   180  001B                     	;# 
   181  001B                     	;# 
   182  001C                     	;# 
   183  001D                     	;# 
   184  001E                     	;# 
   185  001F                     	;# 
   186  0081                     	;# 
   187  0085                     	;# 
   188  0086                     	;# 
   189  0087                     	;# 
   190  0088                     	;# 
   191  0089                     	;# 
   192  008C                     	;# 
   193  008D                     	;# 
   194  008E                     	;# 
   195  008F                     	;# 
   196  0090                     	;# 
   197  0091                     	;# 
   198  0092                     	;# 
   199  0093                     	;# 
   200  0093                     	;# 
   201  0093                     	;# 
   202  0094                     	;# 
   203  0095                     	;# 
   204  0096                     	;# 
   205  0097                     	;# 
   206  0098                     	;# 
   207  0099                     	;# 
   208  009A                     	;# 
   209  009B                     	;# 
   210  009C                     	;# 
   211  009D                     	;# 
   212  009E                     	;# 
   213  009F                     	;# 
   214  0105                     	;# 
   215  0107                     	;# 
   216  0108                     	;# 
   217  0109                     	;# 
   218  010C                     	;# 
   219  010C                     	;# 
   220  010D                     	;# 
   221  010E                     	;# 
   222  010F                     	;# 
   223  0185                     	;# 
   224  0187                     	;# 
   225  0188                     	;# 
   226  0189                     	;# 
   227  018C                     	;# 
   228  018D                     	;# 
   229  0000                     	;# 
   230  0001                     	;# 
   231  0002                     	;# 
   232  0003                     	;# 
   233  0004                     	;# 
   234  0005                     	;# 
   235  0006                     	;# 
   236  0007                     	;# 
   237  0008                     	;# 
   238  0009                     	;# 
   239  000A                     	;# 
   240  000B                     	;# 
   241  000C                     	;# 
   242  000D                     	;# 
   243  000E                     	;# 
   244  000E                     	;# 
   245  000F                     	;# 
   246  0010                     	;# 
   247  0011                     	;# 
   248  0012                     	;# 
   249  0013                     	;# 
   250  0014                     	;# 
   251  0015                     	;# 
   252  0015                     	;# 
   253  0016                     	;# 
   254  0017                     	;# 
   255  0018                     	;# 
   256  0019                     	;# 
   257  001A                     	;# 
   258  001B                     	;# 
   259  001B                     	;# 
   260  001C                     	;# 
   261  001D                     	;# 
   262  001E                     	;# 
   263  001F                     	;# 
   264  0081                     	;# 
   265  0085                     	;# 
   266  0086                     	;# 
   267  0087                     	;# 
   268  0088                     	;# 
   269  0089                     	;# 
   270  008C                     	;# 
   271  008D                     	;# 
   272  008E                     	;# 
   273  008F                     	;# 
   274  0090                     	;# 
   275  0091                     	;# 
   276  0092                     	;# 
   277  0093                     	;# 
   278  0093                     	;# 
   279  0093                     	;# 
   280  0094                     	;# 
   281  0095                     	;# 
   282  0096                     	;# 
   283  0097                     	;# 
   284  0098                     	;# 
   285  0099                     	;# 
   286  009A                     	;# 
   287  009B                     	;# 
   288  009C                     	;# 
   289  009D                     	;# 
   290  009E                     	;# 
   291  009F                     	;# 
   292  0105                     	;# 
   293  0107                     	;# 
   294  0108                     	;# 
   295  0109                     	;# 
   296  010C                     	;# 
   297  010C                     	;# 
   298  010D                     	;# 
   299  010E                     	;# 
   300  010F                     	;# 
   301  0185                     	;# 
   302  0187                     	;# 
   303  0188                     	;# 
   304  0189                     	;# 
   305  018C                     	;# 
   306  018D                     	;# 
   307  0000                     	;# 
   308  0001                     	;# 
   309  0002                     	;# 
   310  0003                     	;# 
   311  0004                     	;# 
   312  0005                     	;# 
   313  0006                     	;# 
   314  0007                     	;# 
   315  0008                     	;# 
   316  0009                     	;# 
   317  000A                     	;# 
   318  000B                     	;# 
   319  000C                     	;# 
   320  000D                     	;# 
   321  000E                     	;# 
   322  000E                     	;# 
   323  000F                     	;# 
   324  0010                     	;# 
   325  0011                     	;# 
   326  0012                     	;# 
   327  0013                     	;# 
   328  0014                     	;# 
   329  0015                     	;# 
   330  0015                     	;# 
   331  0016                     	;# 
   332  0017                     	;# 
   333  0018                     	;# 
   334  0019                     	;# 
   335  001A                     	;# 
   336  001B                     	;# 
   337  001B                     	;# 
   338  001C                     	;# 
   339  001D                     	;# 
   340  001E                     	;# 
   341  001F                     	;# 
   342  0081                     	;# 
   343  0085                     	;# 
   344  0086                     	;# 
   345  0087                     	;# 
   346  0088                     	;# 
   347  0089                     	;# 
   348  008C                     	;# 
   349  008D                     	;# 
   350  008E                     	;# 
   351  008F                     	;# 
   352  0090                     	;# 
   353  0091                     	;# 
   354  0092                     	;# 
   355  0093                     	;# 
   356  0093                     	;# 
   357  0093                     	;# 
   358  0094                     	;# 
   359  0095                     	;# 
   360  0096                     	;# 
   361  0097                     	;# 
   362  0098                     	;# 
   363  0099                     	;# 
   364  009A                     	;# 
   365  009B                     	;# 
   366  009C                     	;# 
   367  009D                     	;# 
   368  009E                     	;# 
   369  009F                     	;# 
   370  0105                     	;# 
   371  0107                     	;# 
   372  0108                     	;# 
   373  0109                     	;# 
   374  010C                     	;# 
   375  010C                     	;# 
   376  010D                     	;# 
   377  010E                     	;# 
   378  010F                     	;# 
   379  0185                     	;# 
   380  0187                     	;# 
   381  0188                     	;# 
   382  0189                     	;# 
   383  018C                     	;# 
   384  018D                     	;# 
   385  0000                     	;# 
   386  0001                     	;# 
   387  0002                     	;# 
   388  0003                     	;# 
   389  0004                     	;# 
   390  0005                     	;# 
   391  0006                     	;# 
   392  0007                     	;# 
   393  0008                     	;# 
   394  0009                     	;# 
   395  000A                     	;# 
   396  000B                     	;# 
   397  000C                     	;# 
   398  000D                     	;# 
   399  000E                     	;# 
   400  000E                     	;# 
   401  000F                     	;# 
   402  0010                     	;# 
   403  0011                     	;# 
   404  0012                     	;# 
   405  0013                     	;# 
   406  0014                     	;# 
   407  0015                     	;# 
   408  0015                     	;# 
   409  0016                     	;# 
   410  0017                     	;# 
   411  0018                     	;# 
   412  0019                     	;# 
   413  001A                     	;# 
   414  001B                     	;# 
   415  001B                     	;# 
   416  001C                     	;# 
   417  001D                     	;# 
   418  001E                     	;# 
   419  001F                     	;# 
   420  0081                     	;# 
   421  0085                     	;# 
   422  0086                     	;# 
   423  0087                     	;# 
   424  0088                     	;# 
   425  0089                     	;# 
   426  008C                     	;# 
   427  008D                     	;# 
   428  008E                     	;# 
   429  008F                     	;# 
   430  0090                     	;# 
   431  0091                     	;# 
   432  0092                     	;# 
   433  0093                     	;# 
   434  0093                     	;# 
   435  0093                     	;# 
   436  0094                     	;# 
   437  0095                     	;# 
   438  0096                     	;# 
   439  0097                     	;# 
   440  0098                     	;# 
   441  0099                     	;# 
   442  009A                     	;# 
   443  009B                     	;# 
   444  009C                     	;# 
   445  009D                     	;# 
   446  009E                     	;# 
   447  009F                     	;# 
   448  0105                     	;# 
   449  0107                     	;# 
   450  0108                     	;# 
   451  0109                     	;# 
   452  010C                     	;# 
   453  010C                     	;# 
   454  010D                     	;# 
   455  010E                     	;# 
   456  010F                     	;# 
   457  0185                     	;# 
   458  0187                     	;# 
   459  0188                     	;# 
   460  0189                     	;# 
   461  018C                     	;# 
   462  018D                     	;# 
   463  0000                     	;# 
   464  0001                     	;# 
   465  0002                     	;# 
   466  0003                     	;# 
   467  0004                     	;# 
   468  0005                     	;# 
   469  0006                     	;# 
   470  0007                     	;# 
   471  0008                     	;# 
   472  0009                     	;# 
   473  000A                     	;# 
   474  000B                     	;# 
   475  000C                     	;# 
   476  000D                     	;# 
   477  000E                     	;# 
   478  000E                     	;# 
   479  000F                     	;# 
   480  0010                     	;# 
   481  0011                     	;# 
   482  0012                     	;# 
   483  0013                     	;# 
   484  0014                     	;# 
   485  0015                     	;# 
   486  0015                     	;# 
   487  0016                     	;# 
   488  0017                     	;# 
   489  0018                     	;# 
   490  0019                     	;# 
   491  001A                     	;# 
   492  001B                     	;# 
   493  001B                     	;# 
   494  001C                     	;# 
   495  001D                     	;# 
   496  001E                     	;# 
   497  001F                     	;# 
   498  0081                     	;# 
   499  0085                     	;# 
   500  0086                     	;# 
   501  0087                     	;# 
   502  0088                     	;# 
   503  0089                     	;# 
   504  008C                     	;# 
   505  008D                     	;# 
   506  008E                     	;# 
   507  008F                     	;# 
   508  0090                     	;# 
   509  0091                     	;# 
   510  0092                     	;# 
   511  0093                     	;# 
   512  0093                     	;# 
   513  0093                     	;# 
   514  0094                     	;# 
   515  0095                     	;# 
   516  0096                     	;# 
   517  0097                     	;# 
   518  0098                     	;# 
   519  0099                     	;# 
   520  009A                     	;# 
   521  009B                     	;# 
   522  009C                     	;# 
   523  009D                     	;# 
   524  009E                     	;# 
   525  009F                     	;# 
   526  0105                     	;# 
   527  0107                     	;# 
   528  0108                     	;# 
   529  0109                     	;# 
   530  010C                     	;# 
   531  010C                     	;# 
   532  010D                     	;# 
   533  010E                     	;# 
   534  010F                     	;# 
   535  0185                     	;# 
   536  0187                     	;# 
   537  0188                     	;# 
   538  0189                     	;# 
   539  018C                     	;# 
   540  018D                     	;# 
   541                           
   542                           	psect	strings
   543  0800                     __pstrings:
   544  0800                     stringtab:
   545  0800                     __stringtab:
   546                           
   547                           ;	String table - string pointers are 1 byte each
   548  0800  1BFF               	btfsc	btemp+1,7
   549  0801  280A               	ljmp	stringcode
   550  0802  1383               	bcf	3,7
   551  0803  187F               	btfsc	btemp+1,0
   552  0804  1783               	bsf	3,7
   553  0805  0800               	movf	0,w
   554  0806  0A84               	incf	4,f
   555  0807  1903               	skipnz
   556  0808  0AFF               	incf	btemp+1,f
   557  0809  0008               	return
   558  080A                     stringcode:
   559  080A                     stringdir:
   560  080A  3008               	movlw	high stringdir
   561  080B  008A               	movwf	10
   562  080C  0804               	movf	4,w
   563  080D  0A84               	incf	4,f
   564  080E  0782               	addwf	2,f
   565  080F                     __stringbase:
   566  080F  3400               	retlw	0
   567  0810                     __end_of__stringtab:
   568  0810                     _dpowers:
   569  0810  3401               	retlw	1
   570  0811  3400               	retlw	0
   571  0812  340A               	retlw	10
   572  0813  3400               	retlw	0
   573  0814  3464               	retlw	100
   574  0815  3400               	retlw	0
   575  0816  34E8               	retlw	232
   576  0817  3403               	retlw	3
   577  0818  3410               	retlw	16
   578  0819  3427               	retlw	39
   579  081A                     __end_of_dpowers:
   580  000B                     _INTCONbits	set	11
   581  001A                     _RCREG	set	26
   582  0018                     _RCSTAbits	set	24
   583  0009                     _PORTEbits	set	9
   584  0009                     _PORTE	set	9
   585  0008                     _PORTD	set	8
   586  0007                     _PORTC	set	7
   587  0006                     _PORTB	set	6
   588  0005                     _PORTA	set	5
   589  001E                     _ADRESH	set	30
   590  001F                     _ADCON0bits	set	31
   591  008C                     _PIE1bits	set	140
   592  0099                     _SPBRG	set	153
   593  0098                     _TXSTAbits	set	152
   594  009F                     _ADCON1	set	159
   595  009E                     _ADRESL	set	158
   596  008F                     _OSCCONbits	set	143
   597  0089                     _TRISE	set	137
   598  0088                     _TRISD	set	136
   599  0087                     _TRISCbits	set	135
   600  0086                     _TRISB	set	134
   601  0085                     _TRISA	set	133
   602  0189                     _ANSELH	set	393
   603  0188                     _ANSEL	set	392
   604  081A                     STR_1:
   605  081A  3453               	retlw	83	;'S'
   606  081B  3431               	retlw	49	;'1'
   607  081C  343A               	retlw	58	;':'
   608  081D  3420               	retlw	32	;' '
   609  081E  3420               	retlw	32	;' '
   610  081F  3420               	retlw	32	;' '
   611  0820  3453               	retlw	83	;'S'
   612  0821  3432               	retlw	50	;'2'
   613  0822  343A               	retlw	58	;':'
   614  0823  3420               	retlw	32	;' '
   615  0824  3420               	retlw	32	;' '
   616  0825  3453               	retlw	83	;'S'
   617  0826  3433               	retlw	51	;'3'
   618  0827  343A               	retlw	58	;':'
   619  0828  3400               	retlw	0
   620  0829                     STR_2:
   621  0829  3425               	retlw	37	;'%'
   622  082A  342E               	retlw	46	;'.'
   623  082B  3433               	retlw	51	;'3'
   624  082C  3469               	retlw	105	;'i'
   625  082D  3400               	retlw	0
   626                           
   627                           	psect	cinit
   628  07EB                     start_initialization:	
   629                           ; #config settings
   630                           
   631  07EB                     __initialization:
   632                           
   633                           ; Clear objects allocated to BANK0
   634  07EB  1383               	bcf	3,7	;select IRP bank0
   635  07EC  305A               	movlw	low __pbssBANK0
   636  07ED  0084               	movwf	4
   637  07EE  306D               	movlw	low (__pbssBANK0+19)
   638  07EF  120A  158A  243C  120A  118A  	fcall	clear_ram0
   639                           
   640                           ; Clear objects allocated to BANK1
   641  07F4  30A0               	movlw	low __pbssBANK1
   642  07F5  0084               	movwf	4
   643  07F6  30B0               	movlw	low (__pbssBANK1+16)
   644  07F7  120A  158A  243C  120A  118A  	fcall	clear_ram0
   645  07FC                     end_of_initialization:	
   646                           ;End of C runtime variable initialization code
   647                           
   648  07FC                     __end_of__initialization:
   649  07FC  0183               	clrf	3
   650  07FD  120A  118A  2828   	ljmp	_main	;jump to C main() function
   651                           
   652                           	psect	bssBANK0
   653  005A                     __pbssBANK0:
   654  005A                     _S2_val:
   655  005A                     	ds	4
   656  005E                     _S1_val:
   657  005E                     	ds	4
   658  0062                     _VAL_NIBBLE2:
   659  0062                     	ds	2
   660  0064                     _VAL_NIBBLE1:
   661  0064                     	ds	2
   662  0066                     _VAL_SWAP:
   663  0066                     	ds	2
   664  0068                     _VAL:
   665  0068                     	ds	2
   666  006A                     _cont_usart:
   667  006A                     	ds	1
   668  006B                     _eusart_flag:
   669  006B                     	ds	1
   670  006C                     _S3_cont:
   671  006C                     	ds	1
   672                           
   673                           	psect	bssBANK1
   674  00A0                     __pbssBANK1:
   675  00A0                     _data2:
   676  00A0                     	ds	8
   677  00A8                     _data1:
   678  00A8                     	ds	8
   679                           
   680                           	psect	clrtext
   681  0C3C                     clear_ram0:	
   682                           ;	Called with FSR containing the base address, and
   683                           ;	W with the last address+1
   684                           
   685  0C3C  0064               	clrwdt	;clear the watchdog before getting into this loop
   686  0C3D                     clrloop0:
   687  0C3D  0180               	clrf	0	;clear RAM location pointed to by FSR
   688  0C3E  0A84               	incf	4,f	;increment pointer
   689  0C3F  0604               	xorwf	4,w	;XOR with final address
   690  0C40  1903               	btfsc	3,2	;have we reached the end yet?
   691  0C41  3400               	retlw	0	;all done for this memory range, return
   692  0C42  0604               	xorwf	4,w	;XOR again to restore value
   693  0C43  2C3D               	goto	clrloop0	;do the next byte
   694                           
   695                           	psect	cstackCOMMON
   696  0070                     __pcstackCOMMON:
   697  0070                     ?_isdigit:
   698  0070                     ?_setup:	
   699                           ; 1 bit 
   700                           
   701  0070                     ?_USART_Init:	
   702                           ; 1 bytes @ 0x0
   703                           
   704  0070                     ??_USART_Init:	
   705                           ; 1 bytes @ 0x0
   706                           
   707  0070                     ?_USART_Init_BaudRate:	
   708                           ; 1 bytes @ 0x0
   709                           
   710  0070                     ??_USART_Init_BaudRate:	
   711                           ; 1 bytes @ 0x0
   712                           
   713  0070                     ?_Lcd_Init:	
   714                           ; 1 bytes @ 0x0
   715                           
   716  0070                     ?_titulos_LCD:	
   717                           ; 1 bytes @ 0x0
   718                           
   719  0070                     ?_ADC_channel1:	
   720                           ; 1 bytes @ 0x0
   721                           
   722  0070                     ?_ADC_channel2:	
   723                           ; 1 bytes @ 0x0
   724                           
   725  0070                     ?_float_to_string:	
   726                           ; 1 bytes @ 0x0
   727                           
   728  0070                     ?_ADC_Config:	
   729                           ; 1 bytes @ 0x0
   730                           
   731  0070                     ??_ADC_Config:	
   732                           ; 1 bytes @ 0x0
   733                           
   734  0070                     ?_initOsc:	
   735                           ; 1 bytes @ 0x0
   736                           
   737  0070                     ??_initOsc:	
   738                           ; 1 bytes @ 0x0
   739                           
   740  0070                     ?_Lcd_Port:	
   741                           ; 1 bytes @ 0x0
   742                           
   743  0070                     ??_Lcd_Port:	
   744                           ; 1 bytes @ 0x0
   745                           
   746  0070                     ?_Lcd_Cmd:	
   747                           ; 1 bytes @ 0x0
   748                           
   749  0070                     ??_isdigit:	
   750                           ; 1 bytes @ 0x0
   751                           
   752  0070                     ?_main:	
   753                           ; 1 bytes @ 0x0
   754                           
   755  0070                     ?_Lcd_Write_Char:	
   756                           ; 1 bytes @ 0x0
   757                           
   758  0070                     ?___bmul:	
   759                           ; 1 bytes @ 0x0
   760                           
   761  0070                     ?__Umul8_16:	
   762                           ; 1 bytes @ 0x0
   763                           
   764  0070                     ?___lwdiv:	
   765                           ; 2 bytes @ 0x0
   766                           
   767  0070                     ?___xxtofl:	
   768                           ; 2 bytes @ 0x0
   769                           
   770  0070                     Lcd_Port@a:	
   771                           ; 4 bytes @ 0x0
   772                           
   773  0070                     ___bmul@multiplicand:	
   774                           ; 1 bytes @ 0x0
   775                           
   776  0070                     __Umul8_16@multiplicand:	
   777                           ; 1 bytes @ 0x0
   778                           
   779  0070                     _isdigit$954:	
   780                           ; 1 bytes @ 0x0
   781                           
   782  0070                     ___lwdiv@divisor:	
   783                           ; 1 bytes @ 0x0
   784                           
   785  0070                     ___xxtofl@val:	
   786                           ; 2 bytes @ 0x0
   787                           
   788                           
   789                           ; 4 bytes @ 0x0
   790  0070                     	ds	1
   791  0071                     ??_Lcd_Cmd:
   792  0071                     ??_Lcd_Write_Char:	
   793                           ; 1 bytes @ 0x1
   794                           
   795  0071                     ??___bmul:	
   796                           ; 1 bytes @ 0x1
   797                           
   798  0071                     isdigit@c:	
   799                           ; 1 bytes @ 0x1
   800                           
   801                           
   802                           ; 1 bytes @ 0x1
   803  0071                     	ds	1
   804  0072                     ??__Umul8_16:
   805  0072                     initOsc@IRCF:	
   806                           ; 1 bytes @ 0x2
   807                           
   808  0072                     Lcd_Write_Char@a:	
   809                           ; 1 bytes @ 0x2
   810                           
   811  0072                     ADC_Config@AN_num:	
   812                           ; 1 bytes @ 0x2
   813                           
   814  0072                     ___bmul@product:	
   815                           ; 1 bytes @ 0x2
   816                           
   817  0072                     ___lwdiv@dividend:	
   818                           ; 1 bytes @ 0x2
   819                           
   820                           
   821                           ; 2 bytes @ 0x2
   822  0072                     	ds	1
   823  0073                     ??_setup:
   824  0073                     ?_Lcd_Write_String:	
   825                           ; 1 bytes @ 0x3
   826                           
   827  0073                     Lcd_Cmd@a:	
   828                           ; 1 bytes @ 0x3
   829                           
   830  0073                     ___bmul@multiplier:	
   831                           ; 1 bytes @ 0x3
   832                           
   833  0073                     Lcd_Write_String@a:	
   834                           ; 1 bytes @ 0x3
   835                           
   836                           
   837                           ; 2 bytes @ 0x3
   838  0073                     	ds	1
   839  0074                     ??_Lcd_Init:
   840  0074                     ?_Lcd_Set_Cursor:	
   841                           ; 1 bytes @ 0x4
   842                           
   843  0074                     ??___lwdiv:	
   844                           ; 1 bytes @ 0x4
   845                           
   846  0074                     ??___xxtofl:	
   847                           ; 1 bytes @ 0x4
   848                           
   849  0074                     Lcd_Set_Cursor@b:	
   850                           ; 1 bytes @ 0x4
   851                           
   852  0074                     __Umul8_16@product:	
   853                           ; 1 bytes @ 0x4
   854                           
   855                           
   856                           ; 2 bytes @ 0x4
   857  0074                     	ds	1
   858  0075                     ??_Lcd_Set_Cursor:
   859  0075                     ??_Lcd_Write_String:	
   860                           ; 1 bytes @ 0x5
   861                           
   862  0075                     ___lwdiv@quotient:	
   863                           ; 1 bytes @ 0x5
   864                           
   865                           
   866                           ; 2 bytes @ 0x5
   867  0075                     	ds	1
   868  0076                     Lcd_Set_Cursor@a:
   869  0076                     __Umul8_16@word_mpld:	
   870                           ; 1 bytes @ 0x6
   871                           
   872                           
   873                           ; 2 bytes @ 0x6
   874  0076                     	ds	1
   875  0077                     Lcd_Set_Cursor@temp:
   876  0077                     ___lwdiv@counter:	
   877                           ; 1 bytes @ 0x7
   878                           
   879                           
   880                           ; 1 bytes @ 0x7
   881  0077                     	ds	1
   882  0078                     ?___lwmod:
   883  0078                     __Umul8_16@multiplier:	
   884                           ; 2 bytes @ 0x8
   885                           
   886  0078                     ___xxtofl@sign:	
   887                           ; 1 bytes @ 0x8
   888                           
   889  0078                     Lcd_Write_String@i:	
   890                           ; 1 bytes @ 0x8
   891                           
   892  0078                     ___lwmod@divisor:	
   893                           ; 2 bytes @ 0x8
   894                           
   895                           
   896                           ; 2 bytes @ 0x8
   897  0078                     	ds	1
   898  0079                     ___xxtofl@exp:
   899                           
   900                           ; 1 bytes @ 0x9
   901  0079                     	ds	1
   902  007A                     ??_titulos_LCD:
   903  007A                     ___lwmod@dividend:	
   904                           ; 1 bytes @ 0xA
   905                           
   906  007A                     ___xxtofl@arg:	
   907                           ; 2 bytes @ 0xA
   908                           
   909                           
   910                           ; 4 bytes @ 0xA
   911  007A                     	ds	2
   912  007C                     ??___lwmod:
   913                           
   914                           ; 1 bytes @ 0xC
   915  007C                     	ds	1
   916  007D                     ___lwmod@counter:
   917                           
   918                           ; 1 bytes @ 0xD
   919  007D                     	ds	1
   920                           
   921                           	psect	cstackBANK0
   922  0020                     __pcstackBANK0:
   923  0020                     ?_sprintf:
   924  0020                     ?___flmul:	
   925                           ; 2 bytes @ 0x0
   926                           
   927  0020                     sprintf@f:	
   928                           ; 4 bytes @ 0x0
   929                           
   930  0020                     ___flmul@b:	
   931                           ; 1 bytes @ 0x0
   932                           
   933                           
   934                           ; 4 bytes @ 0x0
   935  0020                     	ds	4
   936  0024                     ___flmul@a:
   937                           
   938                           ; 4 bytes @ 0x4
   939  0024                     	ds	1
   940  0025                     ??_sprintf:
   941                           
   942                           ; 1 bytes @ 0x5
   943  0025                     	ds	3
   944  0028                     ??___flmul:
   945  0028                     sprintf@ap:	
   946                           ; 1 bytes @ 0x8
   947                           
   948                           
   949                           ; 1 bytes @ 0x8
   950  0028                     	ds	1
   951  0029                     sprintf@flag:
   952                           
   953                           ; 1 bytes @ 0x9
   954  0029                     	ds	1
   955  002A                     sprintf@sp:
   956                           
   957                           ; 1 bytes @ 0xA
   958  002A                     	ds	1
   959  002B                     sprintf@val:
   960                           
   961                           ; 2 bytes @ 0xB
   962  002B                     	ds	2
   963  002D                     sprintf@prec:
   964  002D                     ___flmul@sign:	
   965                           ; 1 bytes @ 0xD
   966                           
   967                           
   968                           ; 1 bytes @ 0xD
   969  002D                     	ds	1
   970  002E                     sprintf@c:
   971  002E                     ___flmul@grs:	
   972                           ; 1 bytes @ 0xE
   973                           
   974                           
   975                           ; 4 bytes @ 0xE
   976  002E                     	ds	1
   977  002F                     ??_float_to_string:
   978                           
   979                           ; 1 bytes @ 0xF
   980  002F                     	ds	3
   981  0032                     ___flmul@aexp:
   982                           
   983                           ; 1 bytes @ 0x12
   984  0032                     	ds	1
   985  0033                     ___flmul@bexp:
   986                           
   987                           ; 1 bytes @ 0x13
   988  0033                     	ds	1
   989  0034                     ___flmul@prod:
   990                           
   991                           ; 4 bytes @ 0x14
   992  0034                     	ds	4
   993  0038                     ___flmul@temp:
   994                           
   995                           ; 2 bytes @ 0x18
   996  0038                     	ds	2
   997  003A                     ?___fldiv:
   998  003A                     ___fldiv@a:	
   999                           ; 4 bytes @ 0x1A
  1000                           
  1001                           
  1002                           ; 4 bytes @ 0x1A
  1003  003A                     	ds	4
  1004  003E                     ___fldiv@b:
  1005                           
  1006                           ; 4 bytes @ 0x1E
  1007  003E                     	ds	4
  1008  0042                     ??___fldiv:
  1009                           
  1010                           ; 1 bytes @ 0x22
  1011  0042                     	ds	5
  1012  0047                     ___fldiv@rem:
  1013                           
  1014                           ; 4 bytes @ 0x27
  1015  0047                     	ds	4
  1016  004B                     ___fldiv@sign:
  1017                           
  1018                           ; 1 bytes @ 0x2B
  1019  004B                     	ds	1
  1020  004C                     ___fldiv@new_exp:
  1021                           
  1022                           ; 2 bytes @ 0x2C
  1023  004C                     	ds	2
  1024  004E                     ___fldiv@grs:
  1025                           
  1026                           ; 4 bytes @ 0x2E
  1027  004E                     	ds	4
  1028  0052                     ___fldiv@bexp:
  1029                           
  1030                           ; 1 bytes @ 0x32
  1031  0052                     	ds	1
  1032  0053                     ___fldiv@aexp:
  1033                           
  1034                           ; 1 bytes @ 0x33
  1035  0053                     	ds	1
  1036  0054                     ??_ADC_channel1:
  1037  0054                     ??_ADC_channel2:	
  1038                           ; 1 bytes @ 0x34
  1039                           
  1040                           
  1041                           ; 1 bytes @ 0x34
  1042  0054                     	ds	4
  1043  0058                     ??_main:
  1044                           
  1045                           ; 1 bytes @ 0x38
  1046  0058                     	ds	2
  1047                           
  1048                           	psect	maintext
  1049  0028                     __pmaintext:	
  1050 ;;
  1051 ;;Main: autosize = 0, tempsize = 2, incstack = 0, save=0
  1052 ;;
  1053 ;; *************** function _main *****************
  1054 ;; Defined at:
  1055 ;;		line 111 in file "pseudocodigo_lab3.c"
  1056 ;; Parameters:    Size  Location     Type
  1057 ;;		None
  1058 ;; Auto vars:     Size  Location     Type
  1059 ;;		None
  1060 ;; Return value:  Size  Location     Type
  1061 ;;                  1    wreg      void 
  1062 ;; Registers used:
  1063 ;;		wreg, fsr0l, fsr0h, status,2, status,0, btemp+1, pclath, cstack
  1064 ;; Tracked objects:
  1065 ;;		On entry : B00/0
  1066 ;;		On exit  : 0/0
  1067 ;;		Unchanged: 0/0
  1068 ;; Data sizes:     COMMON   BANK0   BANK1   BANK3   BANK2
  1069 ;;      Params:         0       0       0       0       0
  1070 ;;      Locals:         0       0       0       0       0
  1071 ;;      Temps:          0       2       0       0       0
  1072 ;;      Totals:         0       2       0       0       0
  1073 ;;Total ram usage:        2 bytes
  1074 ;; Hardware stack levels required when called:    4
  1075 ;; This function calls:
  1076 ;;		_ADC_channel1
  1077 ;;		_ADC_channel2
  1078 ;;		_Lcd_Init
  1079 ;;		_Lcd_Set_Cursor
  1080 ;;		_Lcd_Write_String
  1081 ;;		_USART_Init
  1082 ;;		_USART_Init_BaudRate
  1083 ;;		_float_to_string
  1084 ;;		_setup
  1085 ;;		_titulos_LCD
  1086 ;; This function is called by:
  1087 ;;		Startup code after reset
  1088 ;; This function uses a non-reentrant model
  1089 ;;
  1090                           
  1091                           
  1092                           ;psect for function _main
  1093  0028                     _main:
  1094  0028                     l2275:	
  1095                           ;incstack = 0
  1096                           ; Regs used in _main: [wreg-fsr0h+status,2+status,0+btemp+1+pclath+cstack]
  1097                           
  1098                           
  1099                           ;pseudocodigo_lab3.c: 112:     setup();
  1100  0028  120A  158A  24D4  120A  118A  	fcall	_setup
  1101  002D                     l2277:
  1102                           
  1103                           ;pseudocodigo_lab3.c: 113:     USART_Init();
  1104  002D  120A  158A  2444  120A  118A  	fcall	_USART_Init
  1105  0032                     l2279:
  1106                           
  1107                           ;pseudocodigo_lab3.c: 115:     USART_Init_BaudRate();
  1108  0032  120A  158A  2431  120A  118A  	fcall	_USART_Init_BaudRate
  1109  0037                     l2281:
  1110                           
  1111                           ;pseudocodigo_lab3.c: 116:     Lcd_Init();
  1112  0037  120A  158A  25D7  120A  118A  	fcall	_Lcd_Init
  1113  003C                     l2283:
  1114                           
  1115                           ;pseudocodigo_lab3.c: 117:     titulos_LCD();
  1116  003C  120A  158A  2466  120A  118A  	fcall	_titulos_LCD
  1117  0041                     l2285:
  1118                           
  1119                           ;pseudocodigo_lab3.c: 125:         ADC_channel1();
  1120  0041  120A  158A  267E  120A  118A  	fcall	_ADC_channel1
  1121  0046                     l2287:
  1122                           
  1123                           ;pseudocodigo_lab3.c: 126:         _delay((unsigned long)((1)*(8000000/4000.0)));
  1124  0046  3003               	movlw	3
  1125  0047  1283               	bcf	3,5	;RP0=0, select bank0
  1126  0048  1303               	bcf	3,6	;RP1=0, select bank0
  1127  0049  00D9               	movwf	??_main+1
  1128  004A  3097               	movlw	151
  1129  004B  00D8               	movwf	??_main
  1130  004C                     u2437:
  1131  004C  0BD8               	decfsz	??_main,f
  1132  004D  284C               	goto	u2437
  1133  004E  0BD9               	decfsz	??_main+1,f
  1134  004F  284C               	goto	u2437
  1135  0050                     l2289:
  1136                           
  1137                           ;pseudocodigo_lab3.c: 127:         ADC_channel2();
  1138  0050  120A  158A  26E2  120A  118A  	fcall	_ADC_channel2
  1139  0055                     l2291:
  1140                           
  1141                           ;pseudocodigo_lab3.c: 128:         _delay((unsigned long)((1)*(8000000/4000.0)));
  1142  0055  3003               	movlw	3
  1143  0056  1283               	bcf	3,5	;RP0=0, select bank0
  1144  0057  1303               	bcf	3,6	;RP1=0, select bank0
  1145  0058  00D9               	movwf	??_main+1
  1146  0059  3097               	movlw	151
  1147  005A  00D8               	movwf	??_main
  1148  005B                     u2447:
  1149  005B  0BD8               	decfsz	??_main,f
  1150  005C  285B               	goto	u2447
  1151  005D  0BD9               	decfsz	??_main+1,f
  1152  005E  285B               	goto	u2447
  1153  005F                     l2293:
  1154                           
  1155                           ;pseudocodigo_lab3.c: 130:         float_to_string();
  1156  005F  120A  158A  248F  120A  118A  	fcall	_float_to_string
  1157  0064                     l2295:
  1158                           
  1159                           ;pseudocodigo_lab3.c: 134:         Lcd_Set_Cursor(2,1);
  1160  0064  01F4               	clrf	Lcd_Set_Cursor@b
  1161  0065  0AF4               	incf	Lcd_Set_Cursor@b,f
  1162  0066  3002               	movlw	2
  1163  0067  120A  118A  2004  120A  118A  	fcall	_Lcd_Set_Cursor
  1164  006C                     l2297:
  1165                           
  1166                           ;pseudocodigo_lab3.c: 135:         Lcd_Write_String(data1);
  1167  006C  30A8               	movlw	(low (_data1| 0))& (0+255)
  1168  006D  00F3               	movwf	Lcd_Write_String@a
  1169  006E  3000               	movlw	0
  1170  006F  00F4               	movwf	Lcd_Write_String@a+1
  1171  0070  120A  158A  2551  120A  118A  	fcall	_Lcd_Write_String
  1172  0075                     l2299:
  1173                           
  1174                           ;pseudocodigo_lab3.c: 136:         Lcd_Set_Cursor(2,7);
  1175  0075  3007               	movlw	7
  1176  0076  1283               	bcf	3,5	;RP0=0, select bank0
  1177  0077  1303               	bcf	3,6	;RP1=0, select bank0
  1178  0078  00D8               	movwf	??_main
  1179  0079  0858               	movf	??_main,w
  1180  007A  00F4               	movwf	Lcd_Set_Cursor@b
  1181  007B  3002               	movlw	2
  1182  007C  120A  118A  2004  120A  118A  	fcall	_Lcd_Set_Cursor
  1183  0081                     l2301:
  1184                           
  1185                           ;pseudocodigo_lab3.c: 137:         Lcd_Write_String(data2);
  1186  0081  30A0               	movlw	(low (_data2| 0))& (0+255)
  1187  0082  00F3               	movwf	Lcd_Write_String@a
  1188  0083  3000               	movlw	0
  1189  0084  00F4               	movwf	Lcd_Write_String@a+1
  1190  0085  120A  158A  2551  120A  118A  	fcall	_Lcd_Write_String
  1191  008A  2841               	goto	l2285
  1192  008B  120A  118A  2800   	ljmp	start
  1193  008E                     __end_of_main:
  1194                           
  1195                           	psect	text1
  1196  0C66                     __ptext1:	
  1197 ;; *************** function _titulos_LCD *****************
  1198 ;; Defined at:
  1199 ;;		line 151 in file "pseudocodigo_lab3.c"
  1200 ;; Parameters:    Size  Location     Type
  1201 ;;		None
  1202 ;; Auto vars:     Size  Location     Type
  1203 ;;		None
  1204 ;; Return value:  Size  Location     Type
  1205 ;;                  1    wreg      void 
  1206 ;; Registers used:
  1207 ;;		wreg, fsr0l, fsr0h, status,2, status,0, btemp+1, pclath, cstack
  1208 ;; Tracked objects:
  1209 ;;		On entry : 0/0
  1210 ;;		On exit  : 0/0
  1211 ;;		Unchanged: 0/0
  1212 ;; Data sizes:     COMMON   BANK0   BANK1   BANK3   BANK2
  1213 ;;      Params:         0       0       0       0       0
  1214 ;;      Locals:         0       0       0       0       0
  1215 ;;      Temps:          1       0       0       0       0
  1216 ;;      Totals:         1       0       0       0       0
  1217 ;;Total ram usage:        1 bytes
  1218 ;; Hardware stack levels used:    1
  1219 ;; Hardware stack levels required when called:    3
  1220 ;; This function calls:
  1221 ;;		_Lcd_Set_Cursor
  1222 ;;		_Lcd_Write_String
  1223 ;; This function is called by:
  1224 ;;		_main
  1225 ;; This function uses a non-reentrant model
  1226 ;;
  1227                           
  1228                           
  1229                           ;psect for function _titulos_LCD
  1230  0C66                     _titulos_LCD:
  1231  0C66                     l2249:	
  1232                           ;incstack = 0
  1233                           ; Regs used in _titulos_LCD: [wreg-fsr0h+status,2+status,0+btemp+1+pclath+cstack]
  1234                           
  1235                           
  1236                           ;pseudocodigo_lab3.c: 153:         Lcd_Set_Cursor(1,2);
  1237  0C66  3002               	movlw	2
  1238  0C67  00FA               	movwf	??_titulos_LCD
  1239  0C68  087A               	movf	??_titulos_LCD,w
  1240  0C69  00F4               	movwf	Lcd_Set_Cursor@b
  1241  0C6A  3001               	movlw	1
  1242  0C6B  120A  118A  2004  120A  158A  	fcall	_Lcd_Set_Cursor
  1243  0C70                     l2251:
  1244                           
  1245                           ;pseudocodigo_lab3.c: 154:         Lcd_Write_String("S1:   S2:  S3:");
  1246  0C70  300B               	movlw	(low ((STR_1-__stringbase)| (0+32768)))& (0+255)
  1247  0C71  00F3               	movwf	Lcd_Write_String@a
  1248  0C72  3080               	movlw	128
  1249  0C73  00F4               	movwf	Lcd_Write_String@a+1
  1250  0C74  120A  158A  2551  120A  158A  	fcall	_Lcd_Write_String
  1251  0C79                     l81:
  1252  0C79  0008               	return
  1253  0C7A                     __end_of_titulos_LCD:
  1254                           
  1255                           	psect	text2
  1256  0D51                     __ptext2:	
  1257 ;; *************** function _Lcd_Write_String *****************
  1258 ;; Defined at:
  1259 ;;		line 70 in file "LCD.c"
  1260 ;; Parameters:    Size  Location     Type
  1261 ;;  a               2    3[COMMON] PTR unsigned char 
  1262 ;;		 -> STR_1(15), data2(8), data1(8), 
  1263 ;; Auto vars:     Size  Location     Type
  1264 ;;  i               2    8[COMMON] int 
  1265 ;; Return value:  Size  Location     Type
  1266 ;;                  1    wreg      void 
  1267 ;; Registers used:
  1268 ;;		wreg, fsr0l, fsr0h, status,2, status,0, btemp+1, pclath, cstack
  1269 ;; Tracked objects:
  1270 ;;		On entry : 0/0
  1271 ;;		On exit  : 0/0
  1272 ;;		Unchanged: 0/0
  1273 ;; Data sizes:     COMMON   BANK0   BANK1   BANK3   BANK2
  1274 ;;      Params:         2       0       0       0       0
  1275 ;;      Locals:         2       0       0       0       0
  1276 ;;      Temps:          3       0       0       0       0
  1277 ;;      Totals:         7       0       0       0       0
  1278 ;;Total ram usage:        7 bytes
  1279 ;; Hardware stack levels used:    1
  1280 ;; Hardware stack levels required when called:    2
  1281 ;; This function calls:
  1282 ;;		_Lcd_Write_Char
  1283 ;; This function is called by:
  1284 ;;		_main
  1285 ;;		_titulos_LCD
  1286 ;; This function uses a non-reentrant model
  1287 ;;
  1288                           
  1289                           
  1290                           ;psect for function _Lcd_Write_String
  1291  0D51                     _Lcd_Write_String:
  1292  0D51                     l1753:	
  1293                           ;incstack = 0
  1294                           ; Regs used in _Lcd_Write_String: [wreg-fsr0h+status,2+status,0+btemp+1+pclath+cstack]
  1295                           
  1296                           
  1297                           ;LCD.c: 71:  int i;;LCD.c: 72:  for(i=0;a[i]!='\0';i++)
  1298  0D51  01F8               	clrf	Lcd_Write_String@i
  1299  0D52  01F9               	clrf	Lcd_Write_String@i+1
  1300  0D53  2D76               	goto	l1759
  1301  0D54                     l1755:
  1302                           
  1303                           ;LCD.c: 73:     Lcd_Write_Char(a[i]);
  1304  0D54  0878               	movf	Lcd_Write_String@i,w
  1305  0D55  0773               	addwf	Lcd_Write_String@a,w
  1306  0D56  00F6               	movwf	??_Lcd_Write_String+1
  1307  0D57  0874               	movf	Lcd_Write_String@a+1,w
  1308  0D58  00F5               	movwf	??_Lcd_Write_String
  1309  0D59  1803               	skipnc
  1310  0D5A  0AF5               	incf	??_Lcd_Write_String,f
  1311  0D5B  1FF8               	btfss	Lcd_Write_String@i,7
  1312  0D5C  2D5E               	goto	u1440
  1313  0D5D  03F5               	decf	??_Lcd_Write_String,f
  1314  0D5E                     u1440:
  1315  0D5E  0875               	movf	??_Lcd_Write_String,w
  1316  0D5F  00F7               	movwf	??_Lcd_Write_String+2
  1317  0D60  0877               	movf	??_Lcd_Write_String+2,w
  1318  0D61  1283               	bcf	3,5	;RP0=0, select bank0
  1319  0D62  1303               	bcf	3,6	;RP1=0, select bank0
  1320  0D63  00FF               	movwf	btemp+1
  1321  0D64  0876               	movf	??_Lcd_Write_String+1,w
  1322  0D65  0084               	movwf	4
  1323  0D66  120A  158A  2000  120A  158A  	fcall	stringtab
  1324  0D6B  120A  158A  24A4  120A  158A  	fcall	_Lcd_Write_Char
  1325  0D70                     l1757:
  1326  0D70  3001               	movlw	1
  1327  0D71  07F8               	addwf	Lcd_Write_String@i,f
  1328  0D72  1803               	skipnc
  1329  0D73  0AF9               	incf	Lcd_Write_String@i+1,f
  1330  0D74  3000               	movlw	0
  1331  0D75  07F9               	addwf	Lcd_Write_String@i+1,f
  1332  0D76                     l1759:
  1333  0D76  0878               	movf	Lcd_Write_String@i,w
  1334  0D77  0773               	addwf	Lcd_Write_String@a,w
  1335  0D78  00F6               	movwf	??_Lcd_Write_String+1
  1336  0D79  0874               	movf	Lcd_Write_String@a+1,w
  1337  0D7A  00F5               	movwf	??_Lcd_Write_String
  1338  0D7B  1803               	skipnc
  1339  0D7C  0AF5               	incf	??_Lcd_Write_String,f
  1340  0D7D  1FF8               	btfss	Lcd_Write_String@i,7
  1341  0D7E  2D80               	goto	u1450
  1342  0D7F  03F5               	decf	??_Lcd_Write_String,f
  1343  0D80                     u1450:
  1344  0D80  0875               	movf	??_Lcd_Write_String,w
  1345  0D81  00F7               	movwf	??_Lcd_Write_String+2
  1346  0D82  0877               	movf	??_Lcd_Write_String+2,w
  1347  0D83  1283               	bcf	3,5	;RP0=0, select bank0
  1348  0D84  1303               	bcf	3,6	;RP1=0, select bank0
  1349  0D85  00FF               	movwf	btemp+1
  1350  0D86  0876               	movf	??_Lcd_Write_String+1,w
  1351  0D87  0084               	movwf	4
  1352  0D88  120A  158A  2000  120A  158A  	fcall	stringtab
  1353  0D8D  3A00               	xorlw	0
  1354  0D8E  1D03               	skipz
  1355  0D8F  2D91               	goto	u1461
  1356  0D90  2D92               	goto	u1460
  1357  0D91                     u1461:
  1358  0D91  2D54               	goto	l1755
  1359  0D92                     u1460:
  1360  0D92                     l152:
  1361  0D92  0008               	return
  1362  0D93                     __end_of_Lcd_Write_String:
  1363                           
  1364                           	psect	text3
  1365  0CA4                     __ptext3:	
  1366 ;; *************** function _Lcd_Write_Char *****************
  1367 ;; Defined at:
  1368 ;;		line 61 in file "LCD.c"
  1369 ;; Parameters:    Size  Location     Type
  1370 ;;  a               1    wreg     unsigned char 
  1371 ;; Auto vars:     Size  Location     Type
  1372 ;;  a               1    2[COMMON] unsigned char 
  1373 ;; Return value:  Size  Location     Type
  1374 ;;                  1    wreg      void 
  1375 ;; Registers used:
  1376 ;;		wreg, status,2, status,0, pclath, cstack
  1377 ;; Tracked objects:
  1378 ;;		On entry : 0/0
  1379 ;;		On exit  : 0/0
  1380 ;;		Unchanged: 0/0
  1381 ;; Data sizes:     COMMON   BANK0   BANK1   BANK3   BANK2
  1382 ;;      Params:         0       0       0       0       0
  1383 ;;      Locals:         1       0       0       0       0
  1384 ;;      Temps:          1       0       0       0       0
  1385 ;;      Totals:         2       0       0       0       0
  1386 ;;Total ram usage:        2 bytes
  1387 ;; Hardware stack levels used:    1
  1388 ;; Hardware stack levels required when called:    1
  1389 ;; This function calls:
  1390 ;;		_Lcd_Port
  1391 ;; This function is called by:
  1392 ;;		_Lcd_Write_String
  1393 ;; This function uses a non-reentrant model
  1394 ;;
  1395                           
  1396                           
  1397                           ;psect for function _Lcd_Write_Char
  1398  0CA4                     _Lcd_Write_Char:
  1399                           
  1400                           ;incstack = 0
  1401                           ; Regs used in _Lcd_Write_Char: [wreg+status,2+status,0+pclath+cstack]
  1402                           ;Lcd_Write_Char@a stored from wreg
  1403  0CA4  00F2               	movwf	Lcd_Write_Char@a
  1404  0CA5                     l1643:
  1405                           
  1406                           ;LCD.c: 62:    PORTEbits.RE0 = 1;
  1407  0CA5  1283               	bcf	3,5	;RP0=0, select bank0
  1408  0CA6  1303               	bcf	3,6	;RP1=0, select bank0
  1409  0CA7  1409               	bsf	9,0	;volatile
  1410  0CA8                     l1645:
  1411                           
  1412                           ;LCD.c: 63:    Lcd_Port(a);
  1413  0CA8  0872               	movf	Lcd_Write_Char@a,w
  1414  0CA9  120A  158A  2436  120A  158A  	fcall	_Lcd_Port
  1415  0CAE                     l1647:
  1416                           
  1417                           ;LCD.c: 64:    PORTEbits.RE2 = 1;
  1418  0CAE  1283               	bcf	3,5	;RP0=0, select bank0
  1419  0CAF  1303               	bcf	3,6	;RP1=0, select bank0
  1420  0CB0  1509               	bsf	9,2	;volatile
  1421  0CB1                     l1649:
  1422                           
  1423                           ;LCD.c: 65:    _delay((unsigned long)((40)*(8000000/4000000.0)));
  1424  0CB1  301A               	movlw	26
  1425  0CB2  00F1               	movwf	??_Lcd_Write_Char
  1426  0CB3                     u2457:
  1427  0CB3  0BF1               	decfsz	??_Lcd_Write_Char,f
  1428  0CB4  2CB3               	goto	u2457
  1429  0CB5  0000               	nop
  1430  0CB6                     l1651:
  1431                           
  1432                           ;LCD.c: 66:    PORTEbits.RE2 = 0;
  1433  0CB6  1283               	bcf	3,5	;RP0=0, select bank0
  1434  0CB7  1303               	bcf	3,6	;RP1=0, select bank0
  1435  0CB8  1109               	bcf	9,2	;volatile
  1436  0CB9                     l146:
  1437  0CB9  0008               	return
  1438  0CBA                     __end_of_Lcd_Write_Char:
  1439                           
  1440                           	psect	text4
  1441  0004                     __ptext4:	
  1442 ;; *************** function _Lcd_Set_Cursor *****************
  1443 ;; Defined at:
  1444 ;;		line 48 in file "LCD.c"
  1445 ;; Parameters:    Size  Location     Type
  1446 ;;  a               1    wreg     unsigned char 
  1447 ;;  b               1    4[COMMON] unsigned char 
  1448 ;; Auto vars:     Size  Location     Type
  1449 ;;  a               1    6[COMMON] unsigned char 
  1450 ;;  temp            1    7[COMMON] unsigned char 
  1451 ;; Return value:  Size  Location     Type
  1452 ;;                  1    wreg      void 
  1453 ;; Registers used:
  1454 ;;		wreg, status,2, status,0, pclath, cstack
  1455 ;; Tracked objects:
  1456 ;;		On entry : 0/0
  1457 ;;		On exit  : 0/0
  1458 ;;		Unchanged: 0/0
  1459 ;; Data sizes:     COMMON   BANK0   BANK1   BANK3   BANK2
  1460 ;;      Params:         1       0       0       0       0
  1461 ;;      Locals:         2       0       0       0       0
  1462 ;;      Temps:          1       0       0       0       0
  1463 ;;      Totals:         4       0       0       0       0
  1464 ;;Total ram usage:        4 bytes
  1465 ;; Hardware stack levels used:    1
  1466 ;; Hardware stack levels required when called:    2
  1467 ;; This function calls:
  1468 ;;		_Lcd_Cmd
  1469 ;; This function is called by:
  1470 ;;		_main
  1471 ;;		_titulos_LCD
  1472 ;; This function uses a non-reentrant model
  1473 ;;
  1474                           
  1475                           
  1476                           ;psect for function _Lcd_Set_Cursor
  1477  0004                     _Lcd_Set_Cursor:
  1478                           
  1479                           ;incstack = 0
  1480                           ; Regs used in _Lcd_Set_Cursor: [wreg+status,2+status,0+pclath+cstack]
  1481                           ;Lcd_Set_Cursor@a stored from wreg
  1482  0004  00F6               	movwf	Lcd_Set_Cursor@a
  1483  0005                     l1741:
  1484                           
  1485                           ;LCD.c: 49:  char temp;;LCD.c: 50:  if(a == 1){
  1486  0005  0376               	decf	Lcd_Set_Cursor@a,w
  1487  0006  1D03               	btfss	3,2
  1488  0007  2809               	goto	u1421
  1489  0008  280A               	goto	u1420
  1490  0009                     u1421:
  1491  0009  2816               	goto	l1747
  1492  000A                     u1420:
  1493  000A                     l1743:
  1494                           
  1495                           ;LCD.c: 51:         temp = 0x80 + b - 1;
  1496  000A  0874               	movf	Lcd_Set_Cursor@b,w
  1497  000B  3E7F               	addlw	127
  1498  000C  00F5               	movwf	??_Lcd_Set_Cursor
  1499  000D  0875               	movf	??_Lcd_Set_Cursor,w
  1500  000E  00F7               	movwf	Lcd_Set_Cursor@temp
  1501  000F                     l1745:
  1502                           
  1503                           ;LCD.c: 52:         Lcd_Cmd(temp);
  1504  000F  0877               	movf	Lcd_Set_Cursor@temp,w
  1505  0010  120A  158A  24BA  120A  118A  	fcall	_Lcd_Cmd
  1506                           
  1507                           ;LCD.c: 53:  }
  1508  0015  2827               	goto	l143
  1509  0016                     l1747:
  1510  0016  3002               	movlw	2
  1511  0017  0676               	xorwf	Lcd_Set_Cursor@a,w
  1512  0018  1D03               	btfss	3,2
  1513  0019  281B               	goto	u1431
  1514  001A  281C               	goto	u1430
  1515  001B                     u1431:
  1516  001B  2827               	goto	l143
  1517  001C                     u1430:
  1518  001C                     l1749:
  1519                           
  1520                           ;LCD.c: 55:   temp = 0xC0 + b - 1;
  1521  001C  0874               	movf	Lcd_Set_Cursor@b,w
  1522  001D  3EBF               	addlw	191
  1523  001E  00F5               	movwf	??_Lcd_Set_Cursor
  1524  001F  0875               	movf	??_Lcd_Set_Cursor,w
  1525  0020  00F7               	movwf	Lcd_Set_Cursor@temp
  1526  0021                     l1751:
  1527                           
  1528                           ;LCD.c: 56:   Lcd_Cmd(temp);
  1529  0021  0877               	movf	Lcd_Set_Cursor@temp,w
  1530  0022  120A  158A  24BA  120A  118A  	fcall	_Lcd_Cmd
  1531  0027                     l143:
  1532  0027  0008               	return
  1533  0028                     __end_of_Lcd_Set_Cursor:
  1534                           
  1535                           	psect	text5
  1536  0CD4                     __ptext5:	
  1537 ;; *************** function _setup *****************
  1538 ;; Defined at:
  1539 ;;		line 194 in file "pseudocodigo_lab3.c"
  1540 ;; Parameters:    Size  Location     Type
  1541 ;;		None
  1542 ;; Auto vars:     Size  Location     Type
  1543 ;;		None
  1544 ;; Return value:  Size  Location     Type
  1545 ;;                  1    wreg      void 
  1546 ;; Registers used:
  1547 ;;		wreg, fsr0l, fsr0h, status,2, status,0, pclath, cstack
  1548 ;; Tracked objects:
  1549 ;;		On entry : 0/0
  1550 ;;		On exit  : 0/0
  1551 ;;		Unchanged: 0/0
  1552 ;; Data sizes:     COMMON   BANK0   BANK1   BANK3   BANK2
  1553 ;;      Params:         0       0       0       0       0
  1554 ;;      Locals:         0       0       0       0       0
  1555 ;;      Temps:          0       0       0       0       0
  1556 ;;      Totals:         0       0       0       0       0
  1557 ;;Total ram usage:        0 bytes
  1558 ;; Hardware stack levels used:    1
  1559 ;; Hardware stack levels required when called:    1
  1560 ;; This function calls:
  1561 ;;		_initOsc
  1562 ;; This function is called by:
  1563 ;;		_main
  1564 ;; This function uses a non-reentrant model
  1565 ;;
  1566                           
  1567                           
  1568                           ;psect for function _setup
  1569  0CD4                     _setup:
  1570  0CD4                     l2205:	
  1571                           ;incstack = 0
  1572                           ; Regs used in _setup: [wreg-fsr0h+status,2+status,0+pclath+cstack]
  1573                           
  1574                           
  1575                           ;pseudocodigo_lab3.c: 195:     initOsc(0b00000110);
  1576  0CD4  3006               	movlw	6
  1577  0CD5  120A  158A  2622  120A  158A  	fcall	_initOsc
  1578  0CDA                     l2207:
  1579                           
  1580                           ;pseudocodigo_lab3.c: 196:     ANSEL = 0b00000011;
  1581  0CDA  3003               	movlw	3
  1582  0CDB  1683               	bsf	3,5	;RP0=1, select bank3
  1583  0CDC  1703               	bsf	3,6	;RP1=1, select bank3
  1584  0CDD  0088               	movwf	8	;volatile
  1585  0CDE                     l2209:
  1586                           
  1587                           ;pseudocodigo_lab3.c: 197:     ANSELH = 0;
  1588  0CDE  0189               	clrf	9	;volatile
  1589  0CDF                     l2211:
  1590                           
  1591                           ;pseudocodigo_lab3.c: 198:     TRISA = 0b00000011;
  1592  0CDF  3003               	movlw	3
  1593  0CE0  1683               	bsf	3,5	;RP0=1, select bank1
  1594  0CE1  1303               	bcf	3,6	;RP1=0, select bank1
  1595  0CE2  0085               	movwf	5	;volatile
  1596  0CE3                     l2213:
  1597                           
  1598                           ;pseudocodigo_lab3.c: 199:     TRISB = 0;
  1599  0CE3  0186               	clrf	6	;volatile
  1600  0CE4                     l2215:
  1601                           
  1602                           ;pseudocodigo_lab3.c: 200:     TRISCbits.TRISC6 = 0;
  1603  0CE4  1307               	bcf	7,6	;volatile
  1604  0CE5                     l2217:
  1605                           
  1606                           ;pseudocodigo_lab3.c: 201:     TRISCbits.TRISC7 = 1;
  1607  0CE5  1787               	bsf	7,7	;volatile
  1608  0CE6                     l2219:
  1609                           
  1610                           ;pseudocodigo_lab3.c: 202:     TRISD = 0;
  1611  0CE6  0188               	clrf	8	;volatile
  1612  0CE7                     l2221:
  1613                           
  1614                           ;pseudocodigo_lab3.c: 203:     TRISE = 0;
  1615  0CE7  0189               	clrf	9	;volatile
  1616  0CE8                     l2223:
  1617                           
  1618                           ;pseudocodigo_lab3.c: 204:     PORTA = 0;
  1619  0CE8  1283               	bcf	3,5	;RP0=0, select bank0
  1620  0CE9  1303               	bcf	3,6	;RP1=0, select bank0
  1621  0CEA  0185               	clrf	5	;volatile
  1622  0CEB                     l2225:
  1623                           
  1624                           ;pseudocodigo_lab3.c: 205:     PORTB = 0;
  1625  0CEB  0186               	clrf	6	;volatile
  1626  0CEC                     l2227:
  1627                           
  1628                           ;pseudocodigo_lab3.c: 206:     PORTC = 0;
  1629  0CEC  0187               	clrf	7	;volatile
  1630  0CED                     l2229:
  1631                           
  1632                           ;pseudocodigo_lab3.c: 207:     PORTD = 0;
  1633  0CED  0188               	clrf	8	;volatile
  1634  0CEE                     l2231:
  1635                           
  1636                           ;pseudocodigo_lab3.c: 208:     PORTE = 0;
  1637  0CEE  0189               	clrf	9	;volatile
  1638  0CEF                     l99:
  1639  0CEF  0008               	return
  1640  0CF0                     __end_of_setup:
  1641                           
  1642                           	psect	text6
  1643  0E22                     __ptext6:	
  1644 ;; *************** function _initOsc *****************
  1645 ;; Defined at:
  1646 ;;		line 3 in file "Oscilador.c"
  1647 ;; Parameters:    Size  Location     Type
  1648 ;;  IRCF            1    wreg     unsigned char 
  1649 ;; Auto vars:     Size  Location     Type
  1650 ;;  IRCF            1    2[COMMON] unsigned char 
  1651 ;; Return value:  Size  Location     Type
  1652 ;;                  1    wreg      void 
  1653 ;; Registers used:
  1654 ;;		wreg, fsr0l, fsr0h, status,2, status,0
  1655 ;; Tracked objects:
  1656 ;;		On entry : 0/0
  1657 ;;		On exit  : 0/0
  1658 ;;		Unchanged: 0/0
  1659 ;; Data sizes:     COMMON   BANK0   BANK1   BANK3   BANK2
  1660 ;;      Params:         0       0       0       0       0
  1661 ;;      Locals:         1       0       0       0       0
  1662 ;;      Temps:          2       0       0       0       0
  1663 ;;      Totals:         3       0       0       0       0
  1664 ;;Total ram usage:        3 bytes
  1665 ;; Hardware stack levels used:    1
  1666 ;; This function calls:
  1667 ;;		Nothing
  1668 ;; This function is called by:
  1669 ;;		_setup
  1670 ;; This function uses a non-reentrant model
  1671 ;;
  1672                           
  1673                           
  1674                           ;psect for function _initOsc
  1675  0E22                     _initOsc:
  1676                           
  1677                           ;incstack = 0
  1678                           ; Regs used in _initOsc: [wreg-fsr0h+status,2+status,0]
  1679                           ;initOsc@IRCF stored from wreg
  1680  0E22  00F2               	movwf	initOsc@IRCF
  1681  0E23                     l1869:
  1682                           
  1683                           ;Oscilador.c: 5:     switch(IRCF){
  1684  0E23  2E5A               	goto	l1873
  1685  0E24                     l105:	
  1686                           ;Oscilador.c: 6:         case 0:
  1687                           
  1688                           
  1689                           ;Oscilador.c: 7:             OSCCONbits.IRCF2 = 0;
  1690  0E24  1683               	bsf	3,5	;RP0=1, select bank1
  1691  0E25  1303               	bcf	3,6	;RP1=0, select bank1
  1692  0E26  130F               	bcf	15,6	;volatile
  1693                           
  1694                           ;Oscilador.c: 8:             OSCCONbits.IRCF1 = 0;
  1695  0E27  128F               	bcf	15,5	;volatile
  1696                           
  1697                           ;Oscilador.c: 9:             OSCCONbits.IRCF0 = 0;
  1698  0E28  120F               	bcf	15,4	;volatile
  1699                           
  1700                           ;Oscilador.c: 10:             break;
  1701  0E29  2E7C               	goto	l106
  1702  0E2A                     l107:	
  1703                           ;Oscilador.c: 11:          case 1:
  1704                           
  1705                           
  1706                           ;Oscilador.c: 12:             OSCCONbits.IRCF2 = 0;
  1707  0E2A  1683               	bsf	3,5	;RP0=1, select bank1
  1708  0E2B  1303               	bcf	3,6	;RP1=0, select bank1
  1709  0E2C  130F               	bcf	15,6	;volatile
  1710                           
  1711                           ;Oscilador.c: 13:             OSCCONbits.IRCF1 = 0;
  1712  0E2D  128F               	bcf	15,5	;volatile
  1713                           
  1714                           ;Oscilador.c: 14:             OSCCONbits.IRCF0 = 1;
  1715  0E2E  160F               	bsf	15,4	;volatile
  1716                           
  1717                           ;Oscilador.c: 15:             break;
  1718  0E2F  2E7C               	goto	l106
  1719  0E30                     l108:	
  1720                           ;Oscilador.c: 16:         case 2:
  1721                           
  1722                           
  1723                           ;Oscilador.c: 17:             OSCCONbits.IRCF2 = 0;
  1724  0E30  1683               	bsf	3,5	;RP0=1, select bank1
  1725  0E31  1303               	bcf	3,6	;RP1=0, select bank1
  1726  0E32  130F               	bcf	15,6	;volatile
  1727                           
  1728                           ;Oscilador.c: 18:             OSCCONbits.IRCF1 = 1;
  1729  0E33  168F               	bsf	15,5	;volatile
  1730                           
  1731                           ;Oscilador.c: 19:             OSCCONbits.IRCF0 = 0;
  1732  0E34  120F               	bcf	15,4	;volatile
  1733                           
  1734                           ;Oscilador.c: 20:             break;
  1735  0E35  2E7C               	goto	l106
  1736  0E36                     l109:	
  1737                           ;Oscilador.c: 21:         case 3:
  1738                           
  1739                           
  1740                           ;Oscilador.c: 22:             OSCCONbits.IRCF2 = 0;
  1741  0E36  1683               	bsf	3,5	;RP0=1, select bank1
  1742  0E37  1303               	bcf	3,6	;RP1=0, select bank1
  1743  0E38  130F               	bcf	15,6	;volatile
  1744                           
  1745                           ;Oscilador.c: 23:             OSCCONbits.IRCF1 = 1;
  1746  0E39  168F               	bsf	15,5	;volatile
  1747                           
  1748                           ;Oscilador.c: 24:             OSCCONbits.IRCF0 = 1;
  1749  0E3A  160F               	bsf	15,4	;volatile
  1750                           
  1751                           ;Oscilador.c: 25:             break;
  1752  0E3B  2E7C               	goto	l106
  1753  0E3C                     l110:	
  1754                           ;Oscilador.c: 26:         case 4:
  1755                           
  1756                           
  1757                           ;Oscilador.c: 27:             OSCCONbits.IRCF2 = 1;
  1758  0E3C  1683               	bsf	3,5	;RP0=1, select bank1
  1759  0E3D  1303               	bcf	3,6	;RP1=0, select bank1
  1760  0E3E  170F               	bsf	15,6	;volatile
  1761                           
  1762                           ;Oscilador.c: 28:             OSCCONbits.IRCF1 = 0;
  1763  0E3F  128F               	bcf	15,5	;volatile
  1764                           
  1765                           ;Oscilador.c: 29:             OSCCONbits.IRCF0 = 0;
  1766  0E40  120F               	bcf	15,4	;volatile
  1767                           
  1768                           ;Oscilador.c: 30:             break;
  1769  0E41  2E7C               	goto	l106
  1770  0E42                     l111:	
  1771                           ;Oscilador.c: 31:         case 5:
  1772                           
  1773                           
  1774                           ;Oscilador.c: 32:             OSCCONbits.IRCF2 = 1;
  1775  0E42  1683               	bsf	3,5	;RP0=1, select bank1
  1776  0E43  1303               	bcf	3,6	;RP1=0, select bank1
  1777  0E44  170F               	bsf	15,6	;volatile
  1778                           
  1779                           ;Oscilador.c: 33:             OSCCONbits.IRCF1 = 0;
  1780  0E45  128F               	bcf	15,5	;volatile
  1781                           
  1782                           ;Oscilador.c: 34:             OSCCONbits.IRCF0 = 1;
  1783  0E46  160F               	bsf	15,4	;volatile
  1784                           
  1785                           ;Oscilador.c: 35:             break;
  1786  0E47  2E7C               	goto	l106
  1787  0E48                     l112:	
  1788                           ;Oscilador.c: 36:         case 6:
  1789                           
  1790                           
  1791                           ;Oscilador.c: 37:             OSCCONbits.IRCF2 = 1;
  1792  0E48  1683               	bsf	3,5	;RP0=1, select bank1
  1793  0E49  1303               	bcf	3,6	;RP1=0, select bank1
  1794  0E4A  170F               	bsf	15,6	;volatile
  1795                           
  1796                           ;Oscilador.c: 38:             OSCCONbits.IRCF1 = 1;
  1797  0E4B  168F               	bsf	15,5	;volatile
  1798                           
  1799                           ;Oscilador.c: 39:             OSCCONbits.IRCF0 = 0;
  1800  0E4C  120F               	bcf	15,4	;volatile
  1801                           
  1802                           ;Oscilador.c: 40:             break;
  1803  0E4D  2E7C               	goto	l106
  1804  0E4E                     l113:	
  1805                           ;Oscilador.c: 41:         case 7:
  1806                           
  1807                           
  1808                           ;Oscilador.c: 42:             OSCCONbits.IRCF2 = 1;
  1809  0E4E  1683               	bsf	3,5	;RP0=1, select bank1
  1810  0E4F  1303               	bcf	3,6	;RP1=0, select bank1
  1811  0E50  170F               	bsf	15,6	;volatile
  1812                           
  1813                           ;Oscilador.c: 43:             OSCCONbits.IRCF1 = 1;
  1814  0E51  168F               	bsf	15,5	;volatile
  1815                           
  1816                           ;Oscilador.c: 44:             OSCCONbits.IRCF0 = 1;
  1817  0E52  160F               	bsf	15,4	;volatile
  1818                           
  1819                           ;Oscilador.c: 45:             break;
  1820  0E53  2E7C               	goto	l106
  1821  0E54                     l114:	
  1822                           ;Oscilador.c: 46:         default:
  1823                           
  1824                           
  1825                           ;Oscilador.c: 47:             OSCCONbits.IRCF2 = 1;
  1826  0E54  1683               	bsf	3,5	;RP0=1, select bank1
  1827  0E55  1303               	bcf	3,6	;RP1=0, select bank1
  1828  0E56  170F               	bsf	15,6	;volatile
  1829                           
  1830                           ;Oscilador.c: 48:             OSCCONbits.IRCF1 = 1;
  1831  0E57  168F               	bsf	15,5	;volatile
  1832                           
  1833                           ;Oscilador.c: 49:             OSCCONbits.IRCF0 = 0;
  1834  0E58  120F               	bcf	15,4	;volatile
  1835                           
  1836                           ;Oscilador.c: 50:             break;
  1837  0E59  2E7C               	goto	l106
  1838  0E5A                     l1873:
  1839  0E5A  0872               	movf	initOsc@IRCF,w
  1840  0E5B  00F0               	movwf	??_initOsc
  1841  0E5C  01F1               	clrf	??_initOsc+1
  1842                           
  1843                           ; Switch on 2 bytes has been partitioned into a top level switch of size 1, and 1 sub-sw
      +                          itches
  1844                           ; Switch size 1, requested type "simple"
  1845                           ; Number of cases is 1, Range of values is 0 to 0
  1846                           ; switch strategies available:
  1847                           ; Name         Instructions Cycles
  1848                           ; simple_byte            4     3 (average)
  1849                           ; direct_byte           11     8 (fixed)
  1850                           ; jumptable            260     6 (fixed)
  1851                           ;	Chosen strategy is simple_byte
  1852  0E5D  0871               	movf	??_initOsc+1,w
  1853  0E5E  3A00               	xorlw	0	; case 0
  1854  0E5F  1903               	skipnz
  1855  0E60  2E62               	goto	l2395
  1856  0E61  2E54               	goto	l114
  1857  0E62                     l2395:
  1858                           
  1859                           ; Switch size 1, requested type "simple"
  1860                           ; Number of cases is 8, Range of values is 0 to 7
  1861                           ; switch strategies available:
  1862                           ; Name         Instructions Cycles
  1863                           ; simple_byte           25    13 (average)
  1864                           ; direct_byte           32     8 (fixed)
  1865                           ; jumptable            260     6 (fixed)
  1866                           ;	Chosen strategy is simple_byte
  1867  0E62  0870               	movf	??_initOsc,w
  1868  0E63  3A00               	xorlw	0	; case 0
  1869  0E64  1903               	skipnz
  1870  0E65  2E24               	goto	l105
  1871  0E66  3A01               	xorlw	1	; case 1
  1872  0E67  1903               	skipnz
  1873  0E68  2E2A               	goto	l107
  1874  0E69  3A03               	xorlw	3	; case 2
  1875  0E6A  1903               	skipnz
  1876  0E6B  2E30               	goto	l108
  1877  0E6C  3A01               	xorlw	1	; case 3
  1878  0E6D  1903               	skipnz
  1879  0E6E  2E36               	goto	l109
  1880  0E6F  3A07               	xorlw	7	; case 4
  1881  0E70  1903               	skipnz
  1882  0E71  2E3C               	goto	l110
  1883  0E72  3A01               	xorlw	1	; case 5
  1884  0E73  1903               	skipnz
  1885  0E74  2E42               	goto	l111
  1886  0E75  3A03               	xorlw	3	; case 6
  1887  0E76  1903               	skipnz
  1888  0E77  2E48               	goto	l112
  1889  0E78  3A01               	xorlw	1	; case 7
  1890  0E79  1903               	skipnz
  1891  0E7A  2E4E               	goto	l113
  1892  0E7B  2E54               	goto	l114
  1893  0E7C                     l106:
  1894                           
  1895                           ;Oscilador.c: 52:     OSCCONbits.SCS = 1;
  1896  0E7C  140F               	bsf	15,0	;volatile
  1897  0E7D                     l115:
  1898  0E7D  0008               	return
  1899  0E7E                     __end_of_initOsc:
  1900                           
  1901                           	psect	text7
  1902  0C8F                     __ptext7:	
  1903 ;; *************** function _float_to_string *****************
  1904 ;; Defined at:
  1905 ;;		line 179 in file "pseudocodigo_lab3.c"
  1906 ;; Parameters:    Size  Location     Type
  1907 ;;		None
  1908 ;; Auto vars:     Size  Location     Type
  1909 ;;		None
  1910 ;; Return value:  Size  Location     Type
  1911 ;;                  1    wreg      void 
  1912 ;; Registers used:
  1913 ;;		wreg, fsr0l, fsr0h, status,2, status,0, btemp+1, pclath, cstack
  1914 ;; Tracked objects:
  1915 ;;		On entry : 0/0
  1916 ;;		On exit  : 0/0
  1917 ;;		Unchanged: 0/0
  1918 ;; Data sizes:     COMMON   BANK0   BANK1   BANK3   BANK2
  1919 ;;      Params:         0       0       0       0       0
  1920 ;;      Locals:         0       0       0       0       0
  1921 ;;      Temps:          0       1       0       0       0
  1922 ;;      Totals:         0       1       0       0       0
  1923 ;;Total ram usage:        1 bytes
  1924 ;; Hardware stack levels used:    1
  1925 ;; Hardware stack levels required when called:    2
  1926 ;; This function calls:
  1927 ;;		_sprintf
  1928 ;; This function is called by:
  1929 ;;		_main
  1930 ;; This function uses a non-reentrant model
  1931 ;;
  1932                           
  1933                           
  1934                           ;psect for function _float_to_string
  1935  0C8F                     _float_to_string:
  1936  0C8F                     l2273:	
  1937                           ;incstack = 0
  1938                           ; Regs used in _float_to_string: [wreg-fsr0h+status,2+status,0+btemp+1+pclath+cstack]
  1939                           
  1940                           
  1941                           ;pseudocodigo_lab3.c: 180:     sprintf(data2, "%.3i", S1_val);
  1942  0C8F  301A               	movlw	(low ((STR_2-__stringbase)| (0+32768)))& (0+255)
  1943  0C90  1283               	bcf	3,5	;RP0=0, select bank0
  1944  0C91  1303               	bcf	3,6	;RP1=0, select bank0
  1945  0C92  00AF               	movwf	??_float_to_string
  1946  0C93  082F               	movf	??_float_to_string,w
  1947  0C94  00A0               	movwf	sprintf@f
  1948  0C95  0861               	movf	_S1_val+3,w
  1949  0C96  00A4               	movwf	?_sprintf+4
  1950  0C97  0860               	movf	_S1_val+2,w
  1951  0C98  00A3               	movwf	?_sprintf+3
  1952  0C99  085F               	movf	_S1_val+1,w
  1953  0C9A  00A2               	movwf	?_sprintf+2
  1954  0C9B  085E               	movf	_S1_val,w
  1955  0C9C  00A1               	movwf	?_sprintf+1
  1956  0C9D  30A0               	movlw	(low (_data2| 0))& (0+255)
  1957  0C9E  120A  118A  214A  120A  158A  	fcall	_sprintf
  1958  0CA3                     l96:
  1959  0CA3  0008               	return
  1960  0CA4                     __end_of_float_to_string:
  1961                           
  1962                           	psect	text8
  1963  014A                     __ptext8:	
  1964 ;; *************** function _sprintf *****************
  1965 ;; Defined at:
  1966 ;;		line 505 in file "C:\Program Files\Microchip\xc8\v2.31\pic\sources\c90\common\doprnt.c"
  1967 ;; Parameters:    Size  Location     Type
  1968 ;;  sp              1    wreg     PTR unsigned char 
  1969 ;;		 -> data2(8), 
  1970 ;;  f               1    0[BANK0 ] PTR const unsigned char 
  1971 ;;		 -> STR_2(5), 
  1972 ;; Auto vars:     Size  Location     Type
  1973 ;;  sp              1   10[BANK0 ] PTR unsigned char 
  1974 ;;		 -> data2(8), 
  1975 ;;  tmpval          4    0        struct .
  1976 ;;  val             2   11[BANK0 ] unsigned int 
  1977 ;;  cp              2    0        PTR const unsigned char 
  1978 ;;  len             2    0        unsigned int 
  1979 ;;  c               1   14[BANK0 ] unsigned char 
  1980 ;;  prec            1   13[BANK0 ] char 
  1981 ;;  flag            1    9[BANK0 ] unsigned char 
  1982 ;;  ap              1    8[BANK0 ] PTR void [1]
  1983 ;;		 -> ?_sprintf(2), 
  1984 ;; Return value:  Size  Location     Type
  1985 ;;                  2    0[BANK0 ] int 
  1986 ;; Registers used:
  1987 ;;		wreg, fsr0l, fsr0h, status,2, status,0, btemp+1, pclath, cstack
  1988 ;; Tracked objects:
  1989 ;;		On entry : 0/0
  1990 ;;		On exit  : 0/0
  1991 ;;		Unchanged: 0/0
  1992 ;; Data sizes:     COMMON   BANK0   BANK1   BANK3   BANK2
  1993 ;;      Params:         0       5       0       0       0
  1994 ;;      Locals:         0       7       0       0       0
  1995 ;;      Temps:          0       3       0       0       0
  1996 ;;      Totals:         0      15       0       0       0
  1997 ;;Total ram usage:       15 bytes
  1998 ;; Hardware stack levels used:    1
  1999 ;; Hardware stack levels required when called:    1
  2000 ;; This function calls:
  2001 ;;		___bmul
  2002 ;;		___lwdiv
  2003 ;;		___lwmod
  2004 ;;		_isdigit
  2005 ;; This function is called by:
  2006 ;;		_float_to_string
  2007 ;; This function uses a non-reentrant model
  2008 ;;
  2009                           
  2010                           
  2011                           ;psect for function _sprintf
  2012  014A                     _sprintf:
  2013                           
  2014                           ;incstack = 0
  2015                           ; Regs used in _sprintf: [wreg-fsr0h+status,2+status,0+btemp+1+pclath+cstack]
  2016                           ;sprintf@sp stored from wreg
  2017  014A  1283               	bcf	3,5	;RP0=0, select bank0
  2018  014B  1303               	bcf	3,6	;RP1=0, select bank0
  2019  014C  00AA               	movwf	sprintf@sp
  2020  014D                     l1779:
  2021                           
  2022                           ;C:\Program Files\Microchip\xc8\v2.31\pic\sources\c90\common\doprnt.c: 505: sprintf(char
      +                           * sp, const char * f, ...);C:\Program Files\Microchip\xc8\v2.31\pic\sources\c90\common\
      +                          doprnt.c: 506: {;C:\Program Files\Microchip\xc8\v2.31\pic\sources\c90\common\doprnt.c: 5
      +                          07:  va_list ap;;C:\Program Files\Microchip\xc8\v2.31\pic\sources\c90\common\doprnt.c: 5
      +                          12:  char c;;C:\Program Files\Microchip\xc8\v2.31\pic\sources\c90\common\doprnt.c: 521: 
      +                           signed char prec;;C:\Program Files\Microchip\xc8\v2.31\pic\sources\c90\common\doprnt.c:
      +                           525:  unsigned char flag;
  2023  014D  3021               	movlw	(low ((?_sprintf| 0+1)))& (0+255)
  2024  014E  00A5               	movwf	??_sprintf
  2025  014F  0825               	movf	??_sprintf,w
  2026  0150  00A8               	movwf	sprintf@ap
  2027                           
  2028                           ;C:\Program Files\Microchip\xc8\v2.31\pic\sources\c90\common\doprnt.c: 553:  while((c = 
      +                          *f++)) {
  2029  0151  2A96               	goto	l1857
  2030  0152                     l1781:
  2031                           
  2032                           ;C:\Program Files\Microchip\xc8\v2.31\pic\sources\c90\common\doprnt.c: 555:   if(c != '%
      +                          ')
  2033  0152  3025               	movlw	37
  2034  0153  062E               	xorwf	sprintf@c,w
  2035  0154  1903               	btfsc	3,2
  2036  0155  2957               	goto	u1471
  2037  0156  2958               	goto	u1470
  2038  0157                     u1471:
  2039  0157  2964               	goto	l1787
  2040  0158                     u1470:
  2041  0158                     l1783:
  2042                           
  2043                           ;C:\Program Files\Microchip\xc8\v2.31\pic\sources\c90\common\doprnt.c: 557:   {;C:\Progr
      +                          am Files\Microchip\xc8\v2.31\pic\sources\c90\common\doprnt.c: 558:    ((*sp++ = (c)));
  2044  0158  082E               	movf	sprintf@c,w
  2045  0159  00A5               	movwf	??_sprintf
  2046  015A  082A               	movf	sprintf@sp,w
  2047  015B  0084               	movwf	4
  2048  015C  0825               	movf	??_sprintf,w
  2049  015D  1383               	bcf	3,7	;select IRP bank0
  2050  015E  0080               	movwf	0
  2051  015F                     l1785:
  2052  015F  3001               	movlw	1
  2053  0160  00A5               	movwf	??_sprintf
  2054  0161  0825               	movf	??_sprintf,w
  2055  0162  07AA               	addwf	sprintf@sp,f
  2056                           
  2057                           ;C:\Program Files\Microchip\xc8\v2.31\pic\sources\c90\common\doprnt.c: 559:    continue;
  2058  0163  2A96               	goto	l1857
  2059  0164                     l1787:
  2060                           
  2061                           ;C:\Program Files\Microchip\xc8\v2.31\pic\sources\c90\common\doprnt.c: 565:   flag = 0;
  2062  0164  01A9               	clrf	sprintf@flag
  2063  0165                     l1789:
  2064                           
  2065                           ;C:\Program Files\Microchip\xc8\v2.31\pic\sources\c90\common\doprnt.c: 628:   if(*f == '
      +                          .') {
  2066  0165  0820               	movf	sprintf@f,w
  2067  0166  0084               	movwf	4
  2068  0167  120A  158A  200A  120A  118A  	fcall	stringdir
  2069  016C  3A2E               	xorlw	46
  2070  016D  1D03               	skipz
  2071  016E  2970               	goto	u1481
  2072  016F  2971               	goto	u1480
  2073  0170                     u1481:
  2074  0170  29A8               	goto	l1803
  2075  0171                     u1480:
  2076  0171                     l1791:
  2077                           
  2078                           ;C:\Program Files\Microchip\xc8\v2.31\pic\sources\c90\common\doprnt.c: 630:    f++;
  2079  0171  3001               	movlw	1
  2080  0172  00A5               	movwf	??_sprintf
  2081  0173  0825               	movf	??_sprintf,w
  2082  0174  07A0               	addwf	sprintf@f,f
  2083  0175                     l1793:
  2084                           
  2085                           ;C:\Program Files\Microchip\xc8\v2.31\pic\sources\c90\common\doprnt.c: 644:    {;C:\Prog
      +                          ram Files\Microchip\xc8\v2.31\pic\sources\c90\common\doprnt.c: 645:     prec = 0;
  2086  0175  01AD               	clrf	sprintf@prec
  2087                           
  2088                           ;C:\Program Files\Microchip\xc8\v2.31\pic\sources\c90\common\doprnt.c: 646:     while(is
      +                          digit((unsigned)*f)) {
  2089  0176  2997               	goto	l1801
  2090  0177                     l1795:
  2091                           
  2092                           ;C:\Program Files\Microchip\xc8\v2.31\pic\sources\c90\common\doprnt.c: 647:      prec *=
      +                           10;
  2093  0177  1283               	bcf	3,5	;RP0=0, select bank0
  2094  0178  1303               	bcf	3,6	;RP1=0, select bank0
  2095  0179  082D               	movf	sprintf@prec,w
  2096  017A  00A5               	movwf	??_sprintf
  2097  017B  0825               	movf	??_sprintf,w
  2098  017C  00F0               	movwf	___bmul@multiplicand
  2099  017D  300A               	movlw	10
  2100  017E  120A  158A  247A  120A  118A  	fcall	___bmul
  2101  0183  1283               	bcf	3,5	;RP0=0, select bank0
  2102  0184  1303               	bcf	3,6	;RP1=0, select bank0
  2103  0185  00A6               	movwf	??_sprintf+1
  2104  0186  0826               	movf	??_sprintf+1,w
  2105  0187  00AD               	movwf	sprintf@prec
  2106  0188                     l1797:
  2107                           
  2108                           ;C:\Program Files\Microchip\xc8\v2.31\pic\sources\c90\common\doprnt.c: 648:         prec
      +                           += *f++ - '0';
  2109  0188  0820               	movf	sprintf@f,w
  2110  0189  0084               	movwf	4
  2111  018A  120A  158A  200A  120A  118A  	fcall	stringdir
  2112  018F  3ED0               	addlw	-48
  2113  0190  00A5               	movwf	??_sprintf
  2114  0191  0825               	movf	??_sprintf,w
  2115  0192  07AD               	addwf	sprintf@prec,f
  2116  0193                     l1799:
  2117  0193  3001               	movlw	1
  2118  0194  00A5               	movwf	??_sprintf
  2119  0195  0825               	movf	??_sprintf,w
  2120  0196  07A0               	addwf	sprintf@f,f
  2121  0197                     l1801:
  2122                           
  2123                           ;C:\Program Files\Microchip\xc8\v2.31\pic\sources\c90\common\doprnt.c: 646:     while(is
      +                          digit((unsigned)*f)) {
  2124  0197  0820               	movf	sprintf@f,w
  2125  0198  0084               	movwf	4
  2126  0199  120A  158A  200A  120A  118A  	fcall	stringdir
  2127  019E  120A  158A  2454  120A  118A  	fcall	_isdigit
  2128  01A3  1803               	btfsc	3,0
  2129  01A4  29A6               	goto	u1491
  2130  01A5  29A7               	goto	u1490
  2131  01A6                     u1491:
  2132  01A6  2977               	goto	l1795
  2133  01A7                     u1490:
  2134  01A7  29A9               	goto	l1807
  2135  01A8                     l1803:
  2136                           
  2137                           ;C:\Program Files\Microchip\xc8\v2.31\pic\sources\c90\common\doprnt.c: 652:    prec = 0;
  2138  01A8  01AD               	clrf	sprintf@prec
  2139  01A9                     l1807:
  2140  01A9  3001               	movlw	1
  2141  01AA  1283               	bcf	3,5	;RP0=0, select bank0
  2142  01AB  1303               	bcf	3,6	;RP1=0, select bank0
  2143  01AC  07A0               	addwf	sprintf@f,f
  2144  01AD  30FF               	movlw	-1
  2145  01AE  0720               	addwf	sprintf@f,w
  2146  01AF  0084               	movwf	4
  2147  01B0  120A  158A  200A  120A  118A  	fcall	stringdir
  2148  01B5  00AE               	movwf	sprintf@c
  2149  01B6  00A5               	movwf	??_sprintf
  2150  01B7  01A6               	clrf	??_sprintf+1
  2151                           
  2152                           ; Switch on 2 bytes has been partitioned into a top level switch of size 1, and 1 sub-sw
      +                          itches
  2153                           ; Switch size 1, requested type "simple"
  2154                           ; Number of cases is 1, Range of values is 0 to 0
  2155                           ; switch strategies available:
  2156                           ; Name         Instructions Cycles
  2157                           ; simple_byte            4     3 (average)
  2158                           ; direct_byte           11     8 (fixed)
  2159                           ; jumptable            260     6 (fixed)
  2160                           ;	Chosen strategy is simple_byte
  2161  01B8  0826               	movf	??_sprintf+1,w
  2162  01B9  3A00               	xorlw	0	; case 0
  2163  01BA  1903               	skipnz
  2164  01BB  29BD               	goto	l2397
  2165  01BC  2A96               	goto	l1857
  2166  01BD                     l2397:
  2167                           
  2168                           ; Switch size 1, requested type "simple"
  2169                           ; Number of cases is 3, Range of values is 0 to 105
  2170                           ; switch strategies available:
  2171                           ; Name         Instructions Cycles
  2172                           ; simple_byte           10     6 (average)
  2173                           ; jumptable            260     6 (fixed)
  2174                           ;	Chosen strategy is simple_byte
  2175  01BD  0825               	movf	??_sprintf,w
  2176  01BE  3A00               	xorlw	0	; case 0
  2177  01BF  1903               	skipnz
  2178  01C0  2AA8               	goto	l1859
  2179  01C1  3A64               	xorlw	100	; case 100
  2180  01C2  1903               	skipnz
  2181  01C3  29C8               	goto	l1809
  2182  01C4  3A0D               	xorlw	13	; case 105
  2183  01C5  1903               	skipnz
  2184  01C6  29C8               	goto	l1809
  2185  01C7  2A96               	goto	l1857
  2186  01C8                     l1809:
  2187                           
  2188                           ;C:\Program Files\Microchip\xc8\v2.31\pic\sources\c90\common\doprnt.c: 1279:   {;C:\Prog
      +                          ram Files\Microchip\xc8\v2.31\pic\sources\c90\common\doprnt.c: 1285:     val = (unsigned
      +                           int)(*(int *)__va_arg((*(int **)ap), (int)0));
  2189  01C8  0828               	movf	sprintf@ap,w
  2190  01C9  0084               	movwf	4
  2191  01CA  1383               	bcf	3,7	;select IRP bank0
  2192  01CB  0800               	movf	0,w
  2193  01CC  00AB               	movwf	sprintf@val
  2194  01CD  0A84               	incf	4,f
  2195  01CE  0800               	movf	0,w
  2196  01CF  00AC               	movwf	sprintf@val+1
  2197  01D0                     l1811:
  2198  01D0  3002               	movlw	2
  2199  01D1  00A5               	movwf	??_sprintf
  2200  01D2  0825               	movf	??_sprintf,w
  2201  01D3  07A8               	addwf	sprintf@ap,f
  2202  01D4                     l1813:
  2203                           
  2204                           ;C:\Program Files\Microchip\xc8\v2.31\pic\sources\c90\common\doprnt.c: 1287:    if((int)
      +                          val < 0) {
  2205  01D4  1FAC               	btfss	sprintf@val+1,7
  2206  01D5  29D7               	goto	u1501
  2207  01D6  29D8               	goto	u1500
  2208  01D7                     u1501:
  2209  01D7  29E1               	goto	l1819
  2210  01D8                     u1500:
  2211  01D8                     l1815:
  2212                           
  2213                           ;C:\Program Files\Microchip\xc8\v2.31\pic\sources\c90\common\doprnt.c: 1288:     flag |=
      +                           0x03;
  2214  01D8  3003               	movlw	3
  2215  01D9  00A5               	movwf	??_sprintf
  2216  01DA  0825               	movf	??_sprintf,w
  2217  01DB  04A9               	iorwf	sprintf@flag,f
  2218  01DC                     l1817:
  2219                           
  2220                           ;C:\Program Files\Microchip\xc8\v2.31\pic\sources\c90\common\doprnt.c: 1289:     val = -
      +                          val;
  2221  01DC  09AB               	comf	sprintf@val,f
  2222  01DD  09AC               	comf	sprintf@val+1,f
  2223  01DE  0AAB               	incf	sprintf@val,f
  2224  01DF  1903               	skipnz
  2225  01E0  0AAC               	incf	sprintf@val+1,f
  2226  01E1                     l1819:
  2227                           
  2228                           ;C:\Program Files\Microchip\xc8\v2.31\pic\sources\c90\common\doprnt.c: 1292:   };C:\Prog
      +                          ram Files\Microchip\xc8\v2.31\pic\sources\c90\common\doprnt.c: 1316:   if(prec == 0 && v
      +                          al == 0)
  2229  01E1  082D               	movf	sprintf@prec,w
  2230  01E2  1D03               	btfss	3,2
  2231  01E3  29E5               	goto	u1511
  2232  01E4  29E6               	goto	u1510
  2233  01E5                     u1511:
  2234  01E5  29F0               	goto	l1825
  2235  01E6                     u1510:
  2236  01E6                     l1821:
  2237  01E6  082B               	movf	sprintf@val,w
  2238  01E7  042C               	iorwf	sprintf@val+1,w
  2239  01E8  1D03               	btfss	3,2
  2240  01E9  29EB               	goto	u1521
  2241  01EA  29EC               	goto	u1520
  2242  01EB                     u1521:
  2243  01EB  29F0               	goto	l1825
  2244  01EC                     u1520:
  2245  01EC                     l1823:
  2246                           
  2247                           ;C:\Program Files\Microchip\xc8\v2.31\pic\sources\c90\common\doprnt.c: 1317:    prec++;
  2248  01EC  3001               	movlw	1
  2249  01ED  00A5               	movwf	??_sprintf
  2250  01EE  0825               	movf	??_sprintf,w
  2251  01EF  07AD               	addwf	sprintf@prec,f
  2252  01F0                     l1825:
  2253                           
  2254                           ;C:\Program Files\Microchip\xc8\v2.31\pic\sources\c90\common\doprnt.c: 1331:    for(c = 
      +                          1 ; c != sizeof dpowers/sizeof dpowers[0] ; c++)
  2255  01F0  01AE               	clrf	sprintf@c
  2256  01F1  0AAE               	incf	sprintf@c,f
  2257  01F2                     l1829:
  2258                           
  2259                           ;C:\Program Files\Microchip\xc8\v2.31\pic\sources\c90\common\doprnt.c: 1332:     if(val 
      +                          < dpowers[c])
  2260  01F2  082E               	movf	sprintf@c,w
  2261  01F3  00A5               	movwf	??_sprintf
  2262  01F4  0725               	addwf	??_sprintf,w
  2263  01F5  3E01               	addlw	low ((_dpowers-__stringbase)| (0+32768))
  2264  01F6  0084               	movwf	4
  2265  01F7  120A  158A  200A  120A  118A  	fcall	stringdir
  2266  01FC  00A6               	movwf	??_sprintf+1
  2267  01FD  120A  158A  200A  120A  118A  	fcall	stringdir
  2268  0202  00A7               	movwf	??_sprintf+2
  2269  0203  0827               	movf	??_sprintf+2,w
  2270  0204  022C               	subwf	sprintf@val+1,w
  2271  0205  1D03               	skipz
  2272  0206  2A09               	goto	u1535
  2273  0207  0826               	movf	??_sprintf+1,w
  2274  0208  022B               	subwf	sprintf@val,w
  2275  0209                     u1535:
  2276  0209  1803               	skipnc
  2277  020A  2A0C               	goto	u1531
  2278  020B  2A0D               	goto	u1530
  2279  020C                     u1531:
  2280  020C  2A0E               	goto	l1833
  2281  020D                     u1530:
  2282  020D  2A18               	goto	l1835
  2283  020E                     l1833:
  2284  020E  3001               	movlw	1
  2285  020F  00A5               	movwf	??_sprintf
  2286  0210  0825               	movf	??_sprintf,w
  2287  0211  07AE               	addwf	sprintf@c,f
  2288  0212  3005               	movlw	5
  2289  0213  062E               	xorwf	sprintf@c,w
  2290  0214  1D03               	btfss	3,2
  2291  0215  2A17               	goto	u1541
  2292  0216  2A18               	goto	u1540
  2293  0217                     u1541:
  2294  0217  29F2               	goto	l1829
  2295  0218                     u1540:
  2296  0218                     l1835:
  2297                           
  2298                           ;C:\Program Files\Microchip\xc8\v2.31\pic\sources\c90\common\doprnt.c: 1365:   if(c < pr
      +                          ec)
  2299  0218  082D               	movf	sprintf@prec,w
  2300  0219  00A5               	movwf	??_sprintf
  2301  021A  01A6               	clrf	??_sprintf+1
  2302  021B  1BA5               	btfsc	??_sprintf,7
  2303  021C  03A6               	decf	??_sprintf+1,f
  2304  021D  0826               	movf	??_sprintf+1,w
  2305  021E  3A80               	xorlw	128
  2306  021F  3C80               	sublw	128
  2307  0220  1D03               	skipz
  2308  0221  2A24               	goto	u1555
  2309  0222  0825               	movf	??_sprintf,w
  2310  0223  022E               	subwf	sprintf@c,w
  2311  0224                     u1555:
  2312  0224  1803               	skipnc
  2313  0225  2A27               	goto	u1551
  2314  0226  2A28               	goto	u1550
  2315  0227                     u1551:
  2316  0227  2A29               	goto	l1839
  2317  0228                     u1550:
  2318  0228                     l1837:
  2319  0228  2A43               	goto	l1843
  2320  0229                     l1839:
  2321  0229  1283               	bcf	3,5	;RP0=0, select bank0
  2322  022A  1303               	bcf	3,6	;RP1=0, select bank0
  2323  022B  082D               	movf	sprintf@prec,w
  2324  022C  00A5               	movwf	??_sprintf
  2325  022D  01A6               	clrf	??_sprintf+1
  2326  022E  1BA5               	btfsc	??_sprintf,7
  2327  022F  03A6               	decf	??_sprintf+1,f
  2328  0230  0826               	movf	??_sprintf+1,w
  2329  0231  3A80               	xorlw	128
  2330  0232  00A7               	movwf	??_sprintf+2
  2331  0233  3080               	movlw	128
  2332  0234  0227               	subwf	??_sprintf+2,w
  2333  0235  1D03               	skipz
  2334  0236  2A39               	goto	u1565
  2335  0237  082E               	movf	sprintf@c,w
  2336  0238  0225               	subwf	??_sprintf,w
  2337  0239                     u1565:
  2338  0239  1803               	skipnc
  2339  023A  2A3C               	goto	u1561
  2340  023B  2A3D               	goto	u1560
  2341  023C                     u1561:
  2342  023C  2A43               	goto	l1843
  2343  023D                     u1560:
  2344  023D                     l1841:
  2345                           
  2346                           ;C:\Program Files\Microchip\xc8\v2.31\pic\sources\c90\common\doprnt.c: 1368:    prec = c
      +                          ;
  2347  023D  1283               	bcf	3,5	;RP0=0, select bank0
  2348  023E  1303               	bcf	3,6	;RP1=0, select bank0
  2349  023F  082E               	movf	sprintf@c,w
  2350  0240  00A5               	movwf	??_sprintf
  2351  0241  0825               	movf	??_sprintf,w
  2352  0242  00AD               	movwf	sprintf@prec
  2353  0243                     l1843:
  2354                           
  2355                           ;C:\Program Files\Microchip\xc8\v2.31\pic\sources\c90\common\doprnt.c: 1448:   {;C:\Prog
      +                          ram Files\Microchip\xc8\v2.31\pic\sources\c90\common\doprnt.c: 1464:    if(flag & 0x03)
  2356  0243  1283               	bcf	3,5	;RP0=0, select bank0
  2357  0244  1303               	bcf	3,6	;RP1=0, select bank0
  2358  0245  0829               	movf	sprintf@flag,w
  2359  0246  3903               	andlw	3
  2360  0247  1903               	btfsc	3,2
  2361  0248  2A4A               	goto	u1571
  2362  0249  2A4B               	goto	u1570
  2363  024A                     u1571:
  2364  024A  2A8D               	goto	l1855
  2365  024B                     u1570:
  2366  024B                     l1845:
  2367                           
  2368                           ;C:\Program Files\Microchip\xc8\v2.31\pic\sources\c90\common\doprnt.c: 1465:     ((*sp++
      +                           = ('-')));
  2369  024B  302D               	movlw	45
  2370  024C  00A5               	movwf	??_sprintf
  2371  024D  082A               	movf	sprintf@sp,w
  2372  024E  0084               	movwf	4
  2373  024F  0825               	movf	??_sprintf,w
  2374  0250  1383               	bcf	3,7	;select IRP bank0
  2375  0251  0080               	movwf	0
  2376  0252                     l1847:
  2377  0252  3001               	movlw	1
  2378  0253  00A5               	movwf	??_sprintf
  2379  0254  0825               	movf	??_sprintf,w
  2380  0255  07AA               	addwf	sprintf@sp,f
  2381  0256  2A8D               	goto	l1855
  2382  0257                     l1849:
  2383                           
  2384                           ;C:\Program Files\Microchip\xc8\v2.31\pic\sources\c90\common\doprnt.c: 1504:    {;C:\Pro
      +                          gram Files\Microchip\xc8\v2.31\pic\sources\c90\common\doprnt.c: 1515:     c = (val / dpo
      +                          wers[(unsigned char)prec]) % 10 + '0';
  2385  0257  300A               	movlw	10
  2386  0258  00F8               	movwf	___lwmod@divisor
  2387  0259  3000               	movlw	0
  2388  025A  00F9               	movwf	___lwmod@divisor+1
  2389  025B  082D               	movf	sprintf@prec,w
  2390  025C  00A5               	movwf	??_sprintf
  2391  025D  0725               	addwf	??_sprintf,w
  2392  025E  3E01               	addlw	low ((_dpowers-__stringbase)| (0+32768))
  2393  025F  0084               	movwf	4
  2394  0260  120A  158A  200A  120A  118A  	fcall	stringdir
  2395  0265  00F0               	movwf	___lwdiv@divisor
  2396  0266  120A  158A  200A  120A  118A  	fcall	stringdir
  2397  026B  00F1               	movwf	___lwdiv@divisor+1
  2398  026C  082C               	movf	sprintf@val+1,w
  2399  026D  00F3               	movwf	___lwdiv@dividend+1
  2400  026E  082B               	movf	sprintf@val,w
  2401  026F  00F2               	movwf	___lwdiv@dividend
  2402  0270  120A  158A  2593  120A  118A  	fcall	___lwdiv
  2403  0275  0871               	movf	?___lwdiv+1,w
  2404  0276  00FB               	movwf	___lwmod@dividend+1
  2405  0277  0870               	movf	?___lwdiv,w
  2406  0278  00FA               	movwf	___lwmod@dividend
  2407  0279  120A  158A  2517  120A  118A  	fcall	___lwmod
  2408  027E  0878               	movf	?___lwmod,w
  2409  027F  3E30               	addlw	48
  2410  0280  1283               	bcf	3,5	;RP0=0, select bank0
  2411  0281  1303               	bcf	3,6	;RP1=0, select bank0
  2412  0282  00A6               	movwf	??_sprintf+1
  2413  0283  0826               	movf	??_sprintf+1,w
  2414  0284  00AE               	movwf	sprintf@c
  2415  0285                     l1851:
  2416                           
  2417                           ;C:\Program Files\Microchip\xc8\v2.31\pic\sources\c90\common\doprnt.c: 1549:    };C:\Pro
      +                          gram Files\Microchip\xc8\v2.31\pic\sources\c90\common\doprnt.c: 1550:    ((*sp++ = (c)))
      +                          ;
  2418  0285  082E               	movf	sprintf@c,w
  2419  0286  00A5               	movwf	??_sprintf
  2420  0287  082A               	movf	sprintf@sp,w
  2421  0288  0084               	movwf	4
  2422  0289  0825               	movf	??_sprintf,w
  2423  028A  1383               	bcf	3,7	;select IRP bank0
  2424  028B  0080               	movwf	0
  2425  028C  2A52               	goto	l1847
  2426  028D                     l1855:
  2427                           
  2428                           ;C:\Program Files\Microchip\xc8\v2.31\pic\sources\c90\common\doprnt.c: 1500:   while(pre
      +                          c--) {
  2429  028D  30FF               	movlw	255
  2430  028E  00A5               	movwf	??_sprintf
  2431  028F  0825               	movf	??_sprintf,w
  2432  0290  07AD               	addwf	sprintf@prec,f
  2433  0291  0A2D               	incf	sprintf@prec,w
  2434  0292  1D03               	btfss	3,2
  2435  0293  2A95               	goto	u1581
  2436  0294  2A96               	goto	u1580
  2437  0295                     u1581:
  2438  0295  2A57               	goto	l1849
  2439  0296                     u1580:
  2440  0296                     l1857:
  2441                           
  2442                           ;C:\Program Files\Microchip\xc8\v2.31\pic\sources\c90\common\doprnt.c: 553:  while((c = 
      +                          *f++)) {
  2443  0296  3001               	movlw	1
  2444  0297  07A0               	addwf	sprintf@f,f
  2445  0298  30FF               	movlw	-1
  2446  0299  0720               	addwf	sprintf@f,w
  2447  029A  0084               	movwf	4
  2448  029B  120A  158A  200A  120A  118A  	fcall	stringdir
  2449  02A0  00A5               	movwf	??_sprintf
  2450  02A1  0825               	movf	??_sprintf,w
  2451  02A2  00AE               	movwf	sprintf@c
  2452  02A3  082E               	movf	sprintf@c,w
  2453  02A4  1D03               	btfss	3,2
  2454  02A5  2AA7               	goto	u1591
  2455  02A6  2AA8               	goto	u1590
  2456  02A7                     u1591:
  2457  02A7  2952               	goto	l1781
  2458  02A8                     u1590:
  2459  02A8                     l1859:
  2460                           
  2461                           ;C:\Program Files\Microchip\xc8\v2.31\pic\sources\c90\common\doprnt.c: 1564:  *sp = 0;
  2462  02A8  082A               	movf	sprintf@sp,w
  2463  02A9  0084               	movwf	4
  2464  02AA  1383               	bcf	3,7	;select IRP bank0
  2465  02AB  0180               	clrf	0
  2466  02AC                     l350:
  2467  02AC  0008               	return
  2468  02AD                     __end_of_sprintf:
  2469                           
  2470                           	psect	text9
  2471  0C54                     __ptext9:	
  2472 ;; *************** function _isdigit *****************
  2473 ;; Defined at:
  2474 ;;		line 8 in file "C:\Program Files\Microchip\xc8\v2.31\pic\sources\c90\common\isdigit.c"
  2475 ;; Parameters:    Size  Location     Type
  2476 ;;  c               1    wreg     unsigned char 
  2477 ;; Auto vars:     Size  Location     Type
  2478 ;;  c               1    1[COMMON] unsigned char 
  2479 ;; Return value:  Size  Location     Type
  2480 ;;		None               void
  2481 ;; Registers used:
  2482 ;;		wreg, status,2, status,0
  2483 ;; Tracked objects:
  2484 ;;		On entry : 0/0
  2485 ;;		On exit  : 0/0
  2486 ;;		Unchanged: 0/0
  2487 ;; Data sizes:     COMMON   BANK0   BANK1   BANK3   BANK2
  2488 ;;      Params:         0       0       0       0       0
  2489 ;;      Locals:         2       0       0       0       0
  2490 ;;      Temps:          0       0       0       0       0
  2491 ;;      Totals:         2       0       0       0       0
  2492 ;;Total ram usage:        2 bytes
  2493 ;; Hardware stack levels used:    1
  2494 ;; This function calls:
  2495 ;;		Nothing
  2496 ;; This function is called by:
  2497 ;;		_sprintf
  2498 ;; This function uses a non-reentrant model
  2499 ;;
  2500                           
  2501                           
  2502                           ;psect for function _isdigit
  2503  0C54                     _isdigit:
  2504                           
  2505                           ;incstack = 0
  2506                           ; Regs used in _isdigit: [wreg+status,2+status,0]
  2507                           ;isdigit@c stored from wreg
  2508  0C54  00F1               	movwf	isdigit@c
  2509  0C55                     l1653:
  2510  0C55  01F0               	clrf	_isdigit$954
  2511  0C56                     l1655:
  2512  0C56  303A               	movlw	58
  2513  0C57  0271               	subwf	isdigit@c,w
  2514  0C58  1803               	skipnc
  2515  0C59  2C5B               	goto	u1221
  2516  0C5A  2C5C               	goto	u1220
  2517  0C5B                     u1221:
  2518  0C5B  2C64               	goto	l1661
  2519  0C5C                     u1220:
  2520  0C5C                     l1657:
  2521  0C5C  3030               	movlw	48
  2522  0C5D  0271               	subwf	isdigit@c,w
  2523  0C5E  1C03               	skipc
  2524  0C5F  2C61               	goto	u1231
  2525  0C60  2C62               	goto	u1230
  2526  0C61                     u1231:
  2527  0C61  2C64               	goto	l1661
  2528  0C62                     u1230:
  2529  0C62                     l1659:
  2530  0C62  01F0               	clrf	_isdigit$954
  2531  0C63  0AF0               	incf	_isdigit$954,f
  2532  0C64                     l1661:
  2533  0C64  0C70               	rrf	_isdigit$954,w
  2534  0C65                     l807:
  2535  0C65  0008               	return
  2536  0C66                     __end_of_isdigit:
  2537                           
  2538                           	psect	text10
  2539  0D17                     __ptext10:	
  2540 ;; *************** function ___lwmod *****************
  2541 ;; Defined at:
  2542 ;;		line 5 in file "C:\Program Files\Microchip\xc8\v2.31\pic\sources\c90\common\lwmod.c"
  2543 ;; Parameters:    Size  Location     Type
  2544 ;;  divisor         2    8[COMMON] unsigned int 
  2545 ;;  dividend        2   10[COMMON] unsigned int 
  2546 ;; Auto vars:     Size  Location     Type
  2547 ;;  counter         1   13[COMMON] unsigned char 
  2548 ;; Return value:  Size  Location     Type
  2549 ;;                  2    8[COMMON] unsigned int 
  2550 ;; Registers used:
  2551 ;;		wreg, status,2, status,0
  2552 ;; Tracked objects:
  2553 ;;		On entry : 0/0
  2554 ;;		On exit  : 0/0
  2555 ;;		Unchanged: 0/0
  2556 ;; Data sizes:     COMMON   BANK0   BANK1   BANK3   BANK2
  2557 ;;      Params:         4       0       0       0       0
  2558 ;;      Locals:         1       0       0       0       0
  2559 ;;      Temps:          1       0       0       0       0
  2560 ;;      Totals:         6       0       0       0       0
  2561 ;;Total ram usage:        6 bytes
  2562 ;; Hardware stack levels used:    1
  2563 ;; This function calls:
  2564 ;;		Nothing
  2565 ;; This function is called by:
  2566 ;;		_sprintf
  2567 ;; This function uses a non-reentrant model
  2568 ;;
  2569                           
  2570                           
  2571                           ;psect for function ___lwmod
  2572  0D17                     ___lwmod:
  2573  0D17                     l1705:	
  2574                           ;incstack = 0
  2575                           ; Regs used in ___lwmod: [wreg+status,2+status,0]
  2576                           
  2577  0D17  0878               	movf	___lwmod@divisor,w
  2578  0D18  0479               	iorwf	___lwmod@divisor+1,w
  2579  0D19  1903               	btfsc	3,2
  2580  0D1A  2D1C               	goto	u1331
  2581  0D1B  2D1D               	goto	u1330
  2582  0D1C                     u1331:
  2583  0D1C  2D4C               	goto	l1723
  2584  0D1D                     u1330:
  2585  0D1D                     l1707:
  2586  0D1D  01FD               	clrf	___lwmod@counter
  2587  0D1E  0AFD               	incf	___lwmod@counter,f
  2588  0D1F  2D2B               	goto	l1713
  2589  0D20                     l1709:
  2590  0D20  3001               	movlw	1
  2591  0D21                     u1345:
  2592  0D21  1003               	clrc
  2593  0D22  0DF8               	rlf	___lwmod@divisor,f
  2594  0D23  0DF9               	rlf	___lwmod@divisor+1,f
  2595  0D24  3EFF               	addlw	-1
  2596  0D25  1D03               	skipz
  2597  0D26  2D21               	goto	u1345
  2598  0D27                     l1711:
  2599  0D27  3001               	movlw	1
  2600  0D28  00FC               	movwf	??___lwmod
  2601  0D29  087C               	movf	??___lwmod,w
  2602  0D2A  07FD               	addwf	___lwmod@counter,f
  2603  0D2B                     l1713:
  2604  0D2B  1FF9               	btfss	___lwmod@divisor+1,7
  2605  0D2C  2D2E               	goto	u1351
  2606  0D2D  2D2F               	goto	u1350
  2607  0D2E                     u1351:
  2608  0D2E  2D20               	goto	l1709
  2609  0D2F                     u1350:
  2610  0D2F                     l1715:
  2611  0D2F  0879               	movf	___lwmod@divisor+1,w
  2612  0D30  027B               	subwf	___lwmod@dividend+1,w
  2613  0D31  1D03               	skipz
  2614  0D32  2D35               	goto	u1365
  2615  0D33  0878               	movf	___lwmod@divisor,w
  2616  0D34  027A               	subwf	___lwmod@dividend,w
  2617  0D35                     u1365:
  2618  0D35  1C03               	skipc
  2619  0D36  2D38               	goto	u1361
  2620  0D37  2D39               	goto	u1360
  2621  0D38                     u1361:
  2622  0D38  2D3F               	goto	l1719
  2623  0D39                     u1360:
  2624  0D39                     l1717:
  2625  0D39  0878               	movf	___lwmod@divisor,w
  2626  0D3A  02FA               	subwf	___lwmod@dividend,f
  2627  0D3B  0879               	movf	___lwmod@divisor+1,w
  2628  0D3C  1C03               	skipc
  2629  0D3D  03FB               	decf	___lwmod@dividend+1,f
  2630  0D3E  02FB               	subwf	___lwmod@dividend+1,f
  2631  0D3F                     l1719:
  2632  0D3F  3001               	movlw	1
  2633  0D40                     u1375:
  2634  0D40  1003               	clrc
  2635  0D41  0CF9               	rrf	___lwmod@divisor+1,f
  2636  0D42  0CF8               	rrf	___lwmod@divisor,f
  2637  0D43  3EFF               	addlw	-1
  2638  0D44  1D03               	skipz
  2639  0D45  2D40               	goto	u1375
  2640  0D46                     l1721:
  2641  0D46  3001               	movlw	1
  2642  0D47  02FD               	subwf	___lwmod@counter,f
  2643  0D48  1D03               	btfss	3,2
  2644  0D49  2D4B               	goto	u1381
  2645  0D4A  2D4C               	goto	u1380
  2646  0D4B                     u1381:
  2647  0D4B  2D2F               	goto	l1715
  2648  0D4C                     u1380:
  2649  0D4C                     l1723:
  2650  0D4C  087B               	movf	___lwmod@dividend+1,w
  2651  0D4D  00F9               	movwf	?___lwmod+1
  2652  0D4E  087A               	movf	___lwmod@dividend,w
  2653  0D4F  00F8               	movwf	?___lwmod
  2654  0D50                     l636:
  2655  0D50  0008               	return
  2656  0D51                     __end_of___lwmod:
  2657                           
  2658                           	psect	text11
  2659  0D93                     __ptext11:	
  2660 ;; *************** function ___lwdiv *****************
  2661 ;; Defined at:
  2662 ;;		line 5 in file "C:\Program Files\Microchip\xc8\v2.31\pic\sources\c90\common\lwdiv.c"
  2663 ;; Parameters:    Size  Location     Type
  2664 ;;  divisor         2    0[COMMON] unsigned int 
  2665 ;;  dividend        2    2[COMMON] unsigned int 
  2666 ;; Auto vars:     Size  Location     Type
  2667 ;;  quotient        2    5[COMMON] unsigned int 
  2668 ;;  counter         1    7[COMMON] unsigned char 
  2669 ;; Return value:  Size  Location     Type
  2670 ;;                  2    0[COMMON] unsigned int 
  2671 ;; Registers used:
  2672 ;;		wreg, status,2, status,0
  2673 ;; Tracked objects:
  2674 ;;		On entry : 0/0
  2675 ;;		On exit  : 0/0
  2676 ;;		Unchanged: 0/0
  2677 ;; Data sizes:     COMMON   BANK0   BANK1   BANK3   BANK2
  2678 ;;      Params:         4       0       0       0       0
  2679 ;;      Locals:         3       0       0       0       0
  2680 ;;      Temps:          1       0       0       0       0
  2681 ;;      Totals:         8       0       0       0       0
  2682 ;;Total ram usage:        8 bytes
  2683 ;; Hardware stack levels used:    1
  2684 ;; This function calls:
  2685 ;;		Nothing
  2686 ;; This function is called by:
  2687 ;;		_sprintf
  2688 ;; This function uses a non-reentrant model
  2689 ;;
  2690                           
  2691                           
  2692                           ;psect for function ___lwdiv
  2693  0D93                     ___lwdiv:
  2694  0D93                     l1679:	
  2695                           ;incstack = 0
  2696                           ; Regs used in ___lwdiv: [wreg+status,2+status,0]
  2697                           
  2698  0D93  01F5               	clrf	___lwdiv@quotient
  2699  0D94  01F6               	clrf	___lwdiv@quotient+1
  2700  0D95                     l1681:
  2701  0D95  0870               	movf	___lwdiv@divisor,w
  2702  0D96  0471               	iorwf	___lwdiv@divisor+1,w
  2703  0D97  1903               	btfsc	3,2
  2704  0D98  2D9A               	goto	u1261
  2705  0D99  2D9B               	goto	u1260
  2706  0D9A                     u1261:
  2707  0D9A  2DD2               	goto	l1701
  2708  0D9B                     u1260:
  2709  0D9B                     l1683:
  2710  0D9B  01F7               	clrf	___lwdiv@counter
  2711  0D9C  0AF7               	incf	___lwdiv@counter,f
  2712  0D9D  2DA9               	goto	l1689
  2713  0D9E                     l1685:
  2714  0D9E  3001               	movlw	1
  2715  0D9F                     u1275:
  2716  0D9F  1003               	clrc
  2717  0DA0  0DF0               	rlf	___lwdiv@divisor,f
  2718  0DA1  0DF1               	rlf	___lwdiv@divisor+1,f
  2719  0DA2  3EFF               	addlw	-1
  2720  0DA3  1D03               	skipz
  2721  0DA4  2D9F               	goto	u1275
  2722  0DA5                     l1687:
  2723  0DA5  3001               	movlw	1
  2724  0DA6  00F4               	movwf	??___lwdiv
  2725  0DA7  0874               	movf	??___lwdiv,w
  2726  0DA8  07F7               	addwf	___lwdiv@counter,f
  2727  0DA9                     l1689:
  2728  0DA9  1FF1               	btfss	___lwdiv@divisor+1,7
  2729  0DAA  2DAC               	goto	u1281
  2730  0DAB  2DAD               	goto	u1280
  2731  0DAC                     u1281:
  2732  0DAC  2D9E               	goto	l1685
  2733  0DAD                     u1280:
  2734  0DAD                     l1691:
  2735  0DAD  3001               	movlw	1
  2736  0DAE                     u1295:
  2737  0DAE  1003               	clrc
  2738  0DAF  0DF5               	rlf	___lwdiv@quotient,f
  2739  0DB0  0DF6               	rlf	___lwdiv@quotient+1,f
  2740  0DB1  3EFF               	addlw	-1
  2741  0DB2  1D03               	skipz
  2742  0DB3  2DAE               	goto	u1295
  2743  0DB4  0871               	movf	___lwdiv@divisor+1,w
  2744  0DB5  0273               	subwf	___lwdiv@dividend+1,w
  2745  0DB6  1D03               	skipz
  2746  0DB7  2DBA               	goto	u1305
  2747  0DB8  0870               	movf	___lwdiv@divisor,w
  2748  0DB9  0272               	subwf	___lwdiv@dividend,w
  2749  0DBA                     u1305:
  2750  0DBA  1C03               	skipc
  2751  0DBB  2DBD               	goto	u1301
  2752  0DBC  2DBE               	goto	u1300
  2753  0DBD                     u1301:
  2754  0DBD  2DC5               	goto	l1697
  2755  0DBE                     u1300:
  2756  0DBE                     l1693:
  2757  0DBE  0870               	movf	___lwdiv@divisor,w
  2758  0DBF  02F2               	subwf	___lwdiv@dividend,f
  2759  0DC0  0871               	movf	___lwdiv@divisor+1,w
  2760  0DC1  1C03               	skipc
  2761  0DC2  03F3               	decf	___lwdiv@dividend+1,f
  2762  0DC3  02F3               	subwf	___lwdiv@dividend+1,f
  2763  0DC4                     l1695:
  2764  0DC4  1475               	bsf	___lwdiv@quotient,0
  2765  0DC5                     l1697:
  2766  0DC5  3001               	movlw	1
  2767  0DC6                     u1315:
  2768  0DC6  1003               	clrc
  2769  0DC7  0CF1               	rrf	___lwdiv@divisor+1,f
  2770  0DC8  0CF0               	rrf	___lwdiv@divisor,f
  2771  0DC9  3EFF               	addlw	-1
  2772  0DCA  1D03               	skipz
  2773  0DCB  2DC6               	goto	u1315
  2774  0DCC                     l1699:
  2775  0DCC  3001               	movlw	1
  2776  0DCD  02F7               	subwf	___lwdiv@counter,f
  2777  0DCE  1D03               	btfss	3,2
  2778  0DCF  2DD1               	goto	u1321
  2779  0DD0  2DD2               	goto	u1320
  2780  0DD1                     u1321:
  2781  0DD1  2DAD               	goto	l1691
  2782  0DD2                     u1320:
  2783  0DD2                     l1701:
  2784  0DD2  0876               	movf	___lwdiv@quotient+1,w
  2785  0DD3  00F1               	movwf	?___lwdiv+1
  2786  0DD4  0875               	movf	___lwdiv@quotient,w
  2787  0DD5  00F0               	movwf	?___lwdiv
  2788  0DD6                     l626:
  2789  0DD6  0008               	return
  2790  0DD7                     __end_of___lwdiv:
  2791                           
  2792                           	psect	text12
  2793  0C7A                     __ptext12:	
  2794 ;; *************** function ___bmul *****************
  2795 ;; Defined at:
  2796 ;;		line 4 in file "C:\Program Files\Microchip\xc8\v2.31\pic\sources\c90\common\Umul8.c"
  2797 ;; Parameters:    Size  Location     Type
  2798 ;;  multiplier      1    wreg     unsigned char 
  2799 ;;  multiplicand    1    0[COMMON] unsigned char 
  2800 ;; Auto vars:     Size  Location     Type
  2801 ;;  multiplier      1    3[COMMON] unsigned char 
  2802 ;;  product         1    2[COMMON] unsigned char 
  2803 ;; Return value:  Size  Location     Type
  2804 ;;                  1    wreg      unsigned char 
  2805 ;; Registers used:
  2806 ;;		wreg, status,2, status,0
  2807 ;; Tracked objects:
  2808 ;;		On entry : 0/0
  2809 ;;		On exit  : 0/0
  2810 ;;		Unchanged: 0/0
  2811 ;; Data sizes:     COMMON   BANK0   BANK1   BANK3   BANK2
  2812 ;;      Params:         1       0       0       0       0
  2813 ;;      Locals:         2       0       0       0       0
  2814 ;;      Temps:          1       0       0       0       0
  2815 ;;      Totals:         4       0       0       0       0
  2816 ;;Total ram usage:        4 bytes
  2817 ;; Hardware stack levels used:    1
  2818 ;; This function calls:
  2819 ;;		Nothing
  2820 ;; This function is called by:
  2821 ;;		_sprintf
  2822 ;; This function uses a non-reentrant model
  2823 ;;
  2824                           
  2825                           
  2826                           ;psect for function ___bmul
  2827  0C7A                     ___bmul:
  2828                           
  2829                           ;incstack = 0
  2830                           ; Regs used in ___bmul: [wreg+status,2+status,0]
  2831                           ;___bmul@multiplier stored from wreg
  2832  0C7A  00F3               	movwf	___bmul@multiplier
  2833  0C7B                     l1665:
  2834  0C7B  01F2               	clrf	___bmul@product
  2835  0C7C                     l1667:
  2836  0C7C  1C73               	btfss	___bmul@multiplier,0
  2837  0C7D  2C7F               	goto	u1241
  2838  0C7E  2C80               	goto	u1240
  2839  0C7F                     u1241:
  2840  0C7F  2C84               	goto	l1671
  2841  0C80                     u1240:
  2842  0C80                     l1669:
  2843  0C80  0870               	movf	___bmul@multiplicand,w
  2844  0C81  00F1               	movwf	??___bmul
  2845  0C82  0871               	movf	??___bmul,w
  2846  0C83  07F2               	addwf	___bmul@product,f
  2847  0C84                     l1671:
  2848  0C84  1003               	clrc
  2849  0C85  0DF0               	rlf	___bmul@multiplicand,f
  2850  0C86                     l1673:
  2851  0C86  1003               	clrc
  2852  0C87  0CF3               	rrf	___bmul@multiplier,f
  2853  0C88  0873               	movf	___bmul@multiplier,w
  2854  0C89  1D03               	btfss	3,2
  2855  0C8A  2C8C               	goto	u1251
  2856  0C8B  2C8D               	goto	u1250
  2857  0C8C                     u1251:
  2858  0C8C  2C7C               	goto	l1667
  2859  0C8D                     u1250:
  2860  0C8D                     l1675:
  2861  0C8D  0872               	movf	___bmul@product,w
  2862  0C8E                     l380:
  2863  0C8E  0008               	return
  2864  0C8F                     __end_of___bmul:
  2865                           
  2866                           	psect	text13
  2867  0C31                     __ptext13:	
  2868 ;; *************** function _USART_Init_BaudRate *****************
  2869 ;; Defined at:
  2870 ;;		line 20 in file "USART.c"
  2871 ;; Parameters:    Size  Location     Type
  2872 ;;		None
  2873 ;; Auto vars:     Size  Location     Type
  2874 ;;		None
  2875 ;; Return value:  Size  Location     Type
  2876 ;;                  1    wreg      void 
  2877 ;; Registers used:
  2878 ;;		wreg
  2879 ;; Tracked objects:
  2880 ;;		On entry : 0/0
  2881 ;;		On exit  : 0/0
  2882 ;;		Unchanged: 0/0
  2883 ;; Data sizes:     COMMON   BANK0   BANK1   BANK3   BANK2
  2884 ;;      Params:         0       0       0       0       0
  2885 ;;      Locals:         0       0       0       0       0
  2886 ;;      Temps:          0       0       0       0       0
  2887 ;;      Totals:         0       0       0       0       0
  2888 ;;Total ram usage:        0 bytes
  2889 ;; Hardware stack levels used:    1
  2890 ;; This function calls:
  2891 ;;		Nothing
  2892 ;; This function is called by:
  2893 ;;		_main
  2894 ;; This function uses a non-reentrant model
  2895 ;;
  2896                           
  2897                           
  2898                           ;psect for function _USART_Init_BaudRate
  2899  0C31                     _USART_Init_BaudRate:
  2900  0C31                     l2237:	
  2901                           ;incstack = 0
  2902                           ; Regs used in _USART_Init_BaudRate: [wreg]
  2903                           
  2904                           
  2905                           ;USART.c: 21:     SPBRG = 12;
  2906  0C31  300C               	movlw	12
  2907  0C32  1683               	bsf	3,5	;RP0=1, select bank1
  2908  0C33  1303               	bcf	3,6	;RP1=0, select bank1
  2909  0C34  0099               	movwf	25	;volatile
  2910  0C35                     l226:
  2911  0C35  0008               	return
  2912  0C36                     __end_of_USART_Init_BaudRate:
  2913                           
  2914                           	psect	text14
  2915  0C44                     __ptext14:	
  2916 ;; *************** function _USART_Init *****************
  2917 ;; Defined at:
  2918 ;;		line 5 in file "USART.c"
  2919 ;; Parameters:    Size  Location     Type
  2920 ;;		None
  2921 ;; Auto vars:     Size  Location     Type
  2922 ;;		None
  2923 ;; Return value:  Size  Location     Type
  2924 ;;                  1    wreg      void 
  2925 ;; Registers used:
  2926 ;;		status,2
  2927 ;; Tracked objects:
  2928 ;;		On entry : 0/0
  2929 ;;		On exit  : 0/0
  2930 ;;		Unchanged: 0/0
  2931 ;; Data sizes:     COMMON   BANK0   BANK1   BANK3   BANK2
  2932 ;;      Params:         0       0       0       0       0
  2933 ;;      Locals:         0       0       0       0       0
  2934 ;;      Temps:          0       0       0       0       0
  2935 ;;      Totals:         0       0       0       0       0
  2936 ;;Total ram usage:        0 bytes
  2937 ;; Hardware stack levels used:    1
  2938 ;; This function calls:
  2939 ;;		Nothing
  2940 ;; This function is called by:
  2941 ;;		_main
  2942 ;; This function uses a non-reentrant model
  2943 ;;
  2944                           
  2945                           
  2946                           ;psect for function _USART_Init
  2947  0C44                     _USART_Init:
  2948  0C44                     l2233:	
  2949                           ;incstack = 0
  2950                           ; Regs used in _USART_Init: [status,2]
  2951                           
  2952                           
  2953                           ;USART.c: 7:     RCSTAbits.SPEN = 1;
  2954  0C44  1283               	bcf	3,5	;RP0=0, select bank0
  2955  0C45  1303               	bcf	3,6	;RP1=0, select bank0
  2956  0C46  1798               	bsf	24,7	;volatile
  2957                           
  2958                           ;USART.c: 8:     TXSTAbits.SYNC = 0;
  2959  0C47  1683               	bsf	3,5	;RP0=1, select bank1
  2960  0C48  1303               	bcf	3,6	;RP1=0, select bank1
  2961  0C49  1218               	bcf	24,4	;volatile
  2962                           
  2963                           ;USART.c: 10:     TXSTAbits.TXEN = 1;
  2964  0C4A  1698               	bsf	24,5	;volatile
  2965                           
  2966                           ;USART.c: 11:     TXSTAbits.TX9 = 0;
  2967  0C4B  1318               	bcf	24,6	;volatile
  2968                           
  2969                           ;USART.c: 12:     TXSTAbits.BRGH = 1;
  2970  0C4C  1518               	bsf	24,2	;volatile
  2971                           
  2972                           ;USART.c: 13:     TXSTAbits.TRMT = 0;
  2973  0C4D  1098               	bcf	24,1	;volatile
  2974                           
  2975                           ;USART.c: 15:     RCSTAbits.RX9 = 0;
  2976  0C4E  1283               	bcf	3,5	;RP0=0, select bank0
  2977  0C4F  1303               	bcf	3,6	;RP1=0, select bank0
  2978  0C50  1318               	bcf	24,6	;volatile
  2979                           
  2980                           ;USART.c: 16:     RCSTAbits.CREN = 1;
  2981  0C51  1618               	bsf	24,4	;volatile
  2982  0C52                     l2235:
  2983                           
  2984                           ;USART.c: 17:     RCREG = 0;
  2985  0C52  019A               	clrf	26	;volatile
  2986  0C53                     l223:
  2987  0C53  0008               	return
  2988  0C54                     __end_of_USART_Init:
  2989                           
  2990                           	psect	text15
  2991  0DD7                     __ptext15:	
  2992 ;; *************** function _Lcd_Init *****************
  2993 ;; Defined at:
  2994 ;;		line 14 in file "LCD.c"
  2995 ;; Parameters:    Size  Location     Type
  2996 ;;		None
  2997 ;; Auto vars:     Size  Location     Type
  2998 ;;		None
  2999 ;; Return value:  Size  Location     Type
  3000 ;;                  1    wreg      void 
  3001 ;; Registers used:
  3002 ;;		wreg, status,2, status,0, pclath, cstack
  3003 ;; Tracked objects:
  3004 ;;		On entry : 0/0
  3005 ;;		On exit  : 0/0
  3006 ;;		Unchanged: 0/0
  3007 ;; Data sizes:     COMMON   BANK0   BANK1   BANK3   BANK2
  3008 ;;      Params:         0       0       0       0       0
  3009 ;;      Locals:         0       0       0       0       0
  3010 ;;      Temps:          2       0       0       0       0
  3011 ;;      Totals:         2       0       0       0       0
  3012 ;;Total ram usage:        2 bytes
  3013 ;; Hardware stack levels used:    1
  3014 ;; Hardware stack levels required when called:    2
  3015 ;; This function calls:
  3016 ;;		_Lcd_Cmd
  3017 ;;		_Lcd_Port
  3018 ;; This function is called by:
  3019 ;;		_main
  3020 ;; This function uses a non-reentrant model
  3021 ;;
  3022                           
  3023                           
  3024                           ;psect for function _Lcd_Init
  3025  0DD7                     _Lcd_Init:
  3026  0DD7                     l2239:	
  3027                           ;incstack = 0
  3028                           ; Regs used in _Lcd_Init: [wreg+status,2+status,0+pclath+cstack]
  3029                           
  3030                           
  3031                           ;LCD.c: 15:   Lcd_Port(0x00);
  3032  0DD7  3000               	movlw	0
  3033  0DD8  120A  158A  2436  120A  158A  	fcall	_Lcd_Port
  3034  0DDD                     l2241:
  3035                           
  3036                           ;LCD.c: 16:    _delay((unsigned long)((20)*(8000000/4000.0)));
  3037  0DDD  3034               	movlw	52
  3038  0DDE  00F5               	movwf	??_Lcd_Init+1
  3039  0DDF  30F1               	movlw	241
  3040  0DE0  00F4               	movwf	??_Lcd_Init
  3041  0DE1                     u2467:
  3042  0DE1  0BF4               	decfsz	??_Lcd_Init,f
  3043  0DE2  2DE1               	goto	u2467
  3044  0DE3  0BF5               	decfsz	??_Lcd_Init+1,f
  3045  0DE4  2DE1               	goto	u2467
  3046  0DE5  2DE6               	nop2
  3047  0DE6                     l2243:
  3048                           
  3049                           ;LCD.c: 17:   Lcd_Cmd(0x30);
  3050  0DE6  3030               	movlw	48
  3051  0DE7  120A  158A  24BA  120A  158A  	fcall	_Lcd_Cmd
  3052                           
  3053                           ;LCD.c: 18:     _delay((unsigned long)((5)*(8000000/4000.0)));
  3054  0DEC  300D               	movlw	13
  3055  0DED  00F5               	movwf	??_Lcd_Init+1
  3056  0DEE  30FB               	movlw	251
  3057  0DEF  00F4               	movwf	??_Lcd_Init
  3058  0DF0                     u2477:
  3059  0DF0  0BF4               	decfsz	??_Lcd_Init,f
  3060  0DF1  2DF0               	goto	u2477
  3061  0DF2  0BF5               	decfsz	??_Lcd_Init+1,f
  3062  0DF3  2DF0               	goto	u2477
  3063  0DF4  2DF5               	nop2
  3064  0DF5                     l2245:
  3065                           
  3066                           ;LCD.c: 19:   Lcd_Cmd(0x30);
  3067  0DF5  3030               	movlw	48
  3068  0DF6  120A  158A  24BA  120A  158A  	fcall	_Lcd_Cmd
  3069  0DFB                     l2247:
  3070                           
  3071                           ;LCD.c: 20:     _delay((unsigned long)((11)*(8000000/4000.0)));
  3072  0DFB  301D               	movlw	29
  3073  0DFC  00F5               	movwf	??_Lcd_Init+1
  3074  0DFD  3091               	movlw	145
  3075  0DFE  00F4               	movwf	??_Lcd_Init
  3076  0DFF                     u2487:
  3077  0DFF  0BF4               	decfsz	??_Lcd_Init,f
  3078  0E00  2DFF               	goto	u2487
  3079  0E01  0BF5               	decfsz	??_Lcd_Init+1,f
  3080  0E02  2DFF               	goto	u2487
  3081                           
  3082                           ;LCD.c: 21:   Lcd_Cmd(0x30);
  3083  0E03  3030               	movlw	48
  3084  0E04  120A  158A  24BA  120A  158A  	fcall	_Lcd_Cmd
  3085                           
  3086                           ;LCD.c: 22:   Lcd_Cmd(0x38);
  3087  0E09  3038               	movlw	56
  3088  0E0A  120A  158A  24BA  120A  158A  	fcall	_Lcd_Cmd
  3089                           
  3090                           ;LCD.c: 23:   Lcd_Cmd(0x0C);
  3091  0E0F  300C               	movlw	12
  3092  0E10  120A  158A  24BA  120A  158A  	fcall	_Lcd_Cmd
  3093                           
  3094                           ;LCD.c: 24:   Lcd_Cmd(0x01);
  3095  0E15  3001               	movlw	1
  3096  0E16  120A  158A  24BA  120A  158A  	fcall	_Lcd_Cmd
  3097                           
  3098                           ;LCD.c: 25:   Lcd_Cmd(0x06);
  3099  0E1B  3006               	movlw	6
  3100  0E1C  120A  158A  24BA  120A  158A  	fcall	_Lcd_Cmd
  3101  0E21                     l128:
  3102  0E21  0008               	return
  3103  0E22                     __end_of_Lcd_Init:
  3104                           
  3105                           	psect	text16
  3106  0CBA                     __ptext16:	
  3107 ;; *************** function _Lcd_Cmd *****************
  3108 ;; Defined at:
  3109 ;;		line 33 in file "LCD.c"
  3110 ;; Parameters:    Size  Location     Type
  3111 ;;  a               1    wreg     unsigned char 
  3112 ;; Auto vars:     Size  Location     Type
  3113 ;;  a               1    3[COMMON] unsigned char 
  3114 ;; Return value:  Size  Location     Type
  3115 ;;                  1    wreg      void 
  3116 ;; Registers used:
  3117 ;;		wreg, status,2, status,0, pclath, cstack
  3118 ;; Tracked objects:
  3119 ;;		On entry : 0/0
  3120 ;;		On exit  : 0/0
  3121 ;;		Unchanged: 0/0
  3122 ;; Data sizes:     COMMON   BANK0   BANK1   BANK3   BANK2
  3123 ;;      Params:         0       0       0       0       0
  3124 ;;      Locals:         1       0       0       0       0
  3125 ;;      Temps:          2       0       0       0       0
  3126 ;;      Totals:         3       0       0       0       0
  3127 ;;Total ram usage:        3 bytes
  3128 ;; Hardware stack levels used:    1
  3129 ;; Hardware stack levels required when called:    1
  3130 ;; This function calls:
  3131 ;;		_Lcd_Port
  3132 ;; This function is called by:
  3133 ;;		_Lcd_Init
  3134 ;;		_Lcd_Set_Cursor
  3135 ;;		_Lcd_Clear
  3136 ;;		_Lcd_Shift_Right
  3137 ;;		_Lcd_Shift_Left
  3138 ;; This function uses a non-reentrant model
  3139 ;;
  3140                           
  3141                           
  3142                           ;psect for function _Lcd_Cmd
  3143  0CBA                     _Lcd_Cmd:
  3144                           
  3145                           ;incstack = 0
  3146                           ; Regs used in _Lcd_Cmd: [wreg+status,2+status,0+pclath+cstack]
  3147                           ;Lcd_Cmd@a stored from wreg
  3148  0CBA  00F3               	movwf	Lcd_Cmd@a
  3149  0CBB                     l1633:
  3150                           
  3151                           ;LCD.c: 34:  PORTEbits.RE0 = 0;
  3152  0CBB  1283               	bcf	3,5	;RP0=0, select bank0
  3153  0CBC  1303               	bcf	3,6	;RP1=0, select bank0
  3154  0CBD  1009               	bcf	9,0	;volatile
  3155  0CBE                     l1635:
  3156                           
  3157                           ;LCD.c: 35:  Lcd_Port(a);
  3158  0CBE  0873               	movf	Lcd_Cmd@a,w
  3159  0CBF  120A  158A  2436  120A  158A  	fcall	_Lcd_Port
  3160  0CC4                     l1637:
  3161                           
  3162                           ;LCD.c: 36:  PORTEbits.RE2 = 1;
  3163  0CC4  1283               	bcf	3,5	;RP0=0, select bank0
  3164  0CC5  1303               	bcf	3,6	;RP1=0, select bank0
  3165  0CC6  1509               	bsf	9,2	;volatile
  3166  0CC7                     l1639:
  3167                           
  3168                           ;LCD.c: 37:         _delay((unsigned long)((4)*(8000000/4000.0)));
  3169  0CC7  300B               	movlw	11
  3170  0CC8  00F2               	movwf	??_Lcd_Cmd+1
  3171  0CC9  3062               	movlw	98
  3172  0CCA  00F1               	movwf	??_Lcd_Cmd
  3173  0CCB                     u2497:
  3174  0CCB  0BF1               	decfsz	??_Lcd_Cmd,f
  3175  0CCC  2CCB               	goto	u2497
  3176  0CCD  0BF2               	decfsz	??_Lcd_Cmd+1,f
  3177  0CCE  2CCB               	goto	u2497
  3178  0CCF  0000               	nop
  3179  0CD0                     l1641:
  3180                           
  3181                           ;LCD.c: 38:         PORTEbits.RE2 = 0;
  3182  0CD0  1283               	bcf	3,5	;RP0=0, select bank0
  3183  0CD1  1303               	bcf	3,6	;RP1=0, select bank0
  3184  0CD2  1109               	bcf	9,2	;volatile
  3185  0CD3                     l134:
  3186  0CD3  0008               	return
  3187  0CD4                     __end_of_Lcd_Cmd:
  3188                           
  3189                           	psect	text17
  3190  0C36                     __ptext17:	
  3191 ;; *************** function _Lcd_Port *****************
  3192 ;; Defined at:
  3193 ;;		line 29 in file "LCD.c"
  3194 ;; Parameters:    Size  Location     Type
  3195 ;;  a               1    wreg     unsigned char 
  3196 ;; Auto vars:     Size  Location     Type
  3197 ;;  a               1    0[COMMON] unsigned char 
  3198 ;; Return value:  Size  Location     Type
  3199 ;;                  1    wreg      void 
  3200 ;; Registers used:
  3201 ;;		wreg
  3202 ;; Tracked objects:
  3203 ;;		On entry : 0/0
  3204 ;;		On exit  : 0/0
  3205 ;;		Unchanged: 0/0
  3206 ;; Data sizes:     COMMON   BANK0   BANK1   BANK3   BANK2
  3207 ;;      Params:         0       0       0       0       0
  3208 ;;      Locals:         1       0       0       0       0
  3209 ;;      Temps:          0       0       0       0       0
  3210 ;;      Totals:         1       0       0       0       0
  3211 ;;Total ram usage:        1 bytes
  3212 ;; Hardware stack levels used:    1
  3213 ;; This function calls:
  3214 ;;		Nothing
  3215 ;; This function is called by:
  3216 ;;		_Lcd_Init
  3217 ;;		_Lcd_Cmd
  3218 ;;		_Lcd_Write_Char
  3219 ;; This function uses a non-reentrant model
  3220 ;;
  3221                           
  3222                           
  3223                           ;psect for function _Lcd_Port
  3224  0C36                     _Lcd_Port:
  3225                           
  3226                           ;incstack = 0
  3227                           ; Regs used in _Lcd_Port: [wreg]
  3228                           ;Lcd_Port@a stored from wreg
  3229  0C36  00F0               	movwf	Lcd_Port@a
  3230  0C37                     l1631:
  3231                           
  3232                           ;LCD.c: 30:     PORTD = a;
  3233  0C37  0870               	movf	Lcd_Port@a,w
  3234  0C38  1283               	bcf	3,5	;RP0=0, select bank0
  3235  0C39  1303               	bcf	3,6	;RP1=0, select bank0
  3236  0C3A  0088               	movwf	8	;volatile
  3237  0C3B                     l131:
  3238  0C3B  0008               	return
  3239  0C3C                     __end_of_Lcd_Port:
  3240                           
  3241                           	psect	text18
  3242  0EE2                     __ptext18:	
  3243 ;; *************** function _ADC_channel2 *****************
  3244 ;; Defined at:
  3245 ;;		line 170 in file "pseudocodigo_lab3.c"
  3246 ;; Parameters:    Size  Location     Type
  3247 ;;		None
  3248 ;; Auto vars:     Size  Location     Type
  3249 ;;		None
  3250 ;; Return value:  Size  Location     Type
  3251 ;;                  1    wreg      void 
  3252 ;; Registers used:
  3253 ;;		wreg, fsr0l, fsr0h, status,2, status,0, btemp+1, pclath, cstack
  3254 ;; Tracked objects:
  3255 ;;		On entry : 0/0
  3256 ;;		On exit  : 0/0
  3257 ;;		Unchanged: 0/0
  3258 ;; Data sizes:     COMMON   BANK0   BANK1   BANK3   BANK2
  3259 ;;      Params:         0       0       0       0       0
  3260 ;;      Locals:         0       0       0       0       0
  3261 ;;      Temps:          0       4       0       0       0
  3262 ;;      Totals:         0       4       0       0       0
  3263 ;;Total ram usage:        4 bytes
  3264 ;; Hardware stack levels used:    1
  3265 ;; Hardware stack levels required when called:    2
  3266 ;; This function calls:
  3267 ;;		_ADC_Config
  3268 ;;		___fldiv
  3269 ;;		___flmul
  3270 ;;		___xxtofl
  3271 ;; This function is called by:
  3272 ;;		_main
  3273 ;; This function uses a non-reentrant model
  3274 ;;
  3275                           
  3276                           
  3277                           ;psect for function _ADC_channel2
  3278  0EE2                     _ADC_channel2:
  3279  0EE2                     l2263:	
  3280                           ;incstack = 0
  3281                           ; Regs used in _ADC_channel2: [wreg-fsr0h+status,2+status,0+btemp+1+pclath+cstack]
  3282                           
  3283                           
  3284                           ;pseudocodigo_lab3.c: 171:     ADC_Config (1);
  3285  0EE2  3001               	movlw	1
  3286  0EE3  120A  118A  208E  120A  158A  	fcall	_ADC_Config
  3287  0EE8                     l2265:
  3288                           
  3289                           ;pseudocodigo_lab3.c: 172:     _delay((unsigned long)((1)*(8000000/4000.0)));
  3290  0EE8  3003               	movlw	3
  3291  0EE9  1283               	bcf	3,5	;RP0=0, select bank0
  3292  0EEA  1303               	bcf	3,6	;RP1=0, select bank0
  3293  0EEB  00D5               	movwf	??_ADC_channel2+1
  3294  0EEC  3097               	movlw	151
  3295  0EED  00D4               	movwf	??_ADC_channel2
  3296  0EEE                     u2507:
  3297  0EEE  0BD4               	decfsz	??_ADC_channel2,f
  3298  0EEF  2EEE               	goto	u2507
  3299  0EF0  0BD5               	decfsz	??_ADC_channel2+1,f
  3300  0EF1  2EEE               	goto	u2507
  3301  0EF2                     l2267:
  3302                           
  3303                           ;pseudocodigo_lab3.c: 173:     ADCON0bits.GO = 1;
  3304  0EF2  1283               	bcf	3,5	;RP0=0, select bank0
  3305  0EF3  1303               	bcf	3,6	;RP1=0, select bank0
  3306  0EF4  149F               	bsf	31,1	;volatile
  3307                           
  3308                           ;pseudocodigo_lab3.c: 174:     while (ADCON0bits.GO != 0) {
  3309  0EF5  2F41               	goto	l2271
  3310  0EF6                     l2269:
  3311                           
  3312                           ;pseudocodigo_lab3.c: 175:         S2_val = ((ADRESH * 5.0) / 255);
  3313  0EF6  3043               	movlw	67
  3314  0EF7  00BD               	movwf	___fldiv@a+3
  3315  0EF8  307F               	movlw	127
  3316  0EF9  00BC               	movwf	___fldiv@a+2
  3317  0EFA  3000               	movlw	0
  3318  0EFB  00BB               	movwf	___fldiv@a+1
  3319  0EFC  3000               	movlw	0
  3320  0EFD  00BA               	movwf	___fldiv@a
  3321  0EFE  3040               	movlw	64
  3322  0EFF  00A3               	movwf	___flmul@b+3
  3323  0F00  30A0               	movlw	160
  3324  0F01  00A2               	movwf	___flmul@b+2
  3325  0F02  3000               	movlw	0
  3326  0F03  00A1               	movwf	___flmul@b+1
  3327  0F04  3000               	movlw	0
  3328  0F05  00A0               	movwf	___flmul@b
  3329  0F06  081E               	movf	30,w	;volatile
  3330  0F07  00D4               	movwf	??_ADC_channel2
  3331  0F08  01D5               	clrf	??_ADC_channel2+1
  3332  0F09  01D6               	clrf	??_ADC_channel2+2
  3333  0F0A  01D7               	clrf	??_ADC_channel2+3
  3334  0F0B  0857               	movf	??_ADC_channel2+3,w
  3335  0F0C  00F3               	movwf	___xxtofl@val+3
  3336  0F0D  0856               	movf	??_ADC_channel2+2,w
  3337  0F0E  00F2               	movwf	___xxtofl@val+2
  3338  0F0F  0855               	movf	??_ADC_channel2+1,w
  3339  0F10  00F1               	movwf	___xxtofl@val+1
  3340  0F11  0854               	movf	??_ADC_channel2,w
  3341  0F12  00F0               	movwf	___xxtofl@val
  3342  0F13  3001               	movlw	1
  3343  0F14  120A  158A  2746  120A  158A  	fcall	___xxtofl
  3344  0F19  0873               	movf	?___xxtofl+3,w
  3345  0F1A  1283               	bcf	3,5	;RP0=0, select bank0
  3346  0F1B  1303               	bcf	3,6	;RP1=0, select bank0
  3347  0F1C  00A7               	movwf	___flmul@a+3
  3348  0F1D  0872               	movf	?___xxtofl+2,w
  3349  0F1E  00A6               	movwf	___flmul@a+2
  3350  0F1F  0871               	movf	?___xxtofl+1,w
  3351  0F20  00A5               	movwf	___flmul@a+1
  3352  0F21  0870               	movf	?___xxtofl,w
  3353  0F22  00A4               	movwf	___flmul@a
  3354  0F23  120A  118A  248A  120A  158A  	fcall	___flmul
  3355  0F28  1283               	bcf	3,5	;RP0=0, select bank0
  3356  0F29  1303               	bcf	3,6	;RP1=0, select bank0
  3357  0F2A  0823               	movf	?___flmul+3,w
  3358  0F2B  00C1               	movwf	___fldiv@b+3
  3359  0F2C  0822               	movf	?___flmul+2,w
  3360  0F2D  00C0               	movwf	___fldiv@b+2
  3361  0F2E  0821               	movf	?___flmul+1,w
  3362  0F2F  00BF               	movwf	___fldiv@b+1
  3363  0F30  0820               	movf	?___flmul,w
  3364  0F31  00BE               	movwf	___fldiv@b
  3365  0F32  120A  118A  22AD  120A  158A  	fcall	___fldiv
  3366  0F37  1283               	bcf	3,5	;RP0=0, select bank0
  3367  0F38  1303               	bcf	3,6	;RP1=0, select bank0
  3368  0F39  083D               	movf	?___fldiv+3,w
  3369  0F3A  00DD               	movwf	_S2_val+3
  3370  0F3B  083C               	movf	?___fldiv+2,w
  3371  0F3C  00DC               	movwf	_S2_val+2
  3372  0F3D  083B               	movf	?___fldiv+1,w
  3373  0F3E  00DB               	movwf	_S2_val+1
  3374  0F3F  083A               	movf	?___fldiv,w
  3375  0F40  00DA               	movwf	_S2_val
  3376  0F41                     l2271:
  3377                           
  3378                           ;pseudocodigo_lab3.c: 174:     while (ADCON0bits.GO != 0) {
  3379  0F41  189F               	btfsc	31,1	;volatile
  3380  0F42  2F44               	goto	u2411
  3381  0F43  2F45               	goto	u2410
  3382  0F44                     u2411:
  3383  0F44  2EF6               	goto	l2269
  3384  0F45                     u2410:
  3385  0F45                     l93:
  3386  0F45  0008               	return
  3387  0F46                     __end_of_ADC_channel2:
  3388                           
  3389                           	psect	text19
  3390  0E7E                     __ptext19:	
  3391 ;; *************** function _ADC_channel1 *****************
  3392 ;; Defined at:
  3393 ;;		line 161 in file "pseudocodigo_lab3.c"
  3394 ;; Parameters:    Size  Location     Type
  3395 ;;		None
  3396 ;; Auto vars:     Size  Location     Type
  3397 ;;		None
  3398 ;; Return value:  Size  Location     Type
  3399 ;;                  1    wreg      void 
  3400 ;; Registers used:
  3401 ;;		wreg, fsr0l, fsr0h, status,2, status,0, btemp+1, pclath, cstack
  3402 ;; Tracked objects:
  3403 ;;		On entry : 0/0
  3404 ;;		On exit  : 0/0
  3405 ;;		Unchanged: 0/0
  3406 ;; Data sizes:     COMMON   BANK0   BANK1   BANK3   BANK2
  3407 ;;      Params:         0       0       0       0       0
  3408 ;;      Locals:         0       0       0       0       0
  3409 ;;      Temps:          0       4       0       0       0
  3410 ;;      Totals:         0       4       0       0       0
  3411 ;;Total ram usage:        4 bytes
  3412 ;; Hardware stack levels used:    1
  3413 ;; Hardware stack levels required when called:    2
  3414 ;; This function calls:
  3415 ;;		_ADC_Config
  3416 ;;		___fldiv
  3417 ;;		___flmul
  3418 ;;		___xxtofl
  3419 ;; This function is called by:
  3420 ;;		_main
  3421 ;; This function uses a non-reentrant model
  3422 ;;
  3423                           
  3424                           
  3425                           ;psect for function _ADC_channel1
  3426  0E7E                     _ADC_channel1:
  3427  0E7E                     l2253:	
  3428                           ;incstack = 0
  3429                           ; Regs used in _ADC_channel1: [wreg-fsr0h+status,2+status,0+btemp+1+pclath+cstack]
  3430                           
  3431                           
  3432                           ;pseudocodigo_lab3.c: 162:     ADC_Config (0);
  3433  0E7E  3000               	movlw	0
  3434  0E7F  120A  118A  208E  120A  158A  	fcall	_ADC_Config
  3435  0E84                     l2255:
  3436                           
  3437                           ;pseudocodigo_lab3.c: 163:     _delay((unsigned long)((1)*(8000000/4000.0)));
  3438  0E84  3003               	movlw	3
  3439  0E85  1283               	bcf	3,5	;RP0=0, select bank0
  3440  0E86  1303               	bcf	3,6	;RP1=0, select bank0
  3441  0E87  00D5               	movwf	??_ADC_channel1+1
  3442  0E88  3097               	movlw	151
  3443  0E89  00D4               	movwf	??_ADC_channel1
  3444  0E8A                     u2517:
  3445  0E8A  0BD4               	decfsz	??_ADC_channel1,f
  3446  0E8B  2E8A               	goto	u2517
  3447  0E8C  0BD5               	decfsz	??_ADC_channel1+1,f
  3448  0E8D  2E8A               	goto	u2517
  3449  0E8E                     l2257:
  3450                           
  3451                           ;pseudocodigo_lab3.c: 164:     ADCON0bits.GO = 1;
  3452  0E8E  1283               	bcf	3,5	;RP0=0, select bank0
  3453  0E8F  1303               	bcf	3,6	;RP1=0, select bank0
  3454  0E90  149F               	bsf	31,1	;volatile
  3455                           
  3456                           ;pseudocodigo_lab3.c: 165:     while (ADCON0bits.GO != 0) {
  3457  0E91  2EDD               	goto	l2261
  3458  0E92                     l2259:
  3459                           
  3460                           ;pseudocodigo_lab3.c: 166:         S1_val = ((ADRESH * 5.0) / 255);
  3461  0E92  3043               	movlw	67
  3462  0E93  00BD               	movwf	___fldiv@a+3
  3463  0E94  307F               	movlw	127
  3464  0E95  00BC               	movwf	___fldiv@a+2
  3465  0E96  3000               	movlw	0
  3466  0E97  00BB               	movwf	___fldiv@a+1
  3467  0E98  3000               	movlw	0
  3468  0E99  00BA               	movwf	___fldiv@a
  3469  0E9A  3040               	movlw	64
  3470  0E9B  00A3               	movwf	___flmul@b+3
  3471  0E9C  30A0               	movlw	160
  3472  0E9D  00A2               	movwf	___flmul@b+2
  3473  0E9E  3000               	movlw	0
  3474  0E9F  00A1               	movwf	___flmul@b+1
  3475  0EA0  3000               	movlw	0
  3476  0EA1  00A0               	movwf	___flmul@b
  3477  0EA2  081E               	movf	30,w	;volatile
  3478  0EA3  00D4               	movwf	??_ADC_channel1
  3479  0EA4  01D5               	clrf	??_ADC_channel1+1
  3480  0EA5  01D6               	clrf	??_ADC_channel1+2
  3481  0EA6  01D7               	clrf	??_ADC_channel1+3
  3482  0EA7  0857               	movf	??_ADC_channel1+3,w
  3483  0EA8  00F3               	movwf	___xxtofl@val+3
  3484  0EA9  0856               	movf	??_ADC_channel1+2,w
  3485  0EAA  00F2               	movwf	___xxtofl@val+2
  3486  0EAB  0855               	movf	??_ADC_channel1+1,w
  3487  0EAC  00F1               	movwf	___xxtofl@val+1
  3488  0EAD  0854               	movf	??_ADC_channel1,w
  3489  0EAE  00F0               	movwf	___xxtofl@val
  3490  0EAF  3001               	movlw	1
  3491  0EB0  120A  158A  2746  120A  158A  	fcall	___xxtofl
  3492  0EB5  0873               	movf	?___xxtofl+3,w
  3493  0EB6  1283               	bcf	3,5	;RP0=0, select bank0
  3494  0EB7  1303               	bcf	3,6	;RP1=0, select bank0
  3495  0EB8  00A7               	movwf	___flmul@a+3
  3496  0EB9  0872               	movf	?___xxtofl+2,w
  3497  0EBA  00A6               	movwf	___flmul@a+2
  3498  0EBB  0871               	movf	?___xxtofl+1,w
  3499  0EBC  00A5               	movwf	___flmul@a+1
  3500  0EBD  0870               	movf	?___xxtofl,w
  3501  0EBE  00A4               	movwf	___flmul@a
  3502  0EBF  120A  118A  248A  120A  158A  	fcall	___flmul
  3503  0EC4  1283               	bcf	3,5	;RP0=0, select bank0
  3504  0EC5  1303               	bcf	3,6	;RP1=0, select bank0
  3505  0EC6  0823               	movf	?___flmul+3,w
  3506  0EC7  00C1               	movwf	___fldiv@b+3
  3507  0EC8  0822               	movf	?___flmul+2,w
  3508  0EC9  00C0               	movwf	___fldiv@b+2
  3509  0ECA  0821               	movf	?___flmul+1,w
  3510  0ECB  00BF               	movwf	___fldiv@b+1
  3511  0ECC  0820               	movf	?___flmul,w
  3512  0ECD  00BE               	movwf	___fldiv@b
  3513  0ECE  120A  118A  22AD  120A  158A  	fcall	___fldiv
  3514  0ED3  1283               	bcf	3,5	;RP0=0, select bank0
  3515  0ED4  1303               	bcf	3,6	;RP1=0, select bank0
  3516  0ED5  083D               	movf	?___fldiv+3,w
  3517  0ED6  00E1               	movwf	_S1_val+3
  3518  0ED7  083C               	movf	?___fldiv+2,w
  3519  0ED8  00E0               	movwf	_S1_val+2
  3520  0ED9  083B               	movf	?___fldiv+1,w
  3521  0EDA  00DF               	movwf	_S1_val+1
  3522  0EDB  083A               	movf	?___fldiv,w
  3523  0EDC  00DE               	movwf	_S1_val
  3524  0EDD                     l2261:
  3525                           
  3526                           ;pseudocodigo_lab3.c: 165:     while (ADCON0bits.GO != 0) {
  3527  0EDD  189F               	btfsc	31,1	;volatile
  3528  0EDE  2EE0               	goto	u2401
  3529  0EDF  2EE1               	goto	u2400
  3530  0EE0                     u2401:
  3531  0EE0  2E92               	goto	l2259
  3532  0EE1                     u2400:
  3533  0EE1                     l87:
  3534  0EE1  0008               	return
  3535  0EE2                     __end_of_ADC_channel1:
  3536                           
  3537                           	psect	text20
  3538  0F46                     __ptext20:	
  3539 ;; *************** function ___xxtofl *****************
  3540 ;; Defined at:
  3541 ;;		line 10 in file "C:\Program Files\Microchip\xc8\v2.31\pic\sources\c90\common\xxtofl.c"
  3542 ;; Parameters:    Size  Location     Type
  3543 ;;  sign            1    wreg     unsigned char 
  3544 ;;  val             4    0[COMMON] long 
  3545 ;; Auto vars:     Size  Location     Type
  3546 ;;  sign            1    8[COMMON] unsigned char 
  3547 ;;  arg             4   10[COMMON] unsigned long 
  3548 ;;  exp             1    9[COMMON] unsigned char 
  3549 ;; Return value:  Size  Location     Type
  3550 ;;                  4    0[COMMON] unsigned char 
  3551 ;; Registers used:
  3552 ;;		wreg, status,2, status,0
  3553 ;; Tracked objects:
  3554 ;;		On entry : 0/0
  3555 ;;		On exit  : 0/0
  3556 ;;		Unchanged: 0/0
  3557 ;; Data sizes:     COMMON   BANK0   BANK1   BANK3   BANK2
  3558 ;;      Params:         4       0       0       0       0
  3559 ;;      Locals:         6       0       0       0       0
  3560 ;;      Temps:          4       0       0       0       0
  3561 ;;      Totals:        14       0       0       0       0
  3562 ;;Total ram usage:       14 bytes
  3563 ;; Hardware stack levels used:    1
  3564 ;; This function calls:
  3565 ;;		Nothing
  3566 ;; This function is called by:
  3567 ;;		_ADC_channel1
  3568 ;;		_ADC_channel2
  3569 ;; This function uses a non-reentrant model
  3570 ;;
  3571                           
  3572                           
  3573                           ;psect for function ___xxtofl
  3574  0F46                     ___xxtofl:
  3575                           
  3576                           ;incstack = 0
  3577                           ; Regs used in ___xxtofl: [wreg+status,2+status,0]
  3578                           ;___xxtofl@sign stored from wreg
  3579  0F46  00F8               	movwf	___xxtofl@sign
  3580  0F47                     l2161:
  3581  0F47  0878               	movf	___xxtofl@sign,w
  3582  0F48  1903               	btfsc	3,2
  3583  0F49  2F4B               	goto	u2261
  3584  0F4A  2F4C               	goto	u2260
  3585  0F4B                     u2261:
  3586  0F4B  2F60               	goto	l2167
  3587  0F4C                     u2260:
  3588  0F4C                     l2163:
  3589  0F4C  1FF3               	btfss	___xxtofl@val+3,7
  3590  0F4D  2F4F               	goto	u2271
  3591  0F4E  2F50               	goto	u2270
  3592  0F4F                     u2271:
  3593  0F4F  2F60               	goto	l2167
  3594  0F50                     u2270:
  3595  0F50                     l2165:
  3596  0F50  0970               	comf	___xxtofl@val,w
  3597  0F51  00FA               	movwf	___xxtofl@arg
  3598  0F52  0971               	comf	___xxtofl@val+1,w
  3599  0F53  00FB               	movwf	___xxtofl@arg+1
  3600  0F54  0972               	comf	___xxtofl@val+2,w
  3601  0F55  00FC               	movwf	___xxtofl@arg+2
  3602  0F56  0973               	comf	___xxtofl@val+3,w
  3603  0F57  00FD               	movwf	___xxtofl@arg+3
  3604  0F58  0AFA               	incf	___xxtofl@arg,f
  3605  0F59  1903               	skipnz
  3606  0F5A  0AFB               	incf	___xxtofl@arg+1,f
  3607  0F5B  1903               	skipnz
  3608  0F5C  0AFC               	incf	___xxtofl@arg+2,f
  3609  0F5D  1903               	skipnz
  3610  0F5E  0AFD               	incf	___xxtofl@arg+3,f
  3611  0F5F  2F68               	goto	l787
  3612  0F60                     l2167:
  3613  0F60  0873               	movf	___xxtofl@val+3,w
  3614  0F61  00FD               	movwf	___xxtofl@arg+3
  3615  0F62  0872               	movf	___xxtofl@val+2,w
  3616  0F63  00FC               	movwf	___xxtofl@arg+2
  3617  0F64  0871               	movf	___xxtofl@val+1,w
  3618  0F65  00FB               	movwf	___xxtofl@arg+1
  3619  0F66  0870               	movf	___xxtofl@val,w
  3620  0F67  00FA               	movwf	___xxtofl@arg
  3621  0F68                     l787:
  3622  0F68  0873               	movf	___xxtofl@val+3,w
  3623  0F69  0472               	iorwf	___xxtofl@val+2,w
  3624  0F6A  0471               	iorwf	___xxtofl@val+1,w
  3625  0F6B  0470               	iorwf	___xxtofl@val,w
  3626  0F6C  1D03               	skipz
  3627  0F6D  2F6F               	goto	u2281
  3628  0F6E  2F70               	goto	u2280
  3629  0F6F                     u2281:
  3630  0F6F  2F79               	goto	l2173
  3631  0F70                     u2280:
  3632  0F70                     l2169:
  3633  0F70  3000               	movlw	0
  3634  0F71  00F3               	movwf	?___xxtofl+3
  3635  0F72  3000               	movlw	0
  3636  0F73  00F2               	movwf	?___xxtofl+2
  3637  0F74  3000               	movlw	0
  3638  0F75  00F1               	movwf	?___xxtofl+1
  3639  0F76  3000               	movlw	0
  3640  0F77  00F0               	movwf	?___xxtofl
  3641  0F78  2FFF               	goto	l789
  3642  0F79                     l2173:
  3643  0F79  3096               	movlw	150
  3644  0F7A  00F4               	movwf	??___xxtofl
  3645  0F7B  0874               	movf	??___xxtofl,w
  3646  0F7C  00F9               	movwf	___xxtofl@exp
  3647  0F7D  2F8B               	goto	l2177
  3648  0F7E                     l2175:
  3649  0F7E  3001               	movlw	1
  3650  0F7F  00F4               	movwf	??___xxtofl
  3651  0F80  0874               	movf	??___xxtofl,w
  3652  0F81  07F9               	addwf	___xxtofl@exp,f
  3653  0F82  3001               	movlw	1
  3654  0F83                     u2295:
  3655  0F83  1003               	clrc
  3656  0F84  0CFD               	rrf	___xxtofl@arg+3,f
  3657  0F85  0CFC               	rrf	___xxtofl@arg+2,f
  3658  0F86  0CFB               	rrf	___xxtofl@arg+1,f
  3659  0F87  0CFA               	rrf	___xxtofl@arg,f
  3660  0F88  3EFF               	addlw	-1
  3661  0F89  1D03               	skipz
  3662  0F8A  2F83               	goto	u2295
  3663  0F8B                     l2177:
  3664  0F8B  30FE               	movlw	254
  3665  0F8C  057D               	andwf	___xxtofl@arg+3,w
  3666  0F8D  1D03               	btfss	3,2
  3667  0F8E  2F90               	goto	u2301
  3668  0F8F  2F91               	goto	u2300
  3669  0F90                     u2301:
  3670  0F90  2F7E               	goto	l2175
  3671  0F91                     u2300:
  3672  0F91  2FAD               	goto	l793
  3673  0F92                     l2179:
  3674  0F92  3001               	movlw	1
  3675  0F93  00F4               	movwf	??___xxtofl
  3676  0F94  0874               	movf	??___xxtofl,w
  3677  0F95  07F9               	addwf	___xxtofl@exp,f
  3678  0F96                     l2181:
  3679  0F96  3001               	movlw	1
  3680  0F97  07FA               	addwf	___xxtofl@arg,f
  3681  0F98  3000               	movlw	0
  3682  0F99  1803               	skipnc
  3683  0F9A  3001               	movlw	1
  3684  0F9B  07FB               	addwf	___xxtofl@arg+1,f
  3685  0F9C  3000               	movlw	0
  3686  0F9D  1803               	skipnc
  3687  0F9E  3001               	movlw	1
  3688  0F9F  07FC               	addwf	___xxtofl@arg+2,f
  3689  0FA0  3000               	movlw	0
  3690  0FA1  1803               	skipnc
  3691  0FA2  3001               	movlw	1
  3692  0FA3  07FD               	addwf	___xxtofl@arg+3,f
  3693  0FA4                     l2183:
  3694  0FA4  3001               	movlw	1
  3695  0FA5                     u2315:
  3696  0FA5  1003               	clrc
  3697  0FA6  0CFD               	rrf	___xxtofl@arg+3,f
  3698  0FA7  0CFC               	rrf	___xxtofl@arg+2,f
  3699  0FA8  0CFB               	rrf	___xxtofl@arg+1,f
  3700  0FA9  0CFA               	rrf	___xxtofl@arg,f
  3701  0FAA  3EFF               	addlw	-1
  3702  0FAB  1D03               	skipz
  3703  0FAC  2FA5               	goto	u2315
  3704  0FAD                     l793:
  3705  0FAD  30FF               	movlw	255
  3706  0FAE  057D               	andwf	___xxtofl@arg+3,w
  3707  0FAF  1D03               	btfss	3,2
  3708  0FB0  2FB2               	goto	u2321
  3709  0FB1  2FB3               	goto	u2320
  3710  0FB2                     u2321:
  3711  0FB2  2F92               	goto	l2179
  3712  0FB3                     u2320:
  3713  0FB3  2FBF               	goto	l2187
  3714  0FB4                     l2185:
  3715  0FB4  3001               	movlw	1
  3716  0FB5  02F9               	subwf	___xxtofl@exp,f
  3717  0FB6  3001               	movlw	1
  3718  0FB7  00F4               	movwf	??___xxtofl
  3719  0FB8                     u2335:
  3720  0FB8  1003               	clrc
  3721  0FB9  0DFA               	rlf	___xxtofl@arg,f
  3722  0FBA  0DFB               	rlf	___xxtofl@arg+1,f
  3723  0FBB  0DFC               	rlf	___xxtofl@arg+2,f
  3724  0FBC  0DFD               	rlf	___xxtofl@arg+3,f
  3725  0FBD  0BF4               	decfsz	??___xxtofl,f
  3726  0FBE  2FB8               	goto	u2335
  3727  0FBF                     l2187:
  3728  0FBF  1BFC               	btfsc	___xxtofl@arg+2,7
  3729  0FC0  2FC2               	goto	u2341
  3730  0FC1  2FC3               	goto	u2340
  3731  0FC2                     u2341:
  3732  0FC2  2FC9               	goto	l800
  3733  0FC3                     u2340:
  3734  0FC3                     l2189:
  3735  0FC3  3002               	movlw	2
  3736  0FC4  0279               	subwf	___xxtofl@exp,w
  3737  0FC5  1803               	skipnc
  3738  0FC6  2FC8               	goto	u2351
  3739  0FC7  2FC9               	goto	u2350
  3740  0FC8                     u2351:
  3741  0FC8  2FB4               	goto	l2185
  3742  0FC9                     u2350:
  3743  0FC9                     l800:
  3744  0FC9  1879               	btfsc	___xxtofl@exp,0
  3745  0FCA  2FCC               	goto	u2361
  3746  0FCB  2FCD               	goto	u2360
  3747  0FCC                     u2361:
  3748  0FCC  2FD5               	goto	l801
  3749  0FCD                     u2360:
  3750  0FCD                     l2191:
  3751  0FCD  30FF               	movlw	255
  3752  0FCE  05FA               	andwf	___xxtofl@arg,f
  3753  0FCF  30FF               	movlw	255
  3754  0FD0  05FB               	andwf	___xxtofl@arg+1,f
  3755  0FD1  307F               	movlw	127
  3756  0FD2  05FC               	andwf	___xxtofl@arg+2,f
  3757  0FD3  30FF               	movlw	255
  3758  0FD4  05FD               	andwf	___xxtofl@arg+3,f
  3759  0FD5                     l801:
  3760  0FD5  1003               	clrc
  3761  0FD6  0CF9               	rrf	___xxtofl@exp,f
  3762  0FD7                     l2193:
  3763  0FD7  0879               	movf	___xxtofl@exp,w
  3764  0FD8  00F4               	movwf	??___xxtofl
  3765  0FD9  01F5               	clrf	??___xxtofl+1
  3766  0FDA  01F6               	clrf	??___xxtofl+2
  3767  0FDB  01F7               	clrf	??___xxtofl+3
  3768  0FDC  3018               	movlw	24
  3769  0FDD                     u2375:
  3770  0FDD  1003               	clrc
  3771  0FDE  0DF4               	rlf	??___xxtofl,f
  3772  0FDF  0DF5               	rlf	??___xxtofl+1,f
  3773  0FE0  0DF6               	rlf	??___xxtofl+2,f
  3774  0FE1  0DF7               	rlf	??___xxtofl+3,f
  3775  0FE2                     u2370:
  3776  0FE2  3EFF               	addlw	-1
  3777  0FE3  1D03               	skipz
  3778  0FE4  2FDD               	goto	u2375
  3779  0FE5  0874               	movf	??___xxtofl,w
  3780  0FE6  04FA               	iorwf	___xxtofl@arg,f
  3781  0FE7  0875               	movf	??___xxtofl+1,w
  3782  0FE8  04FB               	iorwf	___xxtofl@arg+1,f
  3783  0FE9  0876               	movf	??___xxtofl+2,w
  3784  0FEA  04FC               	iorwf	___xxtofl@arg+2,f
  3785  0FEB  0877               	movf	??___xxtofl+3,w
  3786  0FEC  04FD               	iorwf	___xxtofl@arg+3,f
  3787  0FED                     l2195:
  3788  0FED  0878               	movf	___xxtofl@sign,w
  3789  0FEE  1903               	btfsc	3,2
  3790  0FEF  2FF1               	goto	u2381
  3791  0FF0  2FF2               	goto	u2380
  3792  0FF1                     u2381:
  3793  0FF1  2FF7               	goto	l2201
  3794  0FF2                     u2380:
  3795  0FF2                     l2197:
  3796  0FF2  1FF3               	btfss	___xxtofl@val+3,7
  3797  0FF3  2FF5               	goto	u2391
  3798  0FF4  2FF6               	goto	u2390
  3799  0FF5                     u2391:
  3800  0FF5  2FF7               	goto	l2201
  3801  0FF6                     u2390:
  3802  0FF6                     l2199:
  3803  0FF6  17FD               	bsf	___xxtofl@arg+3,7
  3804  0FF7                     l2201:
  3805  0FF7  087D               	movf	___xxtofl@arg+3,w
  3806  0FF8  00F3               	movwf	?___xxtofl+3
  3807  0FF9  087C               	movf	___xxtofl@arg+2,w
  3808  0FFA  00F2               	movwf	?___xxtofl+2
  3809  0FFB  087B               	movf	___xxtofl@arg+1,w
  3810  0FFC  00F1               	movwf	?___xxtofl+1
  3811  0FFD  087A               	movf	___xxtofl@arg,w
  3812  0FFE  00F0               	movwf	?___xxtofl
  3813  0FFF                     l789:
  3814  0FFF  0008               	return
  3815  1000                     __end_of___xxtofl:
  3816                           
  3817                           	psect	text21
  3818  048A                     __ptext21:	
  3819 ;; *************** function ___flmul *****************
  3820 ;; Defined at:
  3821 ;;		line 8 in file "C:\Program Files\Microchip\xc8\v2.31\pic\sources\c90\common\sprcmul.c"
  3822 ;; Parameters:    Size  Location     Type
  3823 ;;  b               4    0[BANK0 ] unsigned char 
  3824 ;;  a               4    4[BANK0 ] unsigned char 
  3825 ;; Auto vars:     Size  Location     Type
  3826 ;;  prod            4   20[BANK0 ] struct .
  3827 ;;  grs             4   14[BANK0 ] unsigned long 
  3828 ;;  temp            2   24[BANK0 ] struct .
  3829 ;;  bexp            1   19[BANK0 ] unsigned char 
  3830 ;;  aexp            1   18[BANK0 ] unsigned char 
  3831 ;;  sign            1   13[BANK0 ] unsigned char 
  3832 ;; Return value:  Size  Location     Type
  3833 ;;                  4    0[BANK0 ] unsigned char 
  3834 ;; Registers used:
  3835 ;;		wreg, status,2, status,0, btemp+1, pclath, cstack
  3836 ;; Tracked objects:
  3837 ;;		On entry : 0/0
  3838 ;;		On exit  : 0/0
  3839 ;;		Unchanged: 0/0
  3840 ;; Data sizes:     COMMON   BANK0   BANK1   BANK3   BANK2
  3841 ;;      Params:         0       8       0       0       0
  3842 ;;      Locals:         0      13       0       0       0
  3843 ;;      Temps:          0       5       0       0       0
  3844 ;;      Totals:         0      26       0       0       0
  3845 ;;Total ram usage:       26 bytes
  3846 ;; Hardware stack levels used:    1
  3847 ;; Hardware stack levels required when called:    1
  3848 ;; This function calls:
  3849 ;;		__Umul8_16
  3850 ;; This function is called by:
  3851 ;;		_ADC_channel1
  3852 ;;		_ADC_channel2
  3853 ;; This function uses a non-reentrant model
  3854 ;;
  3855                           
  3856                           
  3857                           ;psect for function ___flmul
  3858  048A                     ___flmul:
  3859  048A                     l2021:	
  3860                           ;incstack = 0
  3861                           ; Regs used in ___flmul: [wreg+status,2+status,0+btemp+1+pclath+cstack]
  3862                           
  3863  048A  1283               	bcf	3,5	;RP0=0, select bank0
  3864  048B  1303               	bcf	3,6	;RP1=0, select bank0
  3865  048C  0823               	movf	___flmul@b+3,w
  3866  048D  3980               	andlw	128
  3867  048E  00A8               	movwf	??___flmul
  3868  048F  0828               	movf	??___flmul,w
  3869  0490  00AD               	movwf	___flmul@sign
  3870  0491                     l2023:
  3871  0491  0823               	movf	___flmul@b+3,w
  3872  0492  00A8               	movwf	??___flmul
  3873  0493  0728               	addwf	??___flmul,w
  3874  0494  00A9               	movwf	??___flmul+1
  3875  0495  0829               	movf	??___flmul+1,w
  3876  0496  00B3               	movwf	___flmul@bexp
  3877  0497                     l2025:
  3878  0497  1FA2               	btfss	___flmul@b+2,7
  3879  0498  2C9A               	goto	u1891
  3880  0499  2C9B               	goto	u1890
  3881  049A                     u1891:
  3882  049A  2C9C               	goto	l2029
  3883  049B                     u1890:
  3884  049B                     l2027:
  3885  049B  1433               	bsf	___flmul@bexp,0
  3886  049C                     l2029:
  3887  049C  0833               	movf	___flmul@bexp,w
  3888  049D  1903               	btfsc	3,2
  3889  049E  2CA0               	goto	u1901
  3890  049F  2CA1               	goto	u1900
  3891  04A0                     u1901:
  3892  04A0  2CB0               	goto	l2037
  3893  04A1                     u1900:
  3894  04A1                     l2031:
  3895  04A1  0A33               	incf	___flmul@bexp,w
  3896  04A2  1D03               	btfss	3,2
  3897  04A3  2CA5               	goto	u1911
  3898  04A4  2CA6               	goto	u1910
  3899  04A5                     u1911:
  3900  04A5  2CAE               	goto	l2035
  3901  04A6                     u1910:
  3902  04A6                     l2033:
  3903  04A6  3000               	movlw	0
  3904  04A7  00A3               	movwf	___flmul@b+3
  3905  04A8  3000               	movlw	0
  3906  04A9  00A2               	movwf	___flmul@b+2
  3907  04AA  3000               	movlw	0
  3908  04AB  00A1               	movwf	___flmul@b+1
  3909  04AC  3000               	movlw	0
  3910  04AD  00A0               	movwf	___flmul@b
  3911  04AE                     l2035:
  3912  04AE  17A2               	bsf	___flmul@b+2,7
  3913  04AF  2CB8               	goto	l2039
  3914  04B0                     l2037:
  3915  04B0  3000               	movlw	0
  3916  04B1  00A3               	movwf	___flmul@b+3
  3917  04B2  3000               	movlw	0
  3918  04B3  00A2               	movwf	___flmul@b+2
  3919  04B4  3000               	movlw	0
  3920  04B5  00A1               	movwf	___flmul@b+1
  3921  04B6  3000               	movlw	0
  3922  04B7  00A0               	movwf	___flmul@b
  3923  04B8                     l2039:
  3924  04B8  0827               	movf	___flmul@a+3,w
  3925  04B9  3980               	andlw	128
  3926  04BA  00A8               	movwf	??___flmul
  3927  04BB  0828               	movf	??___flmul,w
  3928  04BC  06AD               	xorwf	___flmul@sign,f
  3929  04BD                     l2041:
  3930  04BD  0827               	movf	___flmul@a+3,w
  3931  04BE  00A8               	movwf	??___flmul
  3932  04BF  0728               	addwf	??___flmul,w
  3933  04C0  00A9               	movwf	??___flmul+1
  3934  04C1  0829               	movf	??___flmul+1,w
  3935  04C2  00B2               	movwf	___flmul@aexp
  3936  04C3                     l2043:
  3937  04C3  1FA6               	btfss	___flmul@a+2,7
  3938  04C4  2CC6               	goto	u1921
  3939  04C5  2CC7               	goto	u1920
  3940  04C6                     u1921:
  3941  04C6  2CC8               	goto	l2047
  3942  04C7                     u1920:
  3943  04C7                     l2045:
  3944  04C7  1432               	bsf	___flmul@aexp,0
  3945  04C8                     l2047:
  3946  04C8  0832               	movf	___flmul@aexp,w
  3947  04C9  1903               	btfsc	3,2
  3948  04CA  2CCC               	goto	u1931
  3949  04CB  2CCD               	goto	u1930
  3950  04CC                     u1931:
  3951  04CC  2CDC               	goto	l2055
  3952  04CD                     u1930:
  3953  04CD                     l2049:
  3954  04CD  0A32               	incf	___flmul@aexp,w
  3955  04CE  1D03               	btfss	3,2
  3956  04CF  2CD1               	goto	u1941
  3957  04D0  2CD2               	goto	u1940
  3958  04D1                     u1941:
  3959  04D1  2CDA               	goto	l2053
  3960  04D2                     u1940:
  3961  04D2                     l2051:
  3962  04D2  3000               	movlw	0
  3963  04D3  00A7               	movwf	___flmul@a+3
  3964  04D4  3000               	movlw	0
  3965  04D5  00A6               	movwf	___flmul@a+2
  3966  04D6  3000               	movlw	0
  3967  04D7  00A5               	movwf	___flmul@a+1
  3968  04D8  3000               	movlw	0
  3969  04D9  00A4               	movwf	___flmul@a
  3970  04DA                     l2053:
  3971  04DA  17A6               	bsf	___flmul@a+2,7
  3972  04DB  2CE4               	goto	l2057
  3973  04DC                     l2055:
  3974  04DC  3000               	movlw	0
  3975  04DD  00A7               	movwf	___flmul@a+3
  3976  04DE  3000               	movlw	0
  3977  04DF  00A6               	movwf	___flmul@a+2
  3978  04E0  3000               	movlw	0
  3979  04E1  00A5               	movwf	___flmul@a+1
  3980  04E2  3000               	movlw	0
  3981  04E3  00A4               	movwf	___flmul@a
  3982  04E4                     l2057:
  3983  04E4  0832               	movf	___flmul@aexp,w
  3984  04E5  1903               	btfsc	3,2
  3985  04E6  2CE8               	goto	u1951
  3986  04E7  2CE9               	goto	u1950
  3987  04E8                     u1951:
  3988  04E8  2CEE               	goto	l2061
  3989  04E9                     u1950:
  3990  04E9                     l2059:
  3991  04E9  0833               	movf	___flmul@bexp,w
  3992  04EA  1D03               	btfss	3,2
  3993  04EB  2CED               	goto	u1961
  3994  04EC  2CEE               	goto	u1960
  3995  04ED                     u1961:
  3996  04ED  2CF7               	goto	l2065
  3997  04EE                     u1960:
  3998  04EE                     l2061:
  3999  04EE  3000               	movlw	0
  4000  04EF  00A3               	movwf	?___flmul+3
  4001  04F0  3000               	movlw	0
  4002  04F1  00A2               	movwf	?___flmul+2
  4003  04F2  3000               	movlw	0
  4004  04F3  00A1               	movwf	?___flmul+1
  4005  04F4  3000               	movlw	0
  4006  04F5  00A0               	movwf	?___flmul
  4007  04F6  2FEA               	goto	l743
  4008  04F7                     l2065:
  4009  04F7  0820               	movf	___flmul@b,w
  4010  04F8  00A8               	movwf	??___flmul
  4011  04F9  0828               	movf	??___flmul,w
  4012  04FA  00F0               	movwf	__Umul8_16@multiplicand
  4013  04FB  0826               	movf	___flmul@a+2,w
  4014  04FC  120A  158A  24F0  120A  118A  	fcall	__Umul8_16
  4015  0501  0871               	movf	?__Umul8_16+1,w
  4016  0502  1283               	bcf	3,5	;RP0=0, select bank0
  4017  0503  1303               	bcf	3,6	;RP1=0, select bank0
  4018  0504  00B9               	movwf	___flmul@temp+1
  4019  0505  0870               	movf	?__Umul8_16,w
  4020  0506  00B8               	movwf	___flmul@temp
  4021  0507                     l2067:
  4022  0507  0838               	movf	___flmul@temp,w
  4023  0508  00A8               	movwf	??___flmul
  4024  0509  01A9               	clrf	??___flmul+1
  4025  050A  01AA               	clrf	??___flmul+2
  4026  050B  01AB               	clrf	??___flmul+3
  4027  050C  082B               	movf	??___flmul+3,w
  4028  050D  00B1               	movwf	___flmul@grs+3
  4029  050E  082A               	movf	??___flmul+2,w
  4030  050F  00B0               	movwf	___flmul@grs+2
  4031  0510  0829               	movf	??___flmul+1,w
  4032  0511  00AF               	movwf	___flmul@grs+1
  4033  0512  0828               	movf	??___flmul,w
  4034  0513  00AE               	movwf	___flmul@grs
  4035  0514                     l2069:
  4036  0514  0839               	movf	___flmul@temp+1,w
  4037  0515  00A8               	movwf	??___flmul
  4038  0516  01A9               	clrf	??___flmul+1
  4039  0517  01AA               	clrf	??___flmul+2
  4040  0518  01AB               	clrf	??___flmul+3
  4041  0519  082B               	movf	??___flmul+3,w
  4042  051A  00B7               	movwf	___flmul@prod+3
  4043  051B  082A               	movf	??___flmul+2,w
  4044  051C  00B6               	movwf	___flmul@prod+2
  4045  051D  0829               	movf	??___flmul+1,w
  4046  051E  00B5               	movwf	___flmul@prod+1
  4047  051F  0828               	movf	??___flmul,w
  4048  0520  00B4               	movwf	___flmul@prod
  4049  0521  0821               	movf	___flmul@b+1,w
  4050  0522  00A8               	movwf	??___flmul
  4051  0523  0828               	movf	??___flmul,w
  4052  0524  00F0               	movwf	__Umul8_16@multiplicand
  4053  0525  0825               	movf	___flmul@a+1,w
  4054  0526  120A  158A  24F0  120A  118A  	fcall	__Umul8_16
  4055  052B  0871               	movf	?__Umul8_16+1,w
  4056  052C  1283               	bcf	3,5	;RP0=0, select bank0
  4057  052D  1303               	bcf	3,6	;RP1=0, select bank0
  4058  052E  00B9               	movwf	___flmul@temp+1
  4059  052F  0870               	movf	?__Umul8_16,w
  4060  0530  00B8               	movwf	___flmul@temp
  4061  0531                     l2071:
  4062  0531  0838               	movf	___flmul@temp,w
  4063  0532  00A8               	movwf	??___flmul
  4064  0533  01A9               	clrf	??___flmul+1
  4065  0534  01AA               	clrf	??___flmul+2
  4066  0535  01AB               	clrf	??___flmul+3
  4067  0536  0828               	movf	??___flmul,w
  4068  0537  07AE               	addwf	___flmul@grs,f
  4069  0538  0829               	movf	??___flmul+1,w
  4070  0539  1103               	clrz
  4071  053A  1803               	skipnc
  4072  053B  3E01               	addlw	1
  4073  053C  1903               	skipnz
  4074  053D  2D3F               	goto	u1971
  4075  053E  07AF               	addwf	___flmul@grs+1,f
  4076  053F                     u1971:
  4077  053F  082A               	movf	??___flmul+2,w
  4078  0540  1103               	clrz
  4079  0541  1803               	skipnc
  4080  0542  3E01               	addlw	1
  4081  0543  1903               	skipnz
  4082  0544  2D46               	goto	u1972
  4083  0545  07B0               	addwf	___flmul@grs+2,f
  4084  0546                     u1972:
  4085  0546  082B               	movf	??___flmul+3,w
  4086  0547  1103               	clrz
  4087  0548  1803               	skipnc
  4088  0549  3E01               	addlw	1
  4089  054A  1903               	skipnz
  4090  054B  2D4D               	goto	u1973
  4091  054C  07B1               	addwf	___flmul@grs+3,f
  4092  054D                     u1973:
  4093  054D                     l2073:
  4094  054D  0839               	movf	___flmul@temp+1,w
  4095  054E  00A8               	movwf	??___flmul
  4096  054F  01A9               	clrf	??___flmul+1
  4097  0550  01AA               	clrf	??___flmul+2
  4098  0551  01AB               	clrf	??___flmul+3
  4099  0552  0828               	movf	??___flmul,w
  4100  0553  07B4               	addwf	___flmul@prod,f
  4101  0554  0829               	movf	??___flmul+1,w
  4102  0555  1103               	clrz
  4103  0556  1803               	skipnc
  4104  0557  3E01               	addlw	1
  4105  0558  1903               	skipnz
  4106  0559  2D5B               	goto	u1981
  4107  055A  07B5               	addwf	___flmul@prod+1,f
  4108  055B                     u1981:
  4109  055B  082A               	movf	??___flmul+2,w
  4110  055C  1103               	clrz
  4111  055D  1803               	skipnc
  4112  055E  3E01               	addlw	1
  4113  055F  1903               	skipnz
  4114  0560  2D62               	goto	u1982
  4115  0561  07B6               	addwf	___flmul@prod+2,f
  4116  0562                     u1982:
  4117  0562  082B               	movf	??___flmul+3,w
  4118  0563  1103               	clrz
  4119  0564  1803               	skipnc
  4120  0565  3E01               	addlw	1
  4121  0566  1903               	skipnz
  4122  0567  2D69               	goto	u1983
  4123  0568  07B7               	addwf	___flmul@prod+3,f
  4124  0569                     u1983:
  4125  0569  0822               	movf	___flmul@b+2,w
  4126  056A  00A8               	movwf	??___flmul
  4127  056B  0828               	movf	??___flmul,w
  4128  056C  00F0               	movwf	__Umul8_16@multiplicand
  4129  056D  0824               	movf	___flmul@a,w
  4130  056E  120A  158A  24F0  120A  118A  	fcall	__Umul8_16
  4131  0573  0871               	movf	?__Umul8_16+1,w
  4132  0574  1283               	bcf	3,5	;RP0=0, select bank0
  4133  0575  1303               	bcf	3,6	;RP1=0, select bank0
  4134  0576  00B9               	movwf	___flmul@temp+1
  4135  0577  0870               	movf	?__Umul8_16,w
  4136  0578  00B8               	movwf	___flmul@temp
  4137  0579                     l2075:
  4138  0579  0838               	movf	___flmul@temp,w
  4139  057A  00A8               	movwf	??___flmul
  4140  057B  01A9               	clrf	??___flmul+1
  4141  057C  01AA               	clrf	??___flmul+2
  4142  057D  01AB               	clrf	??___flmul+3
  4143  057E  0828               	movf	??___flmul,w
  4144  057F  07AE               	addwf	___flmul@grs,f
  4145  0580  0829               	movf	??___flmul+1,w
  4146  0581  1103               	clrz
  4147  0582  1803               	skipnc
  4148  0583  3E01               	addlw	1
  4149  0584  1903               	skipnz
  4150  0585  2D87               	goto	u1991
  4151  0586  07AF               	addwf	___flmul@grs+1,f
  4152  0587                     u1991:
  4153  0587  082A               	movf	??___flmul+2,w
  4154  0588  1103               	clrz
  4155  0589  1803               	skipnc
  4156  058A  3E01               	addlw	1
  4157  058B  1903               	skipnz
  4158  058C  2D8E               	goto	u1992
  4159  058D  07B0               	addwf	___flmul@grs+2,f
  4160  058E                     u1992:
  4161  058E  082B               	movf	??___flmul+3,w
  4162  058F  1103               	clrz
  4163  0590  1803               	skipnc
  4164  0591  3E01               	addlw	1
  4165  0592  1903               	skipnz
  4166  0593  2D95               	goto	u1993
  4167  0594  07B1               	addwf	___flmul@grs+3,f
  4168  0595                     u1993:
  4169  0595                     l2077:
  4170  0595  0839               	movf	___flmul@temp+1,w
  4171  0596  00A8               	movwf	??___flmul
  4172  0597  01A9               	clrf	??___flmul+1
  4173  0598  01AA               	clrf	??___flmul+2
  4174  0599  01AB               	clrf	??___flmul+3
  4175  059A  0828               	movf	??___flmul,w
  4176  059B  07B4               	addwf	___flmul@prod,f
  4177  059C  0829               	movf	??___flmul+1,w
  4178  059D  1103               	clrz
  4179  059E  1803               	skipnc
  4180  059F  3E01               	addlw	1
  4181  05A0  1903               	skipnz
  4182  05A1  2DA3               	goto	u2001
  4183  05A2  07B5               	addwf	___flmul@prod+1,f
  4184  05A3                     u2001:
  4185  05A3  082A               	movf	??___flmul+2,w
  4186  05A4  1103               	clrz
  4187  05A5  1803               	skipnc
  4188  05A6  3E01               	addlw	1
  4189  05A7  1903               	skipnz
  4190  05A8  2DAA               	goto	u2002
  4191  05A9  07B6               	addwf	___flmul@prod+2,f
  4192  05AA                     u2002:
  4193  05AA  082B               	movf	??___flmul+3,w
  4194  05AB  1103               	clrz
  4195  05AC  1803               	skipnc
  4196  05AD  3E01               	addlw	1
  4197  05AE  1903               	skipnz
  4198  05AF  2DB1               	goto	u2003
  4199  05B0  07B7               	addwf	___flmul@prod+3,f
  4200  05B1                     u2003:
  4201  05B1                     l2079:
  4202  05B1  3008               	movlw	8
  4203  05B2  00A8               	movwf	??___flmul
  4204  05B3                     u2015:
  4205  05B3  1003               	clrc
  4206  05B4  0DAE               	rlf	___flmul@grs,f
  4207  05B5  0DAF               	rlf	___flmul@grs+1,f
  4208  05B6  0DB0               	rlf	___flmul@grs+2,f
  4209  05B7  0DB1               	rlf	___flmul@grs+3,f
  4210  05B8  0BA8               	decfsz	??___flmul,f
  4211  05B9  2DB3               	goto	u2015
  4212  05BA                     l2081:
  4213  05BA  0821               	movf	___flmul@b+1,w
  4214  05BB  00A8               	movwf	??___flmul
  4215  05BC  0828               	movf	??___flmul,w
  4216  05BD  00F0               	movwf	__Umul8_16@multiplicand
  4217  05BE  0824               	movf	___flmul@a,w
  4218  05BF  120A  158A  24F0  120A  118A  	fcall	__Umul8_16
  4219  05C4  0871               	movf	?__Umul8_16+1,w
  4220  05C5  1283               	bcf	3,5	;RP0=0, select bank0
  4221  05C6  1303               	bcf	3,6	;RP1=0, select bank0
  4222  05C7  00B9               	movwf	___flmul@temp+1
  4223  05C8  0870               	movf	?__Umul8_16,w
  4224  05C9  00B8               	movwf	___flmul@temp
  4225  05CA                     l2083:
  4226  05CA  0838               	movf	___flmul@temp,w
  4227  05CB  00A8               	movwf	??___flmul
  4228  05CC  0839               	movf	___flmul@temp+1,w
  4229  05CD  00A9               	movwf	??___flmul+1
  4230  05CE  01AA               	clrf	??___flmul+2
  4231  05CF  01AB               	clrf	??___flmul+3
  4232  05D0  0828               	movf	??___flmul,w
  4233  05D1  07AE               	addwf	___flmul@grs,f
  4234  05D2  0829               	movf	??___flmul+1,w
  4235  05D3  1103               	clrz
  4236  05D4  1803               	skipnc
  4237  05D5  3E01               	addlw	1
  4238  05D6  1903               	skipnz
  4239  05D7  2DD9               	goto	u2021
  4240  05D8  07AF               	addwf	___flmul@grs+1,f
  4241  05D9                     u2021:
  4242  05D9  082A               	movf	??___flmul+2,w
  4243  05DA  1103               	clrz
  4244  05DB  1803               	skipnc
  4245  05DC  3E01               	addlw	1
  4246  05DD  1903               	skipnz
  4247  05DE  2DE0               	goto	u2022
  4248  05DF  07B0               	addwf	___flmul@grs+2,f
  4249  05E0                     u2022:
  4250  05E0  082B               	movf	??___flmul+3,w
  4251  05E1  1103               	clrz
  4252  05E2  1803               	skipnc
  4253  05E3  3E01               	addlw	1
  4254  05E4  1903               	skipnz
  4255  05E5  2DE7               	goto	u2023
  4256  05E6  07B1               	addwf	___flmul@grs+3,f
  4257  05E7                     u2023:
  4258  05E7                     l2085:
  4259  05E7  0820               	movf	___flmul@b,w
  4260  05E8  00A8               	movwf	??___flmul
  4261  05E9  0828               	movf	??___flmul,w
  4262  05EA  00F0               	movwf	__Umul8_16@multiplicand
  4263  05EB  0825               	movf	___flmul@a+1,w
  4264  05EC  120A  158A  24F0  120A  118A  	fcall	__Umul8_16
  4265  05F1  0871               	movf	?__Umul8_16+1,w
  4266  05F2  1283               	bcf	3,5	;RP0=0, select bank0
  4267  05F3  1303               	bcf	3,6	;RP1=0, select bank0
  4268  05F4  00B9               	movwf	___flmul@temp+1
  4269  05F5  0870               	movf	?__Umul8_16,w
  4270  05F6  00B8               	movwf	___flmul@temp
  4271  05F7                     l2087:
  4272  05F7  0838               	movf	___flmul@temp,w
  4273  05F8  00A8               	movwf	??___flmul
  4274  05F9  0839               	movf	___flmul@temp+1,w
  4275  05FA  00A9               	movwf	??___flmul+1
  4276  05FB  01AA               	clrf	??___flmul+2
  4277  05FC  01AB               	clrf	??___flmul+3
  4278  05FD  0828               	movf	??___flmul,w
  4279  05FE  07AE               	addwf	___flmul@grs,f
  4280  05FF  0829               	movf	??___flmul+1,w
  4281  0600  1103               	clrz
  4282  0601  1803               	skipnc
  4283  0602  3E01               	addlw	1
  4284  0603  1903               	skipnz
  4285  0604  2E06               	goto	u2031
  4286  0605  07AF               	addwf	___flmul@grs+1,f
  4287  0606                     u2031:
  4288  0606  082A               	movf	??___flmul+2,w
  4289  0607  1103               	clrz
  4290  0608  1803               	skipnc
  4291  0609  3E01               	addlw	1
  4292  060A  1903               	skipnz
  4293  060B  2E0D               	goto	u2032
  4294  060C  07B0               	addwf	___flmul@grs+2,f
  4295  060D                     u2032:
  4296  060D  082B               	movf	??___flmul+3,w
  4297  060E  1103               	clrz
  4298  060F  1803               	skipnc
  4299  0610  3E01               	addlw	1
  4300  0611  1903               	skipnz
  4301  0612  2E14               	goto	u2033
  4302  0613  07B1               	addwf	___flmul@grs+3,f
  4303  0614                     u2033:
  4304  0614                     l2089:
  4305  0614  3008               	movlw	8
  4306  0615  00A8               	movwf	??___flmul
  4307  0616                     u2045:
  4308  0616  1003               	clrc
  4309  0617  0DAE               	rlf	___flmul@grs,f
  4310  0618  0DAF               	rlf	___flmul@grs+1,f
  4311  0619  0DB0               	rlf	___flmul@grs+2,f
  4312  061A  0DB1               	rlf	___flmul@grs+3,f
  4313  061B  0BA8               	decfsz	??___flmul,f
  4314  061C  2E16               	goto	u2045
  4315  061D  0820               	movf	___flmul@b,w
  4316  061E  00A8               	movwf	??___flmul
  4317  061F  0828               	movf	??___flmul,w
  4318  0620  00F0               	movwf	__Umul8_16@multiplicand
  4319  0621  0824               	movf	___flmul@a,w
  4320  0622  120A  158A  24F0  120A  118A  	fcall	__Umul8_16
  4321  0627  0871               	movf	?__Umul8_16+1,w
  4322  0628  1283               	bcf	3,5	;RP0=0, select bank0
  4323  0629  1303               	bcf	3,6	;RP1=0, select bank0
  4324  062A  00B9               	movwf	___flmul@temp+1
  4325  062B  0870               	movf	?__Umul8_16,w
  4326  062C  00B8               	movwf	___flmul@temp
  4327  062D                     l2091:
  4328  062D  0838               	movf	___flmul@temp,w
  4329  062E  00A8               	movwf	??___flmul
  4330  062F  0839               	movf	___flmul@temp+1,w
  4331  0630  00A9               	movwf	??___flmul+1
  4332  0631  01AA               	clrf	??___flmul+2
  4333  0632  01AB               	clrf	??___flmul+3
  4334  0633  0828               	movf	??___flmul,w
  4335  0634  07AE               	addwf	___flmul@grs,f
  4336  0635  0829               	movf	??___flmul+1,w
  4337  0636  1103               	clrz
  4338  0637  1803               	skipnc
  4339  0638  3E01               	addlw	1
  4340  0639  1903               	skipnz
  4341  063A  2E3C               	goto	u2051
  4342  063B  07AF               	addwf	___flmul@grs+1,f
  4343  063C                     u2051:
  4344  063C  082A               	movf	??___flmul+2,w
  4345  063D  1103               	clrz
  4346  063E  1803               	skipnc
  4347  063F  3E01               	addlw	1
  4348  0640  1903               	skipnz
  4349  0641  2E43               	goto	u2052
  4350  0642  07B0               	addwf	___flmul@grs+2,f
  4351  0643                     u2052:
  4352  0643  082B               	movf	??___flmul+3,w
  4353  0644  1103               	clrz
  4354  0645  1803               	skipnc
  4355  0646  3E01               	addlw	1
  4356  0647  1903               	skipnz
  4357  0648  2E4A               	goto	u2053
  4358  0649  07B1               	addwf	___flmul@grs+3,f
  4359  064A                     u2053:
  4360  064A                     l2093:
  4361  064A  0821               	movf	___flmul@b+1,w
  4362  064B  00A8               	movwf	??___flmul
  4363  064C  0828               	movf	??___flmul,w
  4364  064D  00F0               	movwf	__Umul8_16@multiplicand
  4365  064E  0826               	movf	___flmul@a+2,w
  4366  064F  120A  158A  24F0  120A  118A  	fcall	__Umul8_16
  4367  0654  0871               	movf	?__Umul8_16+1,w
  4368  0655  1283               	bcf	3,5	;RP0=0, select bank0
  4369  0656  1303               	bcf	3,6	;RP1=0, select bank0
  4370  0657  00B9               	movwf	___flmul@temp+1
  4371  0658  0870               	movf	?__Umul8_16,w
  4372  0659  00B8               	movwf	___flmul@temp
  4373  065A  0838               	movf	___flmul@temp,w
  4374  065B  00A8               	movwf	??___flmul
  4375  065C  0839               	movf	___flmul@temp+1,w
  4376  065D  00A9               	movwf	??___flmul+1
  4377  065E  01AA               	clrf	??___flmul+2
  4378  065F  01AB               	clrf	??___flmul+3
  4379  0660  0828               	movf	??___flmul,w
  4380  0661  07B4               	addwf	___flmul@prod,f
  4381  0662  0829               	movf	??___flmul+1,w
  4382  0663  1103               	clrz
  4383  0664  1803               	skipnc
  4384  0665  3E01               	addlw	1
  4385  0666  1903               	skipnz
  4386  0667  2E69               	goto	u2061
  4387  0668  07B5               	addwf	___flmul@prod+1,f
  4388  0669                     u2061:
  4389  0669  082A               	movf	??___flmul+2,w
  4390  066A  1103               	clrz
  4391  066B  1803               	skipnc
  4392  066C  3E01               	addlw	1
  4393  066D  1903               	skipnz
  4394  066E  2E70               	goto	u2062
  4395  066F  07B6               	addwf	___flmul@prod+2,f
  4396  0670                     u2062:
  4397  0670  082B               	movf	??___flmul+3,w
  4398  0671  1103               	clrz
  4399  0672  1803               	skipnc
  4400  0673  3E01               	addlw	1
  4401  0674  1903               	skipnz
  4402  0675  2E77               	goto	u2063
  4403  0676  07B7               	addwf	___flmul@prod+3,f
  4404  0677                     u2063:
  4405  0677                     l2095:
  4406  0677  0822               	movf	___flmul@b+2,w
  4407  0678  00A8               	movwf	??___flmul
  4408  0679  0828               	movf	??___flmul,w
  4409  067A  00F0               	movwf	__Umul8_16@multiplicand
  4410  067B  0825               	movf	___flmul@a+1,w
  4411  067C  120A  158A  24F0  120A  118A  	fcall	__Umul8_16
  4412  0681  0871               	movf	?__Umul8_16+1,w
  4413  0682  1283               	bcf	3,5	;RP0=0, select bank0
  4414  0683  1303               	bcf	3,6	;RP1=0, select bank0
  4415  0684  00B9               	movwf	___flmul@temp+1
  4416  0685  0870               	movf	?__Umul8_16,w
  4417  0686  00B8               	movwf	___flmul@temp
  4418  0687                     l2097:
  4419  0687  0838               	movf	___flmul@temp,w
  4420  0688  00A8               	movwf	??___flmul
  4421  0689  0839               	movf	___flmul@temp+1,w
  4422  068A  00A9               	movwf	??___flmul+1
  4423  068B  01AA               	clrf	??___flmul+2
  4424  068C  01AB               	clrf	??___flmul+3
  4425  068D  0828               	movf	??___flmul,w
  4426  068E  07B4               	addwf	___flmul@prod,f
  4427  068F  0829               	movf	??___flmul+1,w
  4428  0690  1103               	clrz
  4429  0691  1803               	skipnc
  4430  0692  3E01               	addlw	1
  4431  0693  1903               	skipnz
  4432  0694  2E96               	goto	u2071
  4433  0695  07B5               	addwf	___flmul@prod+1,f
  4434  0696                     u2071:
  4435  0696  082A               	movf	??___flmul+2,w
  4436  0697  1103               	clrz
  4437  0698  1803               	skipnc
  4438  0699  3E01               	addlw	1
  4439  069A  1903               	skipnz
  4440  069B  2E9D               	goto	u2072
  4441  069C  07B6               	addwf	___flmul@prod+2,f
  4442  069D                     u2072:
  4443  069D  082B               	movf	??___flmul+3,w
  4444  069E  1103               	clrz
  4445  069F  1803               	skipnc
  4446  06A0  3E01               	addlw	1
  4447  06A1  1903               	skipnz
  4448  06A2  2EA4               	goto	u2073
  4449  06A3  07B7               	addwf	___flmul@prod+3,f
  4450  06A4                     u2073:
  4451  06A4  0822               	movf	___flmul@b+2,w
  4452  06A5  00A8               	movwf	??___flmul
  4453  06A6  0828               	movf	??___flmul,w
  4454  06A7  00F0               	movwf	__Umul8_16@multiplicand
  4455  06A8  0826               	movf	___flmul@a+2,w
  4456  06A9  120A  158A  24F0  120A  118A  	fcall	__Umul8_16
  4457  06AE  0871               	movf	?__Umul8_16+1,w
  4458  06AF  1283               	bcf	3,5	;RP0=0, select bank0
  4459  06B0  1303               	bcf	3,6	;RP1=0, select bank0
  4460  06B1  00B9               	movwf	___flmul@temp+1
  4461  06B2  0870               	movf	?__Umul8_16,w
  4462  06B3  00B8               	movwf	___flmul@temp
  4463  06B4                     l2099:
  4464  06B4  0838               	movf	___flmul@temp,w
  4465  06B5  00A8               	movwf	??___flmul
  4466  06B6  0839               	movf	___flmul@temp+1,w
  4467  06B7  00A9               	movwf	??___flmul+1
  4468  06B8  01AA               	clrf	??___flmul+2
  4469  06B9  01AB               	clrf	??___flmul+3
  4470  06BA  3008               	movlw	8
  4471  06BB                     u2085:
  4472  06BB  1003               	clrc
  4473  06BC  0DA8               	rlf	??___flmul,f
  4474  06BD  0DA9               	rlf	??___flmul+1,f
  4475  06BE  0DAA               	rlf	??___flmul+2,f
  4476  06BF  0DAB               	rlf	??___flmul+3,f
  4477  06C0                     u2080:
  4478  06C0  3EFF               	addlw	-1
  4479  06C1  1D03               	skipz
  4480  06C2  2EBB               	goto	u2085
  4481  06C3  0828               	movf	??___flmul,w
  4482  06C4  07B4               	addwf	___flmul@prod,f
  4483  06C5  0829               	movf	??___flmul+1,w
  4484  06C6  1103               	clrz
  4485  06C7  1803               	skipnc
  4486  06C8  3E01               	addlw	1
  4487  06C9  1903               	skipnz
  4488  06CA  2ECC               	goto	u2091
  4489  06CB  07B5               	addwf	___flmul@prod+1,f
  4490  06CC                     u2091:
  4491  06CC  082A               	movf	??___flmul+2,w
  4492  06CD  1103               	clrz
  4493  06CE  1803               	skipnc
  4494  06CF  3E01               	addlw	1
  4495  06D0  1903               	skipnz
  4496  06D1  2ED3               	goto	u2092
  4497  06D2  07B6               	addwf	___flmul@prod+2,f
  4498  06D3                     u2092:
  4499  06D3  082B               	movf	??___flmul+3,w
  4500  06D4  1103               	clrz
  4501  06D5  1803               	skipnc
  4502  06D6  3E01               	addlw	1
  4503  06D7  1903               	skipnz
  4504  06D8  2EDA               	goto	u2093
  4505  06D9  07B7               	addwf	___flmul@prod+3,f
  4506  06DA                     u2093:
  4507  06DA                     l2101:
  4508  06DA  082E               	movf	___flmul@grs,w
  4509  06DB  00A8               	movwf	??___flmul
  4510  06DC  082F               	movf	___flmul@grs+1,w
  4511  06DD  00A9               	movwf	??___flmul+1
  4512  06DE  0830               	movf	___flmul@grs+2,w
  4513  06DF  00AA               	movwf	??___flmul+2
  4514  06E0  0831               	movf	___flmul@grs+3,w
  4515  06E1  00AB               	movwf	??___flmul+3
  4516  06E2  3018               	movlw	24
  4517  06E3                     u2105:
  4518  06E3  1003               	clrc
  4519  06E4  0CAB               	rrf	??___flmul+3,f
  4520  06E5  0CAA               	rrf	??___flmul+2,f
  4521  06E6  0CA9               	rrf	??___flmul+1,f
  4522  06E7  0CA8               	rrf	??___flmul,f
  4523  06E8                     u2100:
  4524  06E8  3EFF               	addlw	-1
  4525  06E9  1D03               	skipz
  4526  06EA  2EE3               	goto	u2105
  4527  06EB  0828               	movf	??___flmul,w
  4528  06EC  07B4               	addwf	___flmul@prod,f
  4529  06ED  0829               	movf	??___flmul+1,w
  4530  06EE  1103               	clrz
  4531  06EF  1803               	skipnc
  4532  06F0  3E01               	addlw	1
  4533  06F1  1903               	skipnz
  4534  06F2  2EF4               	goto	u2111
  4535  06F3  07B5               	addwf	___flmul@prod+1,f
  4536  06F4                     u2111:
  4537  06F4  082A               	movf	??___flmul+2,w
  4538  06F5  1103               	clrz
  4539  06F6  1803               	skipnc
  4540  06F7  3E01               	addlw	1
  4541  06F8  1903               	skipnz
  4542  06F9  2EFB               	goto	u2112
  4543  06FA  07B6               	addwf	___flmul@prod+2,f
  4544  06FB                     u2112:
  4545  06FB  082B               	movf	??___flmul+3,w
  4546  06FC  1103               	clrz
  4547  06FD  1803               	skipnc
  4548  06FE  3E01               	addlw	1
  4549  06FF  1903               	skipnz
  4550  0700  2F02               	goto	u2113
  4551  0701  07B7               	addwf	___flmul@prod+3,f
  4552  0702                     u2113:
  4553  0702                     l2103:
  4554  0702  3008               	movlw	8
  4555  0703  00A8               	movwf	??___flmul
  4556  0704                     u2125:
  4557  0704  1003               	clrc
  4558  0705  0DAE               	rlf	___flmul@grs,f
  4559  0706  0DAF               	rlf	___flmul@grs+1,f
  4560  0707  0DB0               	rlf	___flmul@grs+2,f
  4561  0708  0DB1               	rlf	___flmul@grs+3,f
  4562  0709  0BA8               	decfsz	??___flmul,f
  4563  070A  2F04               	goto	u2125
  4564  070B                     l2105:
  4565  070B  0833               	movf	___flmul@bexp,w
  4566  070C  0732               	addwf	___flmul@aexp,w
  4567  070D  00A8               	movwf	??___flmul
  4568  070E  01A9               	clrf	??___flmul+1
  4569  070F  0DA9               	rlf	??___flmul+1,f
  4570  0710  0828               	movf	??___flmul,w
  4571  0711  3E82               	addlw	130
  4572  0712  00B8               	movwf	___flmul@temp
  4573  0713  0829               	movf	??___flmul+1,w
  4574  0714  1803               	skipnc
  4575  0715  3E01               	addlw	1
  4576  0716  3EFF               	addlw	255
  4577  0717  00B9               	movwf	___flmul@temp+1
  4578  0718  2F36               	goto	l2117
  4579  0719                     l2107:
  4580  0719  3001               	movlw	1
  4581  071A  00A8               	movwf	??___flmul
  4582  071B                     u2135:
  4583  071B  1003               	clrc
  4584  071C  0DB4               	rlf	___flmul@prod,f
  4585  071D  0DB5               	rlf	___flmul@prod+1,f
  4586  071E  0DB6               	rlf	___flmul@prod+2,f
  4587  071F  0DB7               	rlf	___flmul@prod+3,f
  4588  0720  0BA8               	decfsz	??___flmul,f
  4589  0721  2F1B               	goto	u2135
  4590  0722                     l2109:
  4591  0722  1FB1               	btfss	___flmul@grs+3,7
  4592  0723  2F25               	goto	u2141
  4593  0724  2F26               	goto	u2140
  4594  0725                     u2141:
  4595  0725  2F27               	goto	l2113
  4596  0726                     u2140:
  4597  0726                     l2111:
  4598  0726  1434               	bsf	___flmul@prod,0
  4599  0727                     l2113:
  4600  0727  3001               	movlw	1
  4601  0728  00A8               	movwf	??___flmul
  4602  0729                     u2155:
  4603  0729  1003               	clrc
  4604  072A  0DAE               	rlf	___flmul@grs,f
  4605  072B  0DAF               	rlf	___flmul@grs+1,f
  4606  072C  0DB0               	rlf	___flmul@grs+2,f
  4607  072D  0DB1               	rlf	___flmul@grs+3,f
  4608  072E  0BA8               	decfsz	??___flmul,f
  4609  072F  2F29               	goto	u2155
  4610  0730                     l2115:
  4611  0730  30FF               	movlw	255
  4612  0731  07B8               	addwf	___flmul@temp,f
  4613  0732  1803               	skipnc
  4614  0733  0AB9               	incf	___flmul@temp+1,f
  4615  0734  30FF               	movlw	255
  4616  0735  07B9               	addwf	___flmul@temp+1,f
  4617  0736                     l2117:
  4618  0736  1FB6               	btfss	___flmul@prod+2,7
  4619  0737  2F39               	goto	u2161
  4620  0738  2F3A               	goto	u2160
  4621  0739                     u2161:
  4622  0739  2F19               	goto	l2107
  4623  073A                     u2160:
  4624  073A                     l2119:
  4625  073A  01B2               	clrf	___flmul@aexp
  4626  073B                     l2121:
  4627  073B  1FB1               	btfss	___flmul@grs+3,7
  4628  073C  2F3E               	goto	u2171
  4629  073D  2F3F               	goto	u2170
  4630  073E                     u2171:
  4631  073E  2F5B               	goto	l2129
  4632  073F                     u2170:
  4633  073F                     l2123:
  4634  073F  30FF               	movlw	255
  4635  0740  052E               	andwf	___flmul@grs,w
  4636  0741  00A8               	movwf	??___flmul
  4637  0742  30FF               	movlw	255
  4638  0743  052F               	andwf	___flmul@grs+1,w
  4639  0744  00A9               	movwf	??___flmul+1
  4640  0745  30FF               	movlw	255
  4641  0746  0530               	andwf	___flmul@grs+2,w
  4642  0747  00AA               	movwf	??___flmul+2
  4643  0748  307F               	movlw	127
  4644  0749  0531               	andwf	___flmul@grs+3,w
  4645  074A  00AB               	movwf	??___flmul+3
  4646  074B  082B               	movf	??___flmul+3,w
  4647  074C  042A               	iorwf	??___flmul+2,w
  4648  074D  0429               	iorwf	??___flmul+1,w
  4649  074E  0428               	iorwf	??___flmul,w
  4650  074F  1903               	skipnz
  4651  0750  2F52               	goto	u2181
  4652  0751  2F53               	goto	u2180
  4653  0752                     u2181:
  4654  0752  2F56               	goto	l749
  4655  0753                     u2180:
  4656  0753                     l2125:
  4657  0753  01B2               	clrf	___flmul@aexp
  4658  0754  0AB2               	incf	___flmul@aexp,f
  4659  0755  2F5B               	goto	l2129
  4660  0756                     l749:
  4661  0756  1C34               	btfss	___flmul@prod,0
  4662  0757  2F59               	goto	u2191
  4663  0758  2F5A               	goto	u2190
  4664  0759                     u2191:
  4665  0759  2F5B               	goto	l2129
  4666  075A                     u2190:
  4667  075A  2F53               	goto	l2125
  4668  075B                     l2129:
  4669  075B  0832               	movf	___flmul@aexp,w
  4670  075C  1903               	btfsc	3,2
  4671  075D  2F5F               	goto	u2201
  4672  075E  2F60               	goto	u2200
  4673  075F                     u2201:
  4674  075F  2F91               	goto	l2139
  4675  0760                     u2200:
  4676  0760                     l2131:
  4677  0760  3001               	movlw	1
  4678  0761  07B4               	addwf	___flmul@prod,f
  4679  0762  3000               	movlw	0
  4680  0763  1803               	skipnc
  4681  0764  3001               	movlw	1
  4682  0765  07B5               	addwf	___flmul@prod+1,f
  4683  0766  3000               	movlw	0
  4684  0767  1803               	skipnc
  4685  0768  3001               	movlw	1
  4686  0769  07B6               	addwf	___flmul@prod+2,f
  4687  076A  3000               	movlw	0
  4688  076B  1803               	skipnc
  4689  076C  3001               	movlw	1
  4690  076D  07B7               	addwf	___flmul@prod+3,f
  4691  076E                     l2133:
  4692  076E  1C37               	btfss	___flmul@prod+3,0
  4693  076F  2F71               	goto	u2211
  4694  0770  2F72               	goto	u2210
  4695  0771                     u2211:
  4696  0771  2F91               	goto	l2139
  4697  0772                     u2210:
  4698  0772                     l2135:
  4699  0772  0834               	movf	___flmul@prod,w
  4700  0773  00A8               	movwf	??___flmul
  4701  0774  0835               	movf	___flmul@prod+1,w
  4702  0775  00A9               	movwf	??___flmul+1
  4703  0776  0836               	movf	___flmul@prod+2,w
  4704  0777  00AA               	movwf	??___flmul+2
  4705  0778  0837               	movf	___flmul@prod+3,w
  4706  0779  00AB               	movwf	??___flmul+3
  4707  077A  3001               	movlw	1
  4708  077B  00AC               	movwf	??___flmul+4
  4709  077C                     u2225:
  4710  077C  0D2B               	rlf	??___flmul+3,w
  4711  077D  0CAB               	rrf	??___flmul+3,f
  4712  077E  0CAA               	rrf	??___flmul+2,f
  4713  077F  0CA9               	rrf	??___flmul+1,f
  4714  0780  0CA8               	rrf	??___flmul,f
  4715  0781                     u2220:
  4716  0781  0BAC               	decfsz	??___flmul+4,f
  4717  0782  2F7C               	goto	u2225
  4718  0783  082B               	movf	??___flmul+3,w
  4719  0784  00B7               	movwf	___flmul@prod+3
  4720  0785  082A               	movf	??___flmul+2,w
  4721  0786  00B6               	movwf	___flmul@prod+2
  4722  0787  0829               	movf	??___flmul+1,w
  4723  0788  00B5               	movwf	___flmul@prod+1
  4724  0789  0828               	movf	??___flmul,w
  4725  078A  00B4               	movwf	___flmul@prod
  4726  078B                     l2137:
  4727  078B  3001               	movlw	1
  4728  078C  07B8               	addwf	___flmul@temp,f
  4729  078D  1803               	skipnc
  4730  078E  0AB9               	incf	___flmul@temp+1,f
  4731  078F  3000               	movlw	0
  4732  0790  07B9               	addwf	___flmul@temp+1,f
  4733  0791                     l2139:
  4734  0791  0839               	movf	___flmul@temp+1,w
  4735  0792  3A80               	xorlw	128
  4736  0793  00FF               	movwf	btemp+1
  4737  0794  3080               	movlw	128
  4738  0795  027F               	subwf	btemp+1,w
  4739  0796  1D03               	skipz
  4740  0797  2F9A               	goto	u2235
  4741  0798  30FF               	movlw	255
  4742  0799  0238               	subwf	___flmul@temp,w
  4743  079A                     u2235:
  4744  079A  1C03               	skipc
  4745  079B  2F9D               	goto	u2231
  4746  079C  2F9E               	goto	u2230
  4747  079D                     u2231:
  4748  079D  2FA9               	goto	l2143
  4749  079E                     u2230:
  4750  079E                     l2141:
  4751  079E  307F               	movlw	127
  4752  079F  1283               	bcf	3,5	;RP0=0, select bank0
  4753  07A0  1303               	bcf	3,6	;RP1=0, select bank0
  4754  07A1  00B7               	movwf	___flmul@prod+3
  4755  07A2  3080               	movlw	128
  4756  07A3  00B6               	movwf	___flmul@prod+2
  4757  07A4  3000               	movlw	0
  4758  07A5  00B5               	movwf	___flmul@prod+1
  4759  07A6  3000               	movlw	0
  4760  07A7  00B4               	movwf	___flmul@prod
  4761  07A8  2FDE               	goto	l755
  4762  07A9                     l2143:
  4763  07A9  1283               	bcf	3,5	;RP0=0, select bank0
  4764  07AA  1303               	bcf	3,6	;RP1=0, select bank0
  4765  07AB  0839               	movf	___flmul@temp+1,w
  4766  07AC  3A80               	xorlw	128
  4767  07AD  00FF               	movwf	btemp+1
  4768  07AE  3080               	movlw	128
  4769  07AF  027F               	subwf	btemp+1,w
  4770  07B0  1D03               	skipz
  4771  07B1  2FB4               	goto	u2245
  4772  07B2  3001               	movlw	1
  4773  07B3  0238               	subwf	___flmul@temp,w
  4774  07B4                     u2245:
  4775  07B4  1803               	skipnc
  4776  07B5  2FB7               	goto	u2241
  4777  07B6  2FB8               	goto	u2240
  4778  07B7                     u2241:
  4779  07B7  2FC4               	goto	l2149
  4780  07B8                     u2240:
  4781  07B8                     l2145:
  4782  07B8  3000               	movlw	0
  4783  07B9  1283               	bcf	3,5	;RP0=0, select bank0
  4784  07BA  1303               	bcf	3,6	;RP1=0, select bank0
  4785  07BB  00B7               	movwf	___flmul@prod+3
  4786  07BC  3000               	movlw	0
  4787  07BD  00B6               	movwf	___flmul@prod+2
  4788  07BE  3000               	movlw	0
  4789  07BF  00B5               	movwf	___flmul@prod+1
  4790  07C0  3000               	movlw	0
  4791  07C1  00B4               	movwf	___flmul@prod
  4792  07C2                     l2147:
  4793  07C2  01AD               	clrf	___flmul@sign
  4794  07C3  2FDE               	goto	l755
  4795  07C4                     l2149:
  4796  07C4  1283               	bcf	3,5	;RP0=0, select bank0
  4797  07C5  1303               	bcf	3,6	;RP1=0, select bank0
  4798  07C6  0838               	movf	___flmul@temp,w
  4799  07C7  00A8               	movwf	??___flmul
  4800  07C8  0828               	movf	??___flmul,w
  4801  07C9  00B3               	movwf	___flmul@bexp
  4802  07CA  30FF               	movlw	255
  4803  07CB  05B4               	andwf	___flmul@prod,f
  4804  07CC  30FF               	movlw	255
  4805  07CD  05B5               	andwf	___flmul@prod+1,f
  4806  07CE  307F               	movlw	127
  4807  07CF  05B6               	andwf	___flmul@prod+2,f
  4808  07D0  3000               	movlw	0
  4809  07D1  05B7               	andwf	___flmul@prod+3,f
  4810  07D2                     l2151:
  4811  07D2  1C33               	btfss	___flmul@bexp,0
  4812  07D3  2FD5               	goto	u2251
  4813  07D4  2FD6               	goto	u2250
  4814  07D5                     u2251:
  4815  07D5  2FD7               	goto	l2155
  4816  07D6                     u2250:
  4817  07D6                     l2153:
  4818  07D6  17B6               	bsf	___flmul@prod+2,7
  4819  07D7                     l2155:
  4820  07D7  0833               	movf	___flmul@bexp,w
  4821  07D8  00A8               	movwf	??___flmul
  4822  07D9  1003               	clrc
  4823  07DA  0C28               	rrf	??___flmul,w
  4824  07DB  00A9               	movwf	??___flmul+1
  4825  07DC  0829               	movf	??___flmul+1,w
  4826  07DD  00B7               	movwf	___flmul@prod+3
  4827  07DE                     l755:
  4828  07DE  082D               	movf	___flmul@sign,w
  4829  07DF  00A8               	movwf	??___flmul
  4830  07E0  0828               	movf	??___flmul,w
  4831  07E1  04B7               	iorwf	___flmul@prod+3,f
  4832  07E2                     l2157:
  4833  07E2  0837               	movf	___flmul@prod+3,w
  4834  07E3  00A3               	movwf	?___flmul+3
  4835  07E4  0836               	movf	___flmul@prod+2,w
  4836  07E5  00A2               	movwf	?___flmul+2
  4837  07E6  0835               	movf	___flmul@prod+1,w
  4838  07E7  00A1               	movwf	?___flmul+1
  4839  07E8  0834               	movf	___flmul@prod,w
  4840  07E9  00A0               	movwf	?___flmul
  4841  07EA                     l743:
  4842  07EA  0008               	return
  4843  07EB                     __end_of___flmul:
  4844                           
  4845                           	psect	text22
  4846  0CF0                     __ptext22:	
  4847 ;; *************** function __Umul8_16 *****************
  4848 ;; Defined at:
  4849 ;;		line 4 in file "C:\Program Files\Microchip\xc8\v2.31\pic\sources\c90\common\Umul8_16.c"
  4850 ;; Parameters:    Size  Location     Type
  4851 ;;  multiplier      1    wreg     unsigned char 
  4852 ;;  multiplicand    1    0[COMMON] unsigned char 
  4853 ;; Auto vars:     Size  Location     Type
  4854 ;;  multiplier      1    8[COMMON] unsigned char 
  4855 ;;  word_mpld       2    6[COMMON] unsigned int 
  4856 ;;  product         2    4[COMMON] unsigned int 
  4857 ;; Return value:  Size  Location     Type
  4858 ;;                  2    0[COMMON] unsigned int 
  4859 ;; Registers used:
  4860 ;;		wreg, status,2, status,0
  4861 ;; Tracked objects:
  4862 ;;		On entry : 0/0
  4863 ;;		On exit  : 0/0
  4864 ;;		Unchanged: 0/0
  4865 ;; Data sizes:     COMMON   BANK0   BANK1   BANK3   BANK2
  4866 ;;      Params:         2       0       0       0       0
  4867 ;;      Locals:         5       0       0       0       0
  4868 ;;      Temps:          2       0       0       0       0
  4869 ;;      Totals:         9       0       0       0       0
  4870 ;;Total ram usage:        9 bytes
  4871 ;; Hardware stack levels used:    1
  4872 ;; This function calls:
  4873 ;;		Nothing
  4874 ;; This function is called by:
  4875 ;;		___flmul
  4876 ;; This function uses a non-reentrant model
  4877 ;;
  4878                           
  4879                           
  4880                           ;psect for function __Umul8_16
  4881  0CF0                     __Umul8_16:
  4882                           
  4883                           ;incstack = 0
  4884                           ; Regs used in __Umul8_16: [wreg+status,2+status,0]
  4885                           ;__Umul8_16@multiplier stored from wreg
  4886  0CF0  00F8               	movwf	__Umul8_16@multiplier
  4887  0CF1                     l1727:
  4888  0CF1  01F4               	clrf	__Umul8_16@product
  4889  0CF2  01F5               	clrf	__Umul8_16@product+1
  4890  0CF3                     l1729:
  4891  0CF3  0870               	movf	__Umul8_16@multiplicand,w
  4892  0CF4  00F2               	movwf	??__Umul8_16
  4893  0CF5  01F3               	clrf	??__Umul8_16+1
  4894  0CF6  0872               	movf	??__Umul8_16,w
  4895  0CF7  00F6               	movwf	__Umul8_16@word_mpld
  4896  0CF8  0873               	movf	??__Umul8_16+1,w
  4897  0CF9  00F7               	movwf	__Umul8_16@word_mpld+1
  4898  0CFA                     l1731:
  4899  0CFA  1C78               	btfss	__Umul8_16@multiplier,0
  4900  0CFB  2CFD               	goto	u1391
  4901  0CFC  2CFE               	goto	u1390
  4902  0CFD                     u1391:
  4903  0CFD  2D04               	goto	l762
  4904  0CFE                     u1390:
  4905  0CFE                     l1733:
  4906  0CFE  0876               	movf	__Umul8_16@word_mpld,w
  4907  0CFF  07F4               	addwf	__Umul8_16@product,f
  4908  0D00  1803               	skipnc
  4909  0D01  0AF5               	incf	__Umul8_16@product+1,f
  4910  0D02  0877               	movf	__Umul8_16@word_mpld+1,w
  4911  0D03  07F5               	addwf	__Umul8_16@product+1,f
  4912  0D04                     l762:
  4913  0D04  3001               	movlw	1
  4914  0D05                     u1405:
  4915  0D05  1003               	clrc
  4916  0D06  0DF6               	rlf	__Umul8_16@word_mpld,f
  4917  0D07  0DF7               	rlf	__Umul8_16@word_mpld+1,f
  4918  0D08  3EFF               	addlw	-1
  4919  0D09  1D03               	skipz
  4920  0D0A  2D05               	goto	u1405
  4921  0D0B  1003               	clrc
  4922  0D0C  0CF8               	rrf	__Umul8_16@multiplier,f
  4923  0D0D                     l1735:
  4924  0D0D  0878               	movf	__Umul8_16@multiplier,w
  4925  0D0E  1D03               	btfss	3,2
  4926  0D0F  2D11               	goto	u1411
  4927  0D10  2D12               	goto	u1410
  4928  0D11                     u1411:
  4929  0D11  2CFA               	goto	l1731
  4930  0D12                     u1410:
  4931  0D12                     l1737:
  4932  0D12  0875               	movf	__Umul8_16@product+1,w
  4933  0D13  00F1               	movwf	?__Umul8_16+1
  4934  0D14  0874               	movf	__Umul8_16@product,w
  4935  0D15  00F0               	movwf	?__Umul8_16
  4936  0D16                     l764:
  4937  0D16  0008               	return
  4938  0D17                     __end_of__Umul8_16:
  4939                           
  4940                           	psect	text23
  4941  02AD                     __ptext23:	
  4942 ;; *************** function ___fldiv *****************
  4943 ;; Defined at:
  4944 ;;		line 8 in file "C:\Program Files\Microchip\xc8\v2.31\pic\sources\c90\common\sprcdiv.c"
  4945 ;; Parameters:    Size  Location     Type
  4946 ;;  a               4   26[BANK0 ] unsigned int 
  4947 ;;  b               4   30[BANK0 ] unsigned int 
  4948 ;; Auto vars:     Size  Location     Type
  4949 ;;  grs             4   46[BANK0 ] unsigned long 
  4950 ;;  rem             4   39[BANK0 ] unsigned long 
  4951 ;;  new_exp         2   44[BANK0 ] int 
  4952 ;;  aexp            1   51[BANK0 ] unsigned char 
  4953 ;;  bexp            1   50[BANK0 ] unsigned char 
  4954 ;;  sign            1   43[BANK0 ] unsigned char 
  4955 ;; Return value:  Size  Location     Type
  4956 ;;                  4   26[BANK0 ] unsigned char 
  4957 ;; Registers used:
  4958 ;;		wreg, status,2, status,0, btemp+1
  4959 ;; Tracked objects:
  4960 ;;		On entry : 0/0
  4961 ;;		On exit  : 0/0
  4962 ;;		Unchanged: 0/0
  4963 ;; Data sizes:     COMMON   BANK0   BANK1   BANK3   BANK2
  4964 ;;      Params:         0       8       0       0       0
  4965 ;;      Locals:         0      13       0       0       0
  4966 ;;      Temps:          0       5       0       0       0
  4967 ;;      Totals:         0      26       0       0       0
  4968 ;;Total ram usage:       26 bytes
  4969 ;; Hardware stack levels used:    1
  4970 ;; This function calls:
  4971 ;;		Nothing
  4972 ;; This function is called by:
  4973 ;;		_ADC_channel1
  4974 ;;		_ADC_channel2
  4975 ;; This function uses a non-reentrant model
  4976 ;;
  4977                           
  4978                           
  4979                           ;psect for function ___fldiv
  4980  02AD                     ___fldiv:
  4981  02AD                     l1879:	
  4982                           ;incstack = 0
  4983                           ; Regs used in ___fldiv: [wreg+status,2+status,0+btemp+1]
  4984                           
  4985  02AD  1283               	bcf	3,5	;RP0=0, select bank0
  4986  02AE  1303               	bcf	3,6	;RP1=0, select bank0
  4987  02AF  0841               	movf	___fldiv@b+3,w
  4988  02B0  3980               	andlw	128
  4989  02B1  00C2               	movwf	??___fldiv
  4990  02B2  0842               	movf	??___fldiv,w
  4991  02B3  00CB               	movwf	___fldiv@sign
  4992  02B4                     l1881:
  4993  02B4  0841               	movf	___fldiv@b+3,w
  4994  02B5  00C2               	movwf	??___fldiv
  4995  02B6  0742               	addwf	??___fldiv,w
  4996  02B7  00C3               	movwf	??___fldiv+1
  4997  02B8  0843               	movf	??___fldiv+1,w
  4998  02B9  00D2               	movwf	___fldiv@bexp
  4999  02BA                     l1883:
  5000  02BA  1FC0               	btfss	___fldiv@b+2,7
  5001  02BB  2ABD               	goto	u1601
  5002  02BC  2ABE               	goto	u1600
  5003  02BD                     u1601:
  5004  02BD  2ABF               	goto	l1887
  5005  02BE                     u1600:
  5006  02BE                     l1885:
  5007  02BE  1452               	bsf	___fldiv@bexp,0
  5008  02BF                     l1887:
  5009  02BF  0852               	movf	___fldiv@bexp,w
  5010  02C0  1903               	btfsc	3,2
  5011  02C1  2AC3               	goto	u1611
  5012  02C2  2AC4               	goto	u1610
  5013  02C3                     u1611:
  5014  02C3  2AD4               	goto	l1897
  5015  02C4                     u1610:
  5016  02C4                     l1889:
  5017  02C4  0A52               	incf	___fldiv@bexp,w
  5018  02C5  1D03               	btfss	3,2
  5019  02C6  2AC8               	goto	u1621
  5020  02C7  2AC9               	goto	u1620
  5021  02C8                     u1621:
  5022  02C8  2AD1               	goto	l1893
  5023  02C9                     u1620:
  5024  02C9                     l1891:
  5025  02C9  3000               	movlw	0
  5026  02CA  00C1               	movwf	___fldiv@b+3
  5027  02CB  3000               	movlw	0
  5028  02CC  00C0               	movwf	___fldiv@b+2
  5029  02CD  3000               	movlw	0
  5030  02CE  00BF               	movwf	___fldiv@b+1
  5031  02CF  3000               	movlw	0
  5032  02D0  00BE               	movwf	___fldiv@b
  5033  02D1                     l1893:
  5034  02D1  17C0               	bsf	___fldiv@b+2,7
  5035  02D2                     l1895:
  5036  02D2  01C1               	clrf	___fldiv@b+3
  5037  02D3  2ADC               	goto	l1899
  5038  02D4                     l1897:
  5039  02D4  3000               	movlw	0
  5040  02D5  00C1               	movwf	___fldiv@b+3
  5041  02D6  3000               	movlw	0
  5042  02D7  00C0               	movwf	___fldiv@b+2
  5043  02D8  3000               	movlw	0
  5044  02D9  00BF               	movwf	___fldiv@b+1
  5045  02DA  3000               	movlw	0
  5046  02DB  00BE               	movwf	___fldiv@b
  5047  02DC                     l1899:
  5048  02DC  083D               	movf	___fldiv@a+3,w
  5049  02DD  3980               	andlw	128
  5050  02DE  00C2               	movwf	??___fldiv
  5051  02DF  0842               	movf	??___fldiv,w
  5052  02E0  06CB               	xorwf	___fldiv@sign,f
  5053  02E1                     l1901:
  5054  02E1  083D               	movf	___fldiv@a+3,w
  5055  02E2  00C2               	movwf	??___fldiv
  5056  02E3  0742               	addwf	??___fldiv,w
  5057  02E4  00C3               	movwf	??___fldiv+1
  5058  02E5  0843               	movf	??___fldiv+1,w
  5059  02E6  00D3               	movwf	___fldiv@aexp
  5060  02E7                     l1903:
  5061  02E7  1FBC               	btfss	___fldiv@a+2,7
  5062  02E8  2AEA               	goto	u1631
  5063  02E9  2AEB               	goto	u1630
  5064  02EA                     u1631:
  5065  02EA  2AEC               	goto	l1907
  5066  02EB                     u1630:
  5067  02EB                     l1905:
  5068  02EB  1453               	bsf	___fldiv@aexp,0
  5069  02EC                     l1907:
  5070  02EC  0853               	movf	___fldiv@aexp,w
  5071  02ED  1903               	btfsc	3,2
  5072  02EE  2AF0               	goto	u1641
  5073  02EF  2AF1               	goto	u1640
  5074  02F0                     u1641:
  5075  02F0  2B01               	goto	l1917
  5076  02F1                     u1640:
  5077  02F1                     l1909:
  5078  02F1  0A53               	incf	___fldiv@aexp,w
  5079  02F2  1D03               	btfss	3,2
  5080  02F3  2AF5               	goto	u1651
  5081  02F4  2AF6               	goto	u1650
  5082  02F5                     u1651:
  5083  02F5  2AFE               	goto	l1913
  5084  02F6                     u1650:
  5085  02F6                     l1911:
  5086  02F6  3000               	movlw	0
  5087  02F7  00BD               	movwf	___fldiv@a+3
  5088  02F8  3000               	movlw	0
  5089  02F9  00BC               	movwf	___fldiv@a+2
  5090  02FA  3000               	movlw	0
  5091  02FB  00BB               	movwf	___fldiv@a+1
  5092  02FC  3000               	movlw	0
  5093  02FD  00BA               	movwf	___fldiv@a
  5094  02FE                     l1913:
  5095  02FE  17BC               	bsf	___fldiv@a+2,7
  5096  02FF                     l1915:
  5097  02FF  01BD               	clrf	___fldiv@a+3
  5098  0300  2B09               	goto	l703
  5099  0301                     l1917:
  5100  0301  3000               	movlw	0
  5101  0302  00BD               	movwf	___fldiv@a+3
  5102  0303  3000               	movlw	0
  5103  0304  00BC               	movwf	___fldiv@a+2
  5104  0305  3000               	movlw	0
  5105  0306  00BB               	movwf	___fldiv@a+1
  5106  0307  3000               	movlw	0
  5107  0308  00BA               	movwf	___fldiv@a
  5108  0309                     l703:
  5109  0309  083D               	movf	___fldiv@a+3,w
  5110  030A  043C               	iorwf	___fldiv@a+2,w
  5111  030B  043B               	iorwf	___fldiv@a+1,w
  5112  030C  043A               	iorwf	___fldiv@a,w
  5113  030D  1D03               	skipz
  5114  030E  2B10               	goto	u1661
  5115  030F  2B11               	goto	u1660
  5116  0310                     u1661:
  5117  0310  2B2A               	goto	l1927
  5118  0311                     u1660:
  5119  0311                     l1919:
  5120  0311  3000               	movlw	0
  5121  0312  00C1               	movwf	___fldiv@b+3
  5122  0313  3000               	movlw	0
  5123  0314  00C0               	movwf	___fldiv@b+2
  5124  0315  3000               	movlw	0
  5125  0316  00BF               	movwf	___fldiv@b+1
  5126  0317  3000               	movlw	0
  5127  0318  00BE               	movwf	___fldiv@b
  5128  0319  3080               	movlw	128
  5129  031A  04C0               	iorwf	___fldiv@b+2,f
  5130  031B  307F               	movlw	127
  5131  031C  04C1               	iorwf	___fldiv@b+3,f
  5132  031D                     l1921:
  5133  031D  084B               	movf	___fldiv@sign,w
  5134  031E  00C2               	movwf	??___fldiv
  5135  031F  0842               	movf	??___fldiv,w
  5136  0320  04C1               	iorwf	___fldiv@b+3,f
  5137  0321                     l1923:
  5138  0321  0841               	movf	___fldiv@b+3,w
  5139  0322  00BD               	movwf	?___fldiv+3
  5140  0323  0840               	movf	___fldiv@b+2,w
  5141  0324  00BC               	movwf	?___fldiv+2
  5142  0325  083F               	movf	___fldiv@b+1,w
  5143  0326  00BB               	movwf	?___fldiv+1
  5144  0327  083E               	movf	___fldiv@b,w
  5145  0328  00BA               	movwf	?___fldiv
  5146  0329  2C89               	goto	l705
  5147  032A                     l1927:
  5148  032A  0852               	movf	___fldiv@bexp,w
  5149  032B  1D03               	btfss	3,2
  5150  032C  2B2E               	goto	u1671
  5151  032D  2B2F               	goto	u1670
  5152  032E                     u1671:
  5153  032E  2B38               	goto	l1933
  5154  032F                     u1670:
  5155  032F                     l1929:
  5156  032F  3000               	movlw	0
  5157  0330  00BD               	movwf	?___fldiv+3
  5158  0331  3000               	movlw	0
  5159  0332  00BC               	movwf	?___fldiv+2
  5160  0333  3000               	movlw	0
  5161  0334  00BB               	movwf	?___fldiv+1
  5162  0335  3000               	movlw	0
  5163  0336  00BA               	movwf	?___fldiv
  5164  0337  2C89               	goto	l705
  5165  0338                     l1933:
  5166  0338  0852               	movf	___fldiv@bexp,w
  5167  0339  00C2               	movwf	??___fldiv
  5168  033A  01C3               	clrf	??___fldiv+1
  5169  033B  0843               	movf	??___fldiv+1,w
  5170  033C  00C5               	movwf	??___fldiv+3
  5171  033D  0853               	movf	___fldiv@aexp,w
  5172  033E  0242               	subwf	??___fldiv,w
  5173  033F  00C4               	movwf	??___fldiv+2
  5174  0340  1C03               	skipc
  5175  0341  03C5               	decf	??___fldiv+3,f
  5176  0342  0844               	movf	??___fldiv+2,w
  5177  0343  3E7F               	addlw	127
  5178  0344  00CC               	movwf	___fldiv@new_exp
  5179  0345  0845               	movf	??___fldiv+3,w
  5180  0346  1803               	skipnc
  5181  0347  3E01               	addlw	1
  5182  0348  3E00               	addlw	0
  5183  0349  00CD               	movwf	___fldiv@new_exp+1
  5184  034A                     l1935:
  5185  034A  0841               	movf	___fldiv@b+3,w
  5186  034B  00CA               	movwf	___fldiv@rem+3
  5187  034C  0840               	movf	___fldiv@b+2,w
  5188  034D  00C9               	movwf	___fldiv@rem+2
  5189  034E  083F               	movf	___fldiv@b+1,w
  5190  034F  00C8               	movwf	___fldiv@rem+1
  5191  0350  083E               	movf	___fldiv@b,w
  5192  0351  00C7               	movwf	___fldiv@rem
  5193  0352                     l1937:
  5194  0352  3000               	movlw	0
  5195  0353  00C1               	movwf	___fldiv@b+3
  5196  0354  3000               	movlw	0
  5197  0355  00C0               	movwf	___fldiv@b+2
  5198  0356  3000               	movlw	0
  5199  0357  00BF               	movwf	___fldiv@b+1
  5200  0358  3000               	movlw	0
  5201  0359  00BE               	movwf	___fldiv@b
  5202  035A                     l1939:
  5203  035A  3000               	movlw	0
  5204  035B  00D1               	movwf	___fldiv@grs+3
  5205  035C  3000               	movlw	0
  5206  035D  00D0               	movwf	___fldiv@grs+2
  5207  035E  3000               	movlw	0
  5208  035F  00CF               	movwf	___fldiv@grs+1
  5209  0360  3000               	movlw	0
  5210  0361  00CE               	movwf	___fldiv@grs
  5211  0362                     l1941:
  5212  0362  01D3               	clrf	___fldiv@aexp
  5213  0363  2BAE               	goto	l1961
  5214  0364                     l1943:
  5215  0364  0853               	movf	___fldiv@aexp,w
  5216  0365  1903               	btfsc	3,2
  5217  0366  2B68               	goto	u1681
  5218  0367  2B69               	goto	u1680
  5219  0368                     u1681:
  5220  0368  2B89               	goto	l1953
  5221  0369                     u1680:
  5222  0369                     l1945:
  5223  0369  3001               	movlw	1
  5224  036A  00C2               	movwf	??___fldiv
  5225  036B                     u1695:
  5226  036B  1003               	clrc
  5227  036C  0DC7               	rlf	___fldiv@rem,f
  5228  036D  0DC8               	rlf	___fldiv@rem+1,f
  5229  036E  0DC9               	rlf	___fldiv@rem+2,f
  5230  036F  0DCA               	rlf	___fldiv@rem+3,f
  5231  0370  0BC2               	decfsz	??___fldiv,f
  5232  0371  2B6B               	goto	u1695
  5233  0372  3001               	movlw	1
  5234  0373  00C2               	movwf	??___fldiv
  5235  0374                     u1705:
  5236  0374  1003               	clrc
  5237  0375  0DBE               	rlf	___fldiv@b,f
  5238  0376  0DBF               	rlf	___fldiv@b+1,f
  5239  0377  0DC0               	rlf	___fldiv@b+2,f
  5240  0378  0DC1               	rlf	___fldiv@b+3,f
  5241  0379  0BC2               	decfsz	??___fldiv,f
  5242  037A  2B74               	goto	u1705
  5243  037B                     l1947:
  5244  037B  1FD1               	btfss	___fldiv@grs+3,7
  5245  037C  2B7E               	goto	u1711
  5246  037D  2B7F               	goto	u1710
  5247  037E                     u1711:
  5248  037E  2B80               	goto	l1951
  5249  037F                     u1710:
  5250  037F                     l1949:
  5251  037F  143E               	bsf	___fldiv@b,0
  5252  0380                     l1951:
  5253  0380  3001               	movlw	1
  5254  0381  00C2               	movwf	??___fldiv
  5255  0382                     u1725:
  5256  0382  1003               	clrc
  5257  0383  0DCE               	rlf	___fldiv@grs,f
  5258  0384  0DCF               	rlf	___fldiv@grs+1,f
  5259  0385  0DD0               	rlf	___fldiv@grs+2,f
  5260  0386  0DD1               	rlf	___fldiv@grs+3,f
  5261  0387  0BC2               	decfsz	??___fldiv,f
  5262  0388  2B82               	goto	u1725
  5263  0389                     l1953:
  5264  0389  083D               	movf	___fldiv@a+3,w
  5265  038A  024A               	subwf	___fldiv@rem+3,w
  5266  038B  1D03               	skipz
  5267  038C  2B97               	goto	u1735
  5268  038D  083C               	movf	___fldiv@a+2,w
  5269  038E  0249               	subwf	___fldiv@rem+2,w
  5270  038F  1D03               	skipz
  5271  0390  2B97               	goto	u1735
  5272  0391  083B               	movf	___fldiv@a+1,w
  5273  0392  0248               	subwf	___fldiv@rem+1,w
  5274  0393  1D03               	skipz
  5275  0394  2B97               	goto	u1735
  5276  0395  083A               	movf	___fldiv@a,w
  5277  0396  0247               	subwf	___fldiv@rem,w
  5278  0397                     u1735:
  5279  0397  1C03               	skipc
  5280  0398  2B9A               	goto	u1731
  5281  0399  2B9B               	goto	u1730
  5282  039A                     u1731:
  5283  039A  2BAA               	goto	l1959
  5284  039B                     u1730:
  5285  039B                     l1955:
  5286  039B  1751               	bsf	___fldiv@grs+3,6
  5287  039C                     l1957:
  5288  039C  083A               	movf	___fldiv@a,w
  5289  039D  02C7               	subwf	___fldiv@rem,f
  5290  039E  083B               	movf	___fldiv@a+1,w
  5291  039F  1C03               	skipc
  5292  03A0  0F3B               	incfsz	___fldiv@a+1,w
  5293  03A1  02C8               	subwf	___fldiv@rem+1,f
  5294  03A2  083C               	movf	___fldiv@a+2,w
  5295  03A3  1C03               	skipc
  5296  03A4  0F3C               	incfsz	___fldiv@a+2,w
  5297  03A5  02C9               	subwf	___fldiv@rem+2,f
  5298  03A6  083D               	movf	___fldiv@a+3,w
  5299  03A7  1C03               	skipc
  5300  03A8  0F3D               	incfsz	___fldiv@a+3,w
  5301  03A9  02CA               	subwf	___fldiv@rem+3,f
  5302  03AA                     l1959:
  5303  03AA  3001               	movlw	1
  5304  03AB  00C2               	movwf	??___fldiv
  5305  03AC  0842               	movf	??___fldiv,w
  5306  03AD  07D3               	addwf	___fldiv@aexp,f
  5307  03AE                     l1961:
  5308  03AE  301A               	movlw	26
  5309  03AF  0253               	subwf	___fldiv@aexp,w
  5310  03B0  1C03               	skipc
  5311  03B1  2BB3               	goto	u1741
  5312  03B2  2BB4               	goto	u1740
  5313  03B3                     u1741:
  5314  03B3  2B64               	goto	l1943
  5315  03B4                     u1740:
  5316  03B4                     l1963:
  5317  03B4  084A               	movf	___fldiv@rem+3,w
  5318  03B5  0449               	iorwf	___fldiv@rem+2,w
  5319  03B6  0448               	iorwf	___fldiv@rem+1,w
  5320  03B7  0447               	iorwf	___fldiv@rem,w
  5321  03B8  1903               	skipnz
  5322  03B9  2BBB               	goto	u1751
  5323  03BA  2BBC               	goto	u1750
  5324  03BB                     u1751:
  5325  03BB  2BDB               	goto	l1977
  5326  03BC                     u1750:
  5327  03BC                     l1965:
  5328  03BC  144E               	bsf	___fldiv@grs,0
  5329  03BD  2BDB               	goto	l1977
  5330  03BE                     l1967:
  5331  03BE  3001               	movlw	1
  5332  03BF  00C2               	movwf	??___fldiv
  5333  03C0                     u1765:
  5334  03C0  1003               	clrc
  5335  03C1  0DBE               	rlf	___fldiv@b,f
  5336  03C2  0DBF               	rlf	___fldiv@b+1,f
  5337  03C3  0DC0               	rlf	___fldiv@b+2,f
  5338  03C4  0DC1               	rlf	___fldiv@b+3,f
  5339  03C5  0BC2               	decfsz	??___fldiv,f
  5340  03C6  2BC0               	goto	u1765
  5341  03C7                     l1969:
  5342  03C7  1FD1               	btfss	___fldiv@grs+3,7
  5343  03C8  2BCA               	goto	u1771
  5344  03C9  2BCB               	goto	u1770
  5345  03CA                     u1771:
  5346  03CA  2BCC               	goto	l1973
  5347  03CB                     u1770:
  5348  03CB                     l1971:
  5349  03CB  143E               	bsf	___fldiv@b,0
  5350  03CC                     l1973:
  5351  03CC  3001               	movlw	1
  5352  03CD  00C2               	movwf	??___fldiv
  5353  03CE                     u1785:
  5354  03CE  1003               	clrc
  5355  03CF  0DCE               	rlf	___fldiv@grs,f
  5356  03D0  0DCF               	rlf	___fldiv@grs+1,f
  5357  03D1  0DD0               	rlf	___fldiv@grs+2,f
  5358  03D2  0DD1               	rlf	___fldiv@grs+3,f
  5359  03D3  0BC2               	decfsz	??___fldiv,f
  5360  03D4  2BCE               	goto	u1785
  5361  03D5                     l1975:
  5362  03D5  30FF               	movlw	255
  5363  03D6  07CC               	addwf	___fldiv@new_exp,f
  5364  03D7  1803               	skipnc
  5365  03D8  0ACD               	incf	___fldiv@new_exp+1,f
  5366  03D9  30FF               	movlw	255
  5367  03DA  07CD               	addwf	___fldiv@new_exp+1,f
  5368  03DB                     l1977:
  5369  03DB  1FC0               	btfss	___fldiv@b+2,7
  5370  03DC  2BDE               	goto	u1791
  5371  03DD  2BDF               	goto	u1790
  5372  03DE                     u1791:
  5373  03DE  2BBE               	goto	l1967
  5374  03DF                     u1790:
  5375  03DF                     l1979:
  5376  03DF  01D3               	clrf	___fldiv@aexp
  5377  03E0                     l1981:
  5378  03E0  1FD1               	btfss	___fldiv@grs+3,7
  5379  03E1  2BE3               	goto	u1801
  5380  03E2  2BE4               	goto	u1800
  5381  03E3                     u1801:
  5382  03E3  2C00               	goto	l1989
  5383  03E4                     u1800:
  5384  03E4                     l1983:
  5385  03E4  30FF               	movlw	255
  5386  03E5  054E               	andwf	___fldiv@grs,w
  5387  03E6  00C2               	movwf	??___fldiv
  5388  03E7  30FF               	movlw	255
  5389  03E8  054F               	andwf	___fldiv@grs+1,w
  5390  03E9  00C3               	movwf	??___fldiv+1
  5391  03EA  30FF               	movlw	255
  5392  03EB  0550               	andwf	___fldiv@grs+2,w
  5393  03EC  00C4               	movwf	??___fldiv+2
  5394  03ED  307F               	movlw	127
  5395  03EE  0551               	andwf	___fldiv@grs+3,w
  5396  03EF  00C5               	movwf	??___fldiv+3
  5397  03F0  0845               	movf	??___fldiv+3,w
  5398  03F1  0444               	iorwf	??___fldiv+2,w
  5399  03F2  0443               	iorwf	??___fldiv+1,w
  5400  03F3  0442               	iorwf	??___fldiv,w
  5401  03F4  1903               	skipnz
  5402  03F5  2BF7               	goto	u1811
  5403  03F6  2BF8               	goto	u1810
  5404  03F7                     u1811:
  5405  03F7  2BFB               	goto	l719
  5406  03F8                     u1810:
  5407  03F8                     l1985:
  5408  03F8  01D3               	clrf	___fldiv@aexp
  5409  03F9  0AD3               	incf	___fldiv@aexp,f
  5410  03FA  2C00               	goto	l1989
  5411  03FB                     l719:
  5412  03FB  1C3E               	btfss	___fldiv@b,0
  5413  03FC  2BFE               	goto	u1821
  5414  03FD  2BFF               	goto	u1820
  5415  03FE                     u1821:
  5416  03FE  2C00               	goto	l1989
  5417  03FF                     u1820:
  5418  03FF  2BF8               	goto	l1985
  5419  0400                     l1989:
  5420  0400  0853               	movf	___fldiv@aexp,w
  5421  0401  1903               	btfsc	3,2
  5422  0402  2C04               	goto	u1831
  5423  0403  2C05               	goto	u1830
  5424  0404                     u1831:
  5425  0404  2C36               	goto	l1999
  5426  0405                     u1830:
  5427  0405                     l1991:
  5428  0405  3001               	movlw	1
  5429  0406  07BE               	addwf	___fldiv@b,f
  5430  0407  3000               	movlw	0
  5431  0408  1803               	skipnc
  5432  0409  3001               	movlw	1
  5433  040A  07BF               	addwf	___fldiv@b+1,f
  5434  040B  3000               	movlw	0
  5435  040C  1803               	skipnc
  5436  040D  3001               	movlw	1
  5437  040E  07C0               	addwf	___fldiv@b+2,f
  5438  040F  3000               	movlw	0
  5439  0410  1803               	skipnc
  5440  0411  3001               	movlw	1
  5441  0412  07C1               	addwf	___fldiv@b+3,f
  5442  0413                     l1993:
  5443  0413  1C41               	btfss	___fldiv@b+3,0
  5444  0414  2C16               	goto	u1841
  5445  0415  2C17               	goto	u1840
  5446  0416                     u1841:
  5447  0416  2C36               	goto	l1999
  5448  0417                     u1840:
  5449  0417                     l1995:
  5450  0417  083E               	movf	___fldiv@b,w
  5451  0418  00C2               	movwf	??___fldiv
  5452  0419  083F               	movf	___fldiv@b+1,w
  5453  041A  00C3               	movwf	??___fldiv+1
  5454  041B  0840               	movf	___fldiv@b+2,w
  5455  041C  00C4               	movwf	??___fldiv+2
  5456  041D  0841               	movf	___fldiv@b+3,w
  5457  041E  00C5               	movwf	??___fldiv+3
  5458  041F  3001               	movlw	1
  5459  0420  00C6               	movwf	??___fldiv+4
  5460  0421                     u1855:
  5461  0421  0D45               	rlf	??___fldiv+3,w
  5462  0422  0CC5               	rrf	??___fldiv+3,f
  5463  0423  0CC4               	rrf	??___fldiv+2,f
  5464  0424  0CC3               	rrf	??___fldiv+1,f
  5465  0425  0CC2               	rrf	??___fldiv,f
  5466  0426                     u1850:
  5467  0426  0BC6               	decfsz	??___fldiv+4,f
  5468  0427  2C21               	goto	u1855
  5469  0428  0845               	movf	??___fldiv+3,w
  5470  0429  00C1               	movwf	___fldiv@b+3
  5471  042A  0844               	movf	??___fldiv+2,w
  5472  042B  00C0               	movwf	___fldiv@b+2
  5473  042C  0843               	movf	??___fldiv+1,w
  5474  042D  00BF               	movwf	___fldiv@b+1
  5475  042E  0842               	movf	??___fldiv,w
  5476  042F  00BE               	movwf	___fldiv@b
  5477  0430                     l1997:
  5478  0430  3001               	movlw	1
  5479  0431  07CC               	addwf	___fldiv@new_exp,f
  5480  0432  1803               	skipnc
  5481  0433  0ACD               	incf	___fldiv@new_exp+1,f
  5482  0434  3000               	movlw	0
  5483  0435  07CD               	addwf	___fldiv@new_exp+1,f
  5484  0436                     l1999:
  5485  0436  084D               	movf	___fldiv@new_exp+1,w
  5486  0437  3A80               	xorlw	128
  5487  0438  00FF               	movwf	btemp+1
  5488  0439  3080               	movlw	128
  5489  043A  027F               	subwf	btemp+1,w
  5490  043B  1D03               	skipz
  5491  043C  2C3F               	goto	u1865
  5492  043D  30FF               	movlw	255
  5493  043E  024C               	subwf	___fldiv@new_exp,w
  5494  043F                     u1865:
  5495  043F  1C03               	skipc
  5496  0440  2C42               	goto	u1861
  5497  0441  2C43               	goto	u1860
  5498  0442                     u1861:
  5499  0442  2C51               	goto	l2003
  5500  0443                     u1860:
  5501  0443                     l2001:
  5502  0443  30FF               	movlw	255
  5503  0444  1283               	bcf	3,5	;RP0=0, select bank0
  5504  0445  1303               	bcf	3,6	;RP1=0, select bank0
  5505  0446  00CC               	movwf	___fldiv@new_exp
  5506  0447  3000               	movlw	0
  5507  0448  00CD               	movwf	___fldiv@new_exp+1
  5508  0449  3000               	movlw	0
  5509  044A  00C1               	movwf	___fldiv@b+3
  5510  044B  3000               	movlw	0
  5511  044C  00C0               	movwf	___fldiv@b+2
  5512  044D  3000               	movlw	0
  5513  044E  00BF               	movwf	___fldiv@b+1
  5514  044F  3000               	movlw	0
  5515  0450  00BE               	movwf	___fldiv@b
  5516  0451                     l2003:
  5517  0451  1283               	bcf	3,5	;RP0=0, select bank0
  5518  0452  1303               	bcf	3,6	;RP1=0, select bank0
  5519  0453  084D               	movf	___fldiv@new_exp+1,w
  5520  0454  3A80               	xorlw	128
  5521  0455  00FF               	movwf	btemp+1
  5522  0456  3080               	movlw	128
  5523  0457  027F               	subwf	btemp+1,w
  5524  0458  1D03               	skipz
  5525  0459  2C5C               	goto	u1875
  5526  045A  3001               	movlw	1
  5527  045B  024C               	subwf	___fldiv@new_exp,w
  5528  045C                     u1875:
  5529  045C  1803               	skipnc
  5530  045D  2C5F               	goto	u1871
  5531  045E  2C60               	goto	u1870
  5532  045F                     u1871:
  5533  045F  2C6D               	goto	l725
  5534  0460                     u1870:
  5535  0460                     l2005:
  5536  0460  1283               	bcf	3,5	;RP0=0, select bank0
  5537  0461  1303               	bcf	3,6	;RP1=0, select bank0
  5538  0462  01CC               	clrf	___fldiv@new_exp
  5539  0463  01CD               	clrf	___fldiv@new_exp+1
  5540  0464                     l2007:
  5541  0464  3000               	movlw	0
  5542  0465  00C1               	movwf	___fldiv@b+3
  5543  0466  3000               	movlw	0
  5544  0467  00C0               	movwf	___fldiv@b+2
  5545  0468  3000               	movlw	0
  5546  0469  00BF               	movwf	___fldiv@b+1
  5547  046A  3000               	movlw	0
  5548  046B  00BE               	movwf	___fldiv@b
  5549  046C                     l2009:
  5550  046C  01CB               	clrf	___fldiv@sign
  5551  046D                     l725:
  5552  046D  1283               	bcf	3,5	;RP0=0, select bank0
  5553  046E  1303               	bcf	3,6	;RP1=0, select bank0
  5554  046F  084C               	movf	___fldiv@new_exp,w
  5555  0470  00C2               	movwf	??___fldiv
  5556  0471  0842               	movf	??___fldiv,w
  5557  0472  00D2               	movwf	___fldiv@bexp
  5558  0473                     l2011:
  5559  0473  1C52               	btfss	___fldiv@bexp,0
  5560  0474  2C76               	goto	u1881
  5561  0475  2C77               	goto	u1880
  5562  0476                     u1881:
  5563  0476  2C79               	goto	l2015
  5564  0477                     u1880:
  5565  0477                     l2013:
  5566  0477  17C0               	bsf	___fldiv@b+2,7
  5567  0478  2C7D               	goto	l727
  5568  0479                     l2015:
  5569  0479  307F               	movlw	127
  5570  047A  00C2               	movwf	??___fldiv
  5571  047B  0842               	movf	??___fldiv,w
  5572  047C  05C0               	andwf	___fldiv@b+2,f
  5573  047D                     l727:
  5574  047D  0852               	movf	___fldiv@bexp,w
  5575  047E  00C2               	movwf	??___fldiv
  5576  047F  1003               	clrc
  5577  0480  0C42               	rrf	??___fldiv,w
  5578  0481  00C3               	movwf	??___fldiv+1
  5579  0482  0843               	movf	??___fldiv+1,w
  5580  0483  00C1               	movwf	___fldiv@b+3
  5581  0484  084B               	movf	___fldiv@sign,w
  5582  0485  00C2               	movwf	??___fldiv
  5583  0486  0842               	movf	??___fldiv,w
  5584  0487  04C1               	iorwf	___fldiv@b+3,f
  5585  0488  2B21               	goto	l1923
  5586  0489                     l705:
  5587  0489  0008               	return
  5588  048A                     __end_of___fldiv:
  5589                           
  5590                           	psect	text24
  5591  008E                     __ptext24:	
  5592 ;; *************** function _ADC_Config *****************
  5593 ;; Defined at:
  5594 ;;		line 31 in file "Config_ADC.c"
  5595 ;; Parameters:    Size  Location     Type
  5596 ;;  AN_num          1    wreg     unsigned char 
  5597 ;; Auto vars:     Size  Location     Type
  5598 ;;  AN_num          1    2[COMMON] unsigned char 
  5599 ;; Return value:  Size  Location     Type
  5600 ;;                  1    wreg      void 
  5601 ;; Registers used:
  5602 ;;		wreg, fsr0l, fsr0h, status,2, status,0
  5603 ;; Tracked objects:
  5604 ;;		On entry : 0/0
  5605 ;;		On exit  : 0/0
  5606 ;;		Unchanged: 0/0
  5607 ;; Data sizes:     COMMON   BANK0   BANK1   BANK3   BANK2
  5608 ;;      Params:         0       0       0       0       0
  5609 ;;      Locals:         1       0       0       0       0
  5610 ;;      Temps:          2       0       0       0       0
  5611 ;;      Totals:         3       0       0       0       0
  5612 ;;Total ram usage:        3 bytes
  5613 ;; Hardware stack levels used:    1
  5614 ;; This function calls:
  5615 ;;		Nothing
  5616 ;; This function is called by:
  5617 ;;		_ADC_channel1
  5618 ;;		_ADC_channel2
  5619 ;; This function uses a non-reentrant model
  5620 ;;
  5621                           
  5622                           
  5623                           ;psect for function _ADC_Config
  5624  008E                     _ADC_Config:
  5625                           
  5626                           ;incstack = 0
  5627                           ; Regs used in _ADC_Config: [wreg-fsr0h+status,2+status,0]
  5628                           ;ADC_Config@AN_num stored from wreg
  5629  008E  00F2               	movwf	ADC_Config@AN_num
  5630  008F                     l1761:
  5631                           
  5632                           ;Config_ADC.c: 33:     switch(AN_num){
  5633  008F  2907               	goto	l1765
  5634  0090                     l190:	
  5635                           ;Config_ADC.c: 34:         case 0:
  5636                           
  5637                           
  5638                           ;Config_ADC.c: 35:             ADCON0bits.CHS3 = 0;
  5639  0090  1283               	bcf	3,5	;RP0=0, select bank0
  5640  0091  1303               	bcf	3,6	;RP1=0, select bank0
  5641  0092  129F               	bcf	31,5	;volatile
  5642                           
  5643                           ;Config_ADC.c: 36:             ADCON0bits.CHS2 = 0;
  5644  0093  121F               	bcf	31,4	;volatile
  5645                           
  5646                           ;Config_ADC.c: 37:             ADCON0bits.CHS1 = 0;
  5647  0094  119F               	bcf	31,3	;volatile
  5648                           
  5649                           ;Config_ADC.c: 38:             ADCON0bits.CHS0 = 0;
  5650  0095  111F               	bcf	31,2	;volatile
  5651                           
  5652                           ;Config_ADC.c: 39:             break;
  5653  0096  2941               	goto	l1767
  5654  0097                     l192:	
  5655                           ;Config_ADC.c: 40:         case 1:
  5656                           
  5657                           
  5658                           ;Config_ADC.c: 41:             ADCON0bits.CHS3 = 0;
  5659  0097  1283               	bcf	3,5	;RP0=0, select bank0
  5660  0098  1303               	bcf	3,6	;RP1=0, select bank0
  5661  0099  129F               	bcf	31,5	;volatile
  5662                           
  5663                           ;Config_ADC.c: 42:             ADCON0bits.CHS2 = 0;
  5664  009A  121F               	bcf	31,4	;volatile
  5665                           
  5666                           ;Config_ADC.c: 43:             ADCON0bits.CHS1 = 0;
  5667  009B  119F               	bcf	31,3	;volatile
  5668                           
  5669                           ;Config_ADC.c: 44:             ADCON0bits.CHS0 = 1;
  5670  009C  151F               	bsf	31,2	;volatile
  5671                           
  5672                           ;Config_ADC.c: 45:             break;
  5673  009D  2941               	goto	l1767
  5674  009E                     l193:	
  5675                           ;Config_ADC.c: 46:         case 2:
  5676                           
  5677                           
  5678                           ;Config_ADC.c: 47:             ADCON0bits.CHS3 = 0;
  5679  009E  1283               	bcf	3,5	;RP0=0, select bank0
  5680  009F  1303               	bcf	3,6	;RP1=0, select bank0
  5681  00A0  129F               	bcf	31,5	;volatile
  5682                           
  5683                           ;Config_ADC.c: 48:             ADCON0bits.CHS2 = 0;
  5684  00A1  121F               	bcf	31,4	;volatile
  5685                           
  5686                           ;Config_ADC.c: 49:             ADCON0bits.CHS1 = 1;
  5687  00A2  159F               	bsf	31,3	;volatile
  5688                           
  5689                           ;Config_ADC.c: 50:             ADCON0bits.CHS0 = 0;
  5690  00A3  111F               	bcf	31,2	;volatile
  5691                           
  5692                           ;Config_ADC.c: 51:             break;
  5693  00A4  2941               	goto	l1767
  5694  00A5                     l194:	
  5695                           ;Config_ADC.c: 52:         case 3:
  5696                           
  5697                           
  5698                           ;Config_ADC.c: 53:             ADCON0bits.CHS3 = 0;
  5699  00A5  1283               	bcf	3,5	;RP0=0, select bank0
  5700  00A6  1303               	bcf	3,6	;RP1=0, select bank0
  5701  00A7  129F               	bcf	31,5	;volatile
  5702                           
  5703                           ;Config_ADC.c: 54:             ADCON0bits.CHS2 = 0;
  5704  00A8  121F               	bcf	31,4	;volatile
  5705                           
  5706                           ;Config_ADC.c: 55:             ADCON0bits.CHS1 = 1;
  5707  00A9  159F               	bsf	31,3	;volatile
  5708                           
  5709                           ;Config_ADC.c: 56:             ADCON0bits.CHS0 = 1;
  5710  00AA  151F               	bsf	31,2	;volatile
  5711                           
  5712                           ;Config_ADC.c: 57:             break;
  5713  00AB  2941               	goto	l1767
  5714  00AC                     l195:	
  5715                           ;Config_ADC.c: 58:         case 4:
  5716                           
  5717                           
  5718                           ;Config_ADC.c: 59:             ADCON0bits.CHS3 = 0;
  5719  00AC  1283               	bcf	3,5	;RP0=0, select bank0
  5720  00AD  1303               	bcf	3,6	;RP1=0, select bank0
  5721  00AE  129F               	bcf	31,5	;volatile
  5722                           
  5723                           ;Config_ADC.c: 60:             ADCON0bits.CHS2 = 1;
  5724  00AF  161F               	bsf	31,4	;volatile
  5725                           
  5726                           ;Config_ADC.c: 61:             ADCON0bits.CHS1 = 0;
  5727  00B0  119F               	bcf	31,3	;volatile
  5728                           
  5729                           ;Config_ADC.c: 62:             ADCON0bits.CHS0 = 0;
  5730  00B1  111F               	bcf	31,2	;volatile
  5731                           
  5732                           ;Config_ADC.c: 63:             break;
  5733  00B2  2941               	goto	l1767
  5734  00B3                     l196:	
  5735                           ;Config_ADC.c: 64:         case 5:
  5736                           
  5737                           
  5738                           ;Config_ADC.c: 65:             ADCON0bits.CHS3 = 0;
  5739  00B3  1283               	bcf	3,5	;RP0=0, select bank0
  5740  00B4  1303               	bcf	3,6	;RP1=0, select bank0
  5741  00B5  129F               	bcf	31,5	;volatile
  5742                           
  5743                           ;Config_ADC.c: 66:             ADCON0bits.CHS2 = 1;
  5744  00B6  161F               	bsf	31,4	;volatile
  5745                           
  5746                           ;Config_ADC.c: 67:             ADCON0bits.CHS1 = 0;
  5747  00B7  119F               	bcf	31,3	;volatile
  5748                           
  5749                           ;Config_ADC.c: 68:             ADCON0bits.CHS0 = 1;
  5750  00B8  151F               	bsf	31,2	;volatile
  5751                           
  5752                           ;Config_ADC.c: 69:             break;
  5753  00B9  2941               	goto	l1767
  5754  00BA                     l197:	
  5755                           ;Config_ADC.c: 70:         case 6:
  5756                           
  5757                           
  5758                           ;Config_ADC.c: 71:             ADCON0bits.CHS3 = 0;
  5759  00BA  1283               	bcf	3,5	;RP0=0, select bank0
  5760  00BB  1303               	bcf	3,6	;RP1=0, select bank0
  5761  00BC  129F               	bcf	31,5	;volatile
  5762                           
  5763                           ;Config_ADC.c: 72:             ADCON0bits.CHS2 = 1;
  5764  00BD  161F               	bsf	31,4	;volatile
  5765                           
  5766                           ;Config_ADC.c: 73:             ADCON0bits.CHS1 = 1;
  5767  00BE  159F               	bsf	31,3	;volatile
  5768                           
  5769                           ;Config_ADC.c: 74:             ADCON0bits.CHS0 = 0;
  5770  00BF  111F               	bcf	31,2	;volatile
  5771                           
  5772                           ;Config_ADC.c: 75:             break;
  5773  00C0  2941               	goto	l1767
  5774  00C1                     l198:	
  5775                           ;Config_ADC.c: 76:         case 7:
  5776                           
  5777                           
  5778                           ;Config_ADC.c: 77:             ADCON0bits.CHS3 = 0;
  5779  00C1  1283               	bcf	3,5	;RP0=0, select bank0
  5780  00C2  1303               	bcf	3,6	;RP1=0, select bank0
  5781  00C3  129F               	bcf	31,5	;volatile
  5782                           
  5783                           ;Config_ADC.c: 78:             ADCON0bits.CHS2 = 1;
  5784  00C4  161F               	bsf	31,4	;volatile
  5785                           
  5786                           ;Config_ADC.c: 79:             ADCON0bits.CHS1 = 1;
  5787  00C5  159F               	bsf	31,3	;volatile
  5788                           
  5789                           ;Config_ADC.c: 80:             ADCON0bits.CHS0 = 1;
  5790  00C6  151F               	bsf	31,2	;volatile
  5791                           
  5792                           ;Config_ADC.c: 81:             break;
  5793  00C7  2941               	goto	l1767
  5794  00C8                     l199:	
  5795                           ;Config_ADC.c: 82:         case 8:
  5796                           
  5797                           
  5798                           ;Config_ADC.c: 83:             ADCON0bits.CHS3 = 1;
  5799  00C8  1283               	bcf	3,5	;RP0=0, select bank0
  5800  00C9  1303               	bcf	3,6	;RP1=0, select bank0
  5801  00CA  169F               	bsf	31,5	;volatile
  5802                           
  5803                           ;Config_ADC.c: 84:             ADCON0bits.CHS2 = 0;
  5804  00CB  121F               	bcf	31,4	;volatile
  5805                           
  5806                           ;Config_ADC.c: 85:             ADCON0bits.CHS1 = 0;
  5807  00CC  119F               	bcf	31,3	;volatile
  5808                           
  5809                           ;Config_ADC.c: 86:             ADCON0bits.CHS0 = 0;
  5810  00CD  111F               	bcf	31,2	;volatile
  5811                           
  5812                           ;Config_ADC.c: 87:             break;
  5813  00CE  2941               	goto	l1767
  5814  00CF                     l200:	
  5815                           ;Config_ADC.c: 88:         case 9:
  5816                           
  5817                           
  5818                           ;Config_ADC.c: 89:             ADCON0bits.CHS3 = 1;
  5819  00CF  1283               	bcf	3,5	;RP0=0, select bank0
  5820  00D0  1303               	bcf	3,6	;RP1=0, select bank0
  5821  00D1  169F               	bsf	31,5	;volatile
  5822                           
  5823                           ;Config_ADC.c: 90:             ADCON0bits.CHS2 = 0;
  5824  00D2  121F               	bcf	31,4	;volatile
  5825                           
  5826                           ;Config_ADC.c: 91:             ADCON0bits.CHS1 = 0;
  5827  00D3  119F               	bcf	31,3	;volatile
  5828                           
  5829                           ;Config_ADC.c: 92:             ADCON0bits.CHS0 = 1;
  5830  00D4  151F               	bsf	31,2	;volatile
  5831                           
  5832                           ;Config_ADC.c: 93:             break;
  5833  00D5  2941               	goto	l1767
  5834  00D6                     l201:	
  5835                           ;Config_ADC.c: 94:         case 10:
  5836                           
  5837                           
  5838                           ;Config_ADC.c: 95:             ADCON0bits.CHS3 = 1;
  5839  00D6  1283               	bcf	3,5	;RP0=0, select bank0
  5840  00D7  1303               	bcf	3,6	;RP1=0, select bank0
  5841  00D8  169F               	bsf	31,5	;volatile
  5842                           
  5843                           ;Config_ADC.c: 96:             ADCON0bits.CHS2 = 0;
  5844  00D9  121F               	bcf	31,4	;volatile
  5845                           
  5846                           ;Config_ADC.c: 97:             ADCON0bits.CHS1 = 1;
  5847  00DA  159F               	bsf	31,3	;volatile
  5848                           
  5849                           ;Config_ADC.c: 98:             ADCON0bits.CHS0 = 0;
  5850  00DB  111F               	bcf	31,2	;volatile
  5851                           
  5852                           ;Config_ADC.c: 99:             break;
  5853  00DC  2941               	goto	l1767
  5854  00DD                     l202:	
  5855                           ;Config_ADC.c: 100:         case 11:
  5856                           
  5857                           
  5858                           ;Config_ADC.c: 101:             ADCON0bits.CHS3 = 1;
  5859  00DD  1283               	bcf	3,5	;RP0=0, select bank0
  5860  00DE  1303               	bcf	3,6	;RP1=0, select bank0
  5861  00DF  169F               	bsf	31,5	;volatile
  5862                           
  5863                           ;Config_ADC.c: 102:             ADCON0bits.CHS2 = 0;
  5864  00E0  121F               	bcf	31,4	;volatile
  5865                           
  5866                           ;Config_ADC.c: 103:             ADCON0bits.CHS1 = 1;
  5867  00E1  159F               	bsf	31,3	;volatile
  5868                           
  5869                           ;Config_ADC.c: 104:             ADCON0bits.CHS0 = 1;
  5870  00E2  151F               	bsf	31,2	;volatile
  5871                           
  5872                           ;Config_ADC.c: 105:             break;
  5873  00E3  2941               	goto	l1767
  5874  00E4                     l203:	
  5875                           ;Config_ADC.c: 106:         case 12:
  5876                           
  5877                           
  5878                           ;Config_ADC.c: 107:             ADCON0bits.CHS3 = 1;
  5879  00E4  1283               	bcf	3,5	;RP0=0, select bank0
  5880  00E5  1303               	bcf	3,6	;RP1=0, select bank0
  5881  00E6  169F               	bsf	31,5	;volatile
  5882                           
  5883                           ;Config_ADC.c: 108:             ADCON0bits.CHS2 = 1;
  5884  00E7  161F               	bsf	31,4	;volatile
  5885                           
  5886                           ;Config_ADC.c: 109:             ADCON0bits.CHS1 = 0;
  5887  00E8  119F               	bcf	31,3	;volatile
  5888                           
  5889                           ;Config_ADC.c: 110:             ADCON0bits.CHS0 = 0;
  5890  00E9  111F               	bcf	31,2	;volatile
  5891                           
  5892                           ;Config_ADC.c: 111:             break;
  5893  00EA  2941               	goto	l1767
  5894  00EB                     l204:	
  5895                           ;Config_ADC.c: 112:         case 13:
  5896                           
  5897                           
  5898                           ;Config_ADC.c: 113:             ADCON0bits.CHS3 = 1;
  5899  00EB  1283               	bcf	3,5	;RP0=0, select bank0
  5900  00EC  1303               	bcf	3,6	;RP1=0, select bank0
  5901  00ED  169F               	bsf	31,5	;volatile
  5902                           
  5903                           ;Config_ADC.c: 114:             ADCON0bits.CHS2 = 1;
  5904  00EE  161F               	bsf	31,4	;volatile
  5905                           
  5906                           ;Config_ADC.c: 115:             ADCON0bits.CHS1 = 0;
  5907  00EF  119F               	bcf	31,3	;volatile
  5908                           
  5909                           ;Config_ADC.c: 116:             ADCON0bits.CHS0 = 1;
  5910  00F0  151F               	bsf	31,2	;volatile
  5911                           
  5912                           ;Config_ADC.c: 117:             break;
  5913  00F1  2941               	goto	l1767
  5914  00F2                     l205:	
  5915                           ;Config_ADC.c: 118:         case 14:
  5916                           
  5917                           
  5918                           ;Config_ADC.c: 119:             ADCON0bits.CHS3 = 1;
  5919  00F2  1283               	bcf	3,5	;RP0=0, select bank0
  5920  00F3  1303               	bcf	3,6	;RP1=0, select bank0
  5921  00F4  169F               	bsf	31,5	;volatile
  5922                           
  5923                           ;Config_ADC.c: 120:             ADCON0bits.CHS2 = 1;
  5924  00F5  161F               	bsf	31,4	;volatile
  5925                           
  5926                           ;Config_ADC.c: 121:             ADCON0bits.CHS1 = 1;
  5927  00F6  159F               	bsf	31,3	;volatile
  5928                           
  5929                           ;Config_ADC.c: 122:             ADCON0bits.CHS0 = 0;
  5930  00F7  111F               	bcf	31,2	;volatile
  5931                           
  5932                           ;Config_ADC.c: 123:             break;
  5933  00F8  2941               	goto	l1767
  5934  00F9                     l206:	
  5935                           ;Config_ADC.c: 124:         case 15:
  5936                           
  5937                           
  5938                           ;Config_ADC.c: 125:             ADCON0bits.CHS3 = 1;
  5939  00F9  1283               	bcf	3,5	;RP0=0, select bank0
  5940  00FA  1303               	bcf	3,6	;RP1=0, select bank0
  5941  00FB  169F               	bsf	31,5	;volatile
  5942                           
  5943                           ;Config_ADC.c: 126:             ADCON0bits.CHS2 = 1;
  5944  00FC  161F               	bsf	31,4	;volatile
  5945                           
  5946                           ;Config_ADC.c: 127:             ADCON0bits.CHS1 = 1;
  5947  00FD  159F               	bsf	31,3	;volatile
  5948                           
  5949                           ;Config_ADC.c: 128:             ADCON0bits.CHS0 = 1;
  5950  00FE  151F               	bsf	31,2	;volatile
  5951                           
  5952                           ;Config_ADC.c: 129:             break;
  5953  00FF  2941               	goto	l1767
  5954  0100                     l207:	
  5955                           ;Config_ADC.c: 130:         default:
  5956                           
  5957                           
  5958                           ;Config_ADC.c: 131:             ADCON0bits.CHS3 = 0;
  5959  0100  1283               	bcf	3,5	;RP0=0, select bank0
  5960  0101  1303               	bcf	3,6	;RP1=0, select bank0
  5961  0102  129F               	bcf	31,5	;volatile
  5962                           
  5963                           ;Config_ADC.c: 132:             ADCON0bits.CHS2 = 0;
  5964  0103  121F               	bcf	31,4	;volatile
  5965                           
  5966                           ;Config_ADC.c: 133:             ADCON0bits.CHS1 = 0;
  5967  0104  119F               	bcf	31,3	;volatile
  5968                           
  5969                           ;Config_ADC.c: 134:             ADCON0bits.CHS0 = 0;
  5970  0105  111F               	bcf	31,2	;volatile
  5971                           
  5972                           ;Config_ADC.c: 135:             break;
  5973  0106  2941               	goto	l1767
  5974  0107                     l1765:
  5975  0107  0872               	movf	ADC_Config@AN_num,w
  5976  0108  00F0               	movwf	??_ADC_Config
  5977  0109  01F1               	clrf	??_ADC_Config+1
  5978                           
  5979                           ; Switch on 2 bytes has been partitioned into a top level switch of size 1, and 1 sub-sw
      +                          itches
  5980                           ; Switch size 1, requested type "simple"
  5981                           ; Number of cases is 1, Range of values is 0 to 0
  5982                           ; switch strategies available:
  5983                           ; Name         Instructions Cycles
  5984                           ; simple_byte            4     3 (average)
  5985                           ; direct_byte           11     8 (fixed)
  5986                           ; jumptable            260     6 (fixed)
  5987                           ;	Chosen strategy is simple_byte
  5988  010A  0871               	movf	??_ADC_Config+1,w
  5989  010B  3A00               	xorlw	0	; case 0
  5990  010C  1903               	skipnz
  5991  010D  290F               	goto	l2399
  5992  010E  2900               	goto	l207
  5993  010F                     l2399:
  5994                           
  5995                           ; Switch size 1, requested type "simple"
  5996                           ; Number of cases is 16, Range of values is 0 to 15
  5997                           ; switch strategies available:
  5998                           ; Name         Instructions Cycles
  5999                           ; simple_byte           49    25 (average)
  6000                           ; direct_byte           56     8 (fixed)
  6001                           ; jumptable            260     6 (fixed)
  6002                           ;	Chosen strategy is simple_byte
  6003  010F  0870               	movf	??_ADC_Config,w
  6004  0110  3A00               	xorlw	0	; case 0
  6005  0111  1903               	skipnz
  6006  0112  2890               	goto	l190
  6007  0113  3A01               	xorlw	1	; case 1
  6008  0114  1903               	skipnz
  6009  0115  2897               	goto	l192
  6010  0116  3A03               	xorlw	3	; case 2
  6011  0117  1903               	skipnz
  6012  0118  289E               	goto	l193
  6013  0119  3A01               	xorlw	1	; case 3
  6014  011A  1903               	skipnz
  6015  011B  28A5               	goto	l194
  6016  011C  3A07               	xorlw	7	; case 4
  6017  011D  1903               	skipnz
  6018  011E  28AC               	goto	l195
  6019  011F  3A01               	xorlw	1	; case 5
  6020  0120  1903               	skipnz
  6021  0121  28B3               	goto	l196
  6022  0122  3A03               	xorlw	3	; case 6
  6023  0123  1903               	skipnz
  6024  0124  28BA               	goto	l197
  6025  0125  3A01               	xorlw	1	; case 7
  6026  0126  1903               	skipnz
  6027  0127  28C1               	goto	l198
  6028  0128  3A0F               	xorlw	15	; case 8
  6029  0129  1903               	skipnz
  6030  012A  28C8               	goto	l199
  6031  012B  3A01               	xorlw	1	; case 9
  6032  012C  1903               	skipnz
  6033  012D  28CF               	goto	l200
  6034  012E  3A03               	xorlw	3	; case 10
  6035  012F  1903               	skipnz
  6036  0130  28D6               	goto	l201
  6037  0131  3A01               	xorlw	1	; case 11
  6038  0132  1903               	skipnz
  6039  0133  28DD               	goto	l202
  6040  0134  3A07               	xorlw	7	; case 12
  6041  0135  1903               	skipnz
  6042  0136  28E4               	goto	l203
  6043  0137  3A01               	xorlw	1	; case 13
  6044  0138  1903               	skipnz
  6045  0139  28EB               	goto	l204
  6046  013A  3A03               	xorlw	3	; case 14
  6047  013B  1903               	skipnz
  6048  013C  28F2               	goto	l205
  6049  013D  3A01               	xorlw	1	; case 15
  6050  013E  1903               	skipnz
  6051  013F  28F9               	goto	l206
  6052  0140  2900               	goto	l207
  6053  0141                     l1767:
  6054                           
  6055                           ;Config_ADC.c: 137:     ADCON1 = 0b00000000;
  6056  0141  1683               	bsf	3,5	;RP0=1, select bank1
  6057  0142  1303               	bcf	3,6	;RP1=0, select bank1
  6058  0143  019F               	clrf	31	;volatile
  6059  0144                     l1769:
  6060                           
  6061                           ;Config_ADC.c: 138:     ADCON0bits.ADCS1 = 1;
  6062  0144  1283               	bcf	3,5	;RP0=0, select bank0
  6063  0145  1303               	bcf	3,6	;RP1=0, select bank0
  6064  0146  179F               	bsf	31,7	;volatile
  6065  0147                     l1771:
  6066                           
  6067                           ;Config_ADC.c: 139:     ADCON0bits.ADCS0 = 0;
  6068  0147  131F               	bcf	31,6	;volatile
  6069  0148                     l1773:
  6070                           
  6071                           ;Config_ADC.c: 140:     ADCON0bits.ADON = 1;
  6072  0148  141F               	bsf	31,0	;volatile
  6073  0149                     l208:
  6074  0149  0008               	return
  6075  014A                     __end_of_ADC_Config:
  6076  007E                     btemp	set	126	;btemp
  6077  007E                     wtemp0	set	126
  6078                           
  6079                           	psect	config
  6080                           
  6081                           ;Config register CONFIG1 @ 0x2007
  6082                           ;	Oscillator Selection bits
  6083                           ;	FOSC = HS, HS oscillator: High-speed crystal/resonator on RA6/OSC2/CLKOUT and RA7/OSC1
      +                          /CLKIN
  6084                           ;	Watchdog Timer Enable bit
  6085                           ;	WDTE = OFF, WDT disabled and can be enabled by SWDTEN bit of the WDTCON register
  6086                           ;	Power-up Timer Enable bit
  6087                           ;	PWRTE = OFF, PWRT disabled
  6088                           ;	RE3/MCLR pin function select bit
  6089                           ;	MCLRE = OFF, RE3/MCLR pin function is digital input, MCLR internally tied to VDD
  6090                           ;	Code Protection bit
  6091                           ;	CP = OFF, Program memory code protection is disabled
  6092                           ;	Data Code Protection bit
  6093                           ;	CPD = OFF, Data memory code protection is disabled
  6094                           ;	Brown Out Reset Selection bits
  6095                           ;	BOREN = ON, BOR enabled
  6096                           ;	Internal External Switchover bit
  6097                           ;	IESO = OFF, Internal/External Switchover mode is disabled
  6098                           ;	Fail-Safe Clock Monitor Enabled bit
  6099                           ;	FCMEN = OFF, Fail-Safe Clock Monitor is disabled
  6100                           ;	Low Voltage Programming Enable bit
  6101                           ;	LVP = OFF, RB3 pin has digital I/O, HV on MCLR must be used for programming
  6102                           ;	In-Circuit Debugger Mode bit
  6103                           ;	DEBUG = 0x1, unprogrammed default
  6104  2007                     	org	8199
  6105  2007  23D2               	dw	9170
  6106                           
  6107                           ;Config register CONFIG2 @ 0x2008
  6108                           ;	Brown-out Reset Selection bit
  6109                           ;	BOR4V = BOR40V, Brown-out Reset set to 4.0V
  6110                           ;	Flash Program Memory Self Write Enable bits
  6111                           ;	WRT = OFF, Write protection off
  6112  2008                     	org	8200
  6113  2008  3FFF               	dw	16383

Data Sizes:
    Strings     20
    Constant    10
    Data        0
    BSS         35
    Persistent  0
    Stack       0

Auto Spaces:
    Space          Size  Autos    Used
    COMMON           14     14      14
    BANK0            80     58      77
    BANK1            80      0      16
    BANK3            96      0       0
    BANK2            96      0       0

Pointer List with Targets:

    sprintf@f	PTR const unsigned char  size(1) Largest target is 5
		 -> STR_2(CODE[5]), 

    sprintf@sp	PTR unsigned char  size(1) Largest target is 8
		 -> data2(BANK1[8]), 

    sprintf@ap	PTR void [1] size(1) Largest target is 2
		 -> ?_sprintf(BANK0[2]), 

    Lcd_Write_String@a	PTR unsigned char  size(2) Largest target is 15
		 -> STR_1(CODE[15]), data2(BANK1[8]), data1(BANK1[8]), 

    data2	PTR unsigned char [8] size(1) Largest target is 2
		 -> ?_sprintf(BANK0[2]), 


Critical Paths under _main in COMMON

    _titulos_LCD->_Lcd_Write_String
    _Lcd_Write_String->_Lcd_Write_Char
    _Lcd_Write_Char->_Lcd_Port
    _Lcd_Set_Cursor->_Lcd_Cmd
    _setup->_initOsc
    _sprintf->___lwmod
    ___lwmod->___lwdiv
    _Lcd_Init->_Lcd_Cmd
    _Lcd_Cmd->_Lcd_Port
    _ADC_channel2->___xxtofl
    _ADC_channel1->___xxtofl
    ___flmul->___xxtofl
    ___fldiv->___xxtofl

Critical Paths under _main in BANK0

    _main->_ADC_channel1
    _main->_ADC_channel2
    _float_to_string->_sprintf
    _ADC_channel2->___fldiv
    _ADC_channel1->___fldiv
    ___fldiv->___flmul

Critical Paths under _main in BANK1

    None.

Critical Paths under _main in BANK3

    None.

Critical Paths under _main in BANK2

    None.

Call Graph Tables:

 ---------------------------------------------------------------------------------
 (Depth) Function   	        Calls       Base Space   Used Autos Params    Refs
 ---------------------------------------------------------------------------------
 (0) _main                                                 2     2      0   12301
                                             56 BANK0      2     2      0
                       _ADC_channel1
                       _ADC_channel2
                           _Lcd_Init
                     _Lcd_Set_Cursor
                   _Lcd_Write_String
                         _USART_Init
                _USART_Init_BaudRate
                    _float_to_string
                              _setup
                        _titulos_LCD
 ---------------------------------------------------------------------------------
 (1) _titulos_LCD                                          1     1      0     768
                                             10 COMMON     1     1      0
                     _Lcd_Set_Cursor
                   _Lcd_Write_String
 ---------------------------------------------------------------------------------
 (2) _Lcd_Write_String                                     7     5      2     362
                                              3 COMMON     7     5      2
                     _Lcd_Write_Char
 ---------------------------------------------------------------------------------
 (3) _Lcd_Write_Char                                       2     2      0      44
                                              1 COMMON     2     2      0
                           _Lcd_Port
 ---------------------------------------------------------------------------------
 (2) _Lcd_Set_Cursor                                       4     3      1     406
                                              4 COMMON     4     3      1
                            _Lcd_Cmd
 ---------------------------------------------------------------------------------
 (1) _setup                                                0     0      0      22
                            _initOsc
 ---------------------------------------------------------------------------------
 (2) _initOsc                                              3     3      0      22
                                              0 COMMON     3     3      0
 ---------------------------------------------------------------------------------
 (1) _float_to_string                                      1     1      0    1697
                                             15 BANK0      1     1      0
                            _sprintf
 ---------------------------------------------------------------------------------
 (2) _sprintf                                             23    18      5    1697
                                              0 BANK0     15    10      5
                             ___bmul
                            ___lwdiv
                            ___lwmod
                            _isdigit
 ---------------------------------------------------------------------------------
 (3) _isdigit                                              2     2      0      68
                                              0 COMMON     2     2      0
 ---------------------------------------------------------------------------------
 (3) ___lwmod                                              6     2      4     311
                                              8 COMMON     6     2      4
                            ___lwdiv (ARG)
 ---------------------------------------------------------------------------------
 (3) ___lwdiv                                              8     4      4     314
                                              0 COMMON     8     4      4
 ---------------------------------------------------------------------------------
 (3) ___bmul                                               4     3      1     168
                                              0 COMMON     4     3      1
 ---------------------------------------------------------------------------------
 (1) _USART_Init_BaudRate                                  0     0      0       0
 ---------------------------------------------------------------------------------
 (1) _USART_Init                                           0     0      0       0
 ---------------------------------------------------------------------------------
 (1) _Lcd_Init                                             2     2      0      66
                                              4 COMMON     2     2      0
                            _Lcd_Cmd
                           _Lcd_Port
 ---------------------------------------------------------------------------------
 (3) _Lcd_Cmd                                              3     3      0      44
                                              1 COMMON     3     3      0
                           _Lcd_Port
 ---------------------------------------------------------------------------------
 (4) _Lcd_Port                                             1     1      0      22
                                              0 COMMON     1     1      0
 ---------------------------------------------------------------------------------
 (1) _ADC_channel2                                         4     4      0    4490
                                             52 BANK0      4     4      0
                         _ADC_Config
                            ___fldiv
                            ___flmul
                           ___xxtofl
 ---------------------------------------------------------------------------------
 (1) _ADC_channel1                                         4     4      0    4490
                                             52 BANK0      4     4      0
                         _ADC_Config
                            ___fldiv
                            ___flmul
                           ___xxtofl
 ---------------------------------------------------------------------------------
 (2) ___xxtofl                                            14    10      4     474
                                              0 COMMON    14    10      4
 ---------------------------------------------------------------------------------
 (2) ___flmul                                             26    18      8    2569
                                              0 BANK0     26    18      8
                          __Umul8_16
                           ___xxtofl (ARG)
 ---------------------------------------------------------------------------------
 (3) __Umul8_16                                            9     7      2     799
                                              0 COMMON     9     7      2
 ---------------------------------------------------------------------------------
 (2) ___fldiv                                             26    18      8    1425
                                             26 BANK0     26    18      8
                            ___flmul (ARG)
                           ___xxtofl (ARG)
 ---------------------------------------------------------------------------------
 (2) _ADC_Config                                           3     3      0      22
                                              0 COMMON     3     3      0
 ---------------------------------------------------------------------------------
 Estimated maximum stack depth 4
 ---------------------------------------------------------------------------------

 Call Graph Graphs:

 _main (ROOT)
   _ADC_channel1
     _ADC_Config
     ___fldiv
       ___flmul (ARG)
         __Umul8_16
         ___xxtofl (ARG)
       ___xxtofl (ARG)
     ___flmul
       __Umul8_16
       ___xxtofl (ARG)
     ___xxtofl
   _ADC_channel2
     _ADC_Config
     ___fldiv
       ___flmul (ARG)
         __Umul8_16
         ___xxtofl (ARG)
       ___xxtofl (ARG)
     ___flmul
       __Umul8_16
       ___xxtofl (ARG)
     ___xxtofl
   _Lcd_Init
     _Lcd_Cmd
       _Lcd_Port
     _Lcd_Port
   _Lcd_Set_Cursor
     _Lcd_Cmd
       _Lcd_Port
   _Lcd_Write_String
     _Lcd_Write_Char
       _Lcd_Port
   _USART_Init
   _USART_Init_BaudRate
   _float_to_string
     _sprintf
       ___bmul
       ___lwdiv
       ___lwmod
         ___lwdiv (ARG)
       _isdigit
   _setup
     _initOsc
   _titulos_LCD
     _Lcd_Set_Cursor
       _Lcd_Cmd
         _Lcd_Port
     _Lcd_Write_String
       _Lcd_Write_Char
         _Lcd_Port

 Address spaces:
Name               Size   Autos  Total    Cost      Usage
BITCOMMON            E      0       0       0        0.0%
EEDATA             100      0       0       0        0.0%
NULL                 0      0       0       0        0.0%
CODE                 0      0       0       0        0.0%
COMMON               E      E       E       1      100.0%
BITSFR0              0      0       0       1        0.0%
SFR0                 0      0       0       1        0.0%
BITSFR1              0      0       0       2        0.0%
SFR1                 0      0       0       2        0.0%
STACK                0      0       0       2        0.0%
ABS                  0      0      6B       3        0.0%
BITBANK0            50      0       0       4        0.0%
BITSFR3              0      0       0       4        0.0%
SFR3                 0      0       0       4        0.0%
BANK0               50     3A      4D       5       96.2%
BITSFR2              0      0       0       5        0.0%
SFR2                 0      0       0       5        0.0%
BITBANK1            50      0       0       6        0.0%
BANK1               50      0      10       7       20.0%
BITBANK3            60      0       0       8        0.0%
BANK3               60      0       0       9        0.0%
BITBANK2            60      0       0      10        0.0%
BANK2               60      0       0      11        0.0%
DATA                 0      0      6B      12        0.0%


Microchip Technology PIC Macro Assembler V2.31 build 20201012212115 
Symbol Table                                                                                   Fri Feb 12 07:41:37 2021

                ___fldiv@aexp 0053                  ___fldiv@bexp 0052                             pc 0002  
                ___fldiv@sign 004B                ___bmul@product 0072                            l81 0C79  
                          l93 0F45                            l87 0EE1                            l96 0CA3  
                          l99 0CEF                            fsr 0004           __size_of_ADC_Config 00BC  
         __Umul8_16@word_mpld 0076                           l110 0E3C                           l111 0E42  
                         l200 00CF                           l112 0E48                           l201 00D6  
                         l113 0E4E                           l105 0E24                           l202 00DD  
                         l114 0E54                           l106 0E7C                           l203 00E4  
                         l131 0C3B                           l115 0E7D                           l107 0E2A  
                         l204 00EB                           l108 0E30                           l205 00F2  
                         l109 0E36                           l206 00F9                           l134 0CD3  
                         l207 0100                           l223 0C53                           l143 0027  
                         l208 0149                           l128 0E21                           l152 0D92  
                         l226 0C35                           l146 0CB9                           l190 0090  
                         l350 02AC                           l192 0097                           l193 009E  
                         l194 00A5                           l195 00AC                           l196 00B3  
                         l380 0C8E                           l197 00BA                           l198 00C1  
                         l199 00C8                           l703 0309                           l800 0FC9  
                         l705 0489                           l801 0FD5                           l626 0DD6  
                         l636 0D50                           l725 046D                           l727 047D  
                         l719 03FB                           l743 07EA                           l807 0C65  
                         l762 0D04                           l755 07DE                           l764 0D16  
                         l749 0756                           l793 0FAD                           l787 0F68  
                         l789 0FFF                           _VAL 0068                           fsr0 0004  
                         indf 0000                  ___flmul@aexp 0032                  ___flmul@bexp 0033  
                 _titulos_LCD 0C66                  ___flmul@sign 002D                  ___flmul@temp 0038  
                ___flmul@prod 0034                          l2001 0443                          l2011 0473  
                        l2003 0451                          l2013 0477                          l2005 0460  
                        l2101 06DA                          l2021 048A                          l2015 0479  
                        l2007 0464                          l2111 0726                          l2103 0702  
                        l2031 04A1                          l2023 0491                          l2009 046C  
                        l2121 073B                          l2113 0727                          l2105 070B  
                        l2041 04BD                          l2033 04A6                          l2025 0497  
                        l2201 0FF7                          l2131 0760                          l2123 073F  
                        l2115 0730                          l2107 0719                          l2051 04D2  
                        l2043 04C3                          l2035 04AE                          l2027 049B  
                        l2211 0CDF                          l2141 079E                          l2133 076E  
                        l2125 0753                          l2109 0722                          l2117 0736  
                        l2061 04EE                          l2053 04DA                          l2045 04C7  
                        l2037 04B0                          l2029 049C                          l2221 0CE7  
                        l2213 0CE3                          l2205 0CD4                          l2301 0081  
                        l2151 07D2                          l2143 07A9                          l2135 0772  
                        l2119 073A                          l2071 0531                          l2055 04DC  
                        l2047 04C8                          l2039 04B8                          l2231 0CEE  
                        l2223 0CE8                          l2215 0CE4                          l2207 0CDA  
                        l2153 07D6                          l2145 07B8                          l2137 078B  
                        l2129 075B                          l2081 05BA                          l2073 054D  
                        l2065 04F7                          l2057 04E4                          l2049 04CD  
                        l2161 0F47                          l2241 0DDD                          l2233 0C44  
                        l2225 0CEB                          l2217 0CE5                          l2209 0CDE  
                        l2155 07D7                          l2147 07C2                          l2139 0791  
                        l2091 062D                          l2083 05CA                          l2075 0579  
                        l2067 0507                          l2059 04E9                          l2163 0F4C  
                        l2243 0DE6                          l2235 0C52                          l2227 0CEC  
                        l2219 0CE6                          l2251 0C70                          l2157 07E2  
                        l2149 07C4                          l2093 064A                          l2085 05E7  
                        l2077 0595                          l2069 0514                          l2181 0F96  
                        l2173 0F79                          l2165 0F50                          l2261 0EDD  
                        l2253 0E7E                          l2245 0DF5                          l2237 0C31  
                        l1701 0DD2                          l2229 0CED                          l2095 0677  
                        l2087 05F7                          l2079 05B1                          l2191 0FCD  
                        l2183 0FA4                          l2175 0F7E                          l2167 0F60  
                        l2255 0E84                          l2271 0F41                          l2263 0EE2  
                        l1631 0C37                          l2247 0DFB                          l2239 0DD7  
                        l1711 0D27                          l2097 0687                          l2089 0614  
                        l2193 0FD7                          l2185 0FB4                          l2177 0F8B  
                        l2169 0F70                          l2257 0E8E                          l2265 0EE8  
                        l1641 0CD0                          l1633 0CBB                          l1721 0D46  
                        l1713 0D2B                          l1705 0D17                          l1801 0197  
                        l2273 0C8F                          l2249 0C66                          l2281 0037  
                        l1731 0CFA                          l2099 06B4                          l2195 0FED  
                        l2187 0FBF                          l2179 0F92                          l2259 0E92  
                        l2267 0EF2                          l1635 0CBE                          l1715 0D2F  
                        l1707 0D1D                          l1723 0D4C                          l1811 01D0  
                        l1803 01A8                          l1651 0CB6                          l1643 0CA5  
                        l2291 0055                          l2283 003C                          l2275 0028  
                        l1901 02E1                          l1733 0CFE                          l2197 0FF2  
                        l2189 0FC3                          l2269 0EF6                          l1637 0CC4  
                        l1717 0D39                          l1709 0D20                          l1661 0C64  
                        l1653 0C55                          l1821 01E6                          l1813 01D4  
                        l1741 0005                          l1645 0CA8                          l2293 005F  
                        l2285 0041                          l2277 002D                          l1911 02F6  
                        l1903 02E7                          l1735 0D0D                          l1727 0CF1  
                        l2199 0FF6                          l1639 0CC7                          l1671 0C84  
                        l1719 0D3F                          l1655 0C56                          l1823 01EC  
                        l1815 01D8                          l1807 01A9                          l1751 0021  
                        l1743 000A                          l1647 0CAE                          l2295 0064  
                        l2287 0046                          l2279 0032                          l1761 008F  
                        l1921 031D                          l1913 02FE                          l1905 02EB  
                        l1737 0D12                          l1729 0CF3                          l1673 0C86  
                        l1665 0C7B                          l1681 0D95                          l1657 0C5C  
                        l1841 023D                          l1833 020E                          l1825 01F0  
                        l1817 01DC                          l1809 01C8                          l1745 000F  
                        l1649 0CB1                          l1753 0D51                          l2297 006C  
                        l2289 0050                          l1771 0147                          l1923 0321  
                        l1915 02FF                          l1907 02EC                          l1675 0C8D  
                        l1667 0C7C                          l1691 0DAD                          l1683 0D9B  
                        l1659 0C62                          l1851 0285                          l1843 0243  
                        l1835 0218                          l1819 01E1                          l2395 0E62  
                        l1747 0016                          l1755 0D54                          l2299 0075  
                        l1773 0148                          l1765 0107                          l1941 0362  
                        l1933 0338                          l1909 02F1                          l1917 0301  
                        l1669 0C80                          l1693 0DBE                          l1685 0D9E  
                        l1845 024B                          l1837 0228                          l1829 01F2  
                        l2397 01BD                          l1781 0152                          l1749 001C  
                        l1757 0D70                          l2399 010F                          l1767 0141  
                        l1951 0380                          l1943 0364                          l1935 034A  
                        l1919 0311                          l1927 032A                          l1695 0DC4  
                        l1687 0DA5                          l1679 0D93                          l1847 0252  
                        l1855 028D                          l1839 0229                          l1791 0171  
                        l1783 0158                          l1759 0D76                          l1769 0144  
                        l1945 0369                          l1953 0389                          l1961 03AE  
                        l1937 0352                          l1929 032F                          l1881 02B4  
                        l1697 0DC5                          l1689 0DA9                          l1849 0257  
                        l1793 0175                          l1785 015F                          l1857 0296  
                        l1873 0E5A                          l1971 03CB                          l1963 03B4  
                        l1955 039B                          l1947 037B                          l1939 035A  
                        l1891 02C9                          l1883 02BA                          l1699 0DCC  
                        l1859 02A8                          l1795 0177                          l1787 0164  
                        l1779 014D                          l1981 03E0                          l1973 03CC  
                        l1965 03BC                          l1957 039C                          l1949 037F  
                        l1893 02D1                          l1885 02BE                          l1797 0188  
                        l1789 0165                          l1869 0E23                          l1991 0405  
                        l1983 03E4                          l1975 03D5                          l1967 03BE  
                        l1959 03AA                          l1895 02D2                          l1887 02BF  
                        l1879 02AD                          l1799 0193                          l1993 0413  
                        l1985 03F8                          l1969 03C7                          l1977 03DB  
                        l1889 02C4                          l1897 02D4                          l1995 0417  
                        l1979 03DF                          l1899 02DC                          l1997 0430  
                        l1989 0400                          l1999 0436                          STR_1 081A  
                        STR_2 0829                          u2001 05A3                          u2002 05AA  
                        u2003 05B1                          u2100 06E8                          u1300 0DBE  
                        u1220 0C5C                          u2021 05D9                          u1301 0DBD  
                        u1221 0C5B                          u2022 05E0                          u1230 0C62  
                        u2111 06F4                          u2031 0606                          u2023 05E7  
                        u2015 05B3                          u1231 0C61                          u2200 0760  
                        u2112 06FB                          u2032 060D                          u1240 0C80  
                        u1320 0DD2                          u2201 075F                          u2113 0702  
                        u2105 06E3                          u2033 0614                          u1241 0C7F  
                        u1321 0DD1                          u1305 0DBA                          u1410 0D12  
                        u2210 0772                          u1250 0C8D                          u1330 0D1D  
                        u1411 0D11                          u2211 0771                          u2051 063C  
                        u1251 0C8C                          u1315 0DC6                          u1331 0D1C  
                        u2220 0781                          u2140 0726                          u2052 0643  
                        u2300 0F91                          u1260 0D9B                          u1500 01D8  
                        u1420 000A                          u1405 0D05                          u2141 0725  
                        u2125 0704                          u2061 0669                          u2053 064A  
                        u2045 0616                          u2301 0F90                          u1261 0D9A  
                        u1501 01D7                          u1421 0009                          u2230 079E  
                        u2062 0670                          u1350 0D2F                          u1510 01E6  
                        u1430 001C                          u2231 079D                          u2135 071B  
                        u2071 0696                          u2063 0677                          u1351 0D2E  
                        u1511 01E5                          u1431 001B                          u1600 02BE  
                        u2240 07B8                          u2160 073A                          u2080 06C0  
                        u2072 069D                          u2320 0FB3                          u2400 0EE1  
                        u1280 0DAD                          u1360 0D39                          u1520 01EC  
                        u1440 0D5E                          u1601 02BD                          u2241 07B7  
                        u2225 077C                          u2161 0739                          u2073 06A4  
                        u2321 0FB2                          u2401 0EE0                          u1281 0DAC  
                        u1361 0D38                          u1345 0D21                          u1521 01EB  
                        u1610 02C4                          u2250 07D6                          u2170 073F  
                        u2410 0F45                          u1530 020D                          u1450 0D80  
                        u1611 02C3                          u2251 07D5                          u2235 079A  
                        u2171 073E                          u2155 0729                          u2091 06CC  
                        u2315 0FA5                          u2411 0F44                          u1275 0D9F  
                        u1531 020C                          u1620 02C9                          u2180 0753  
                        u2092 06D3                          u2340 0FC3                          u2260 0F4C  
                        u1380 0D4C                          u1540 0218                          u1460 0D92  
                        u1621 02C8                          u2245 07B4                          u2181 0752  
                        u2093 06DA                          u2085 06BB                          u2341 0FC2  
                        u2261 0F4B                          u1381 0D4B                          u1365 0D35  
                        u1541 0217                          u1461 0D91                          u1710 037F  
                        u1630 02EB                          u1390 0CFE                          u2190 075A  
                        u2350 0FC9                          u2270 0F50                          u1550 0228  
                        u1470 0158                          u1711 037E                          u1631 02EA  
                        u1391 0CFD                          u2191 0759                          u2351 0FC8  
                        u2335 0FB8                          u2271 0F4F                          u1295 0DAE  
                        u1375 0D40                          u1551 0227                          u1535 0209  
                        u1471 0157                          u1800 03E4                          u1640 02F1  
                        u2360 0FCD                          u2280 0F70                          u1560 023D  
                        u1480 0171                          u1801 03E3                          u1705 0374  
                        u1641 02F0                          u2361 0FCC                          u2281 0F6F  
                        u1561 023C                          u1481 0170                          u1810 03F8  
                        u1730 039B                          u1650 02F6                          u2370 0FE2  
                        u1570 024B                          u1490 01A7                          u1811 03F7  
                        u1731 039A                          u1651 02F5                          u2507 0EEE  
                        u1571 024A                          u1555 0224                          u1491 01A6  
                        u1820 03FF                          u1740 03B4                          u1660 0311  
                        u1900 04A1                          u2380 0FF2                          u1580 0296  
                        u1821 03FE                          u1741 03B3                          u1725 0382  
                        u1661 0310                          u1901 04A0                          u2381 0FF1  
                        u2517 0E8A                          u1581 0295                          u1565 0239  
                        u2437 004C                          u1830 0405                          u1750 03BC  
                        u1670 032F                          u1910 04A6                          u2390 0FF6  
                        u1590 02A8                          u1831 0404                          u1751 03BB  
                        u1735 0397                          u1671 032E                          u1911 04A5  
                        u2391 0FF5                          u2375 0FDD                          u2295 0F83  
                        u1591 02A7                          u2447 005B                          u1840 0417  
                        u1680 0369                          u1920 04C7                          u1841 0416  
                        u1681 0368                          u1921 04C6                          u2457 0CB3  
                        u1850 0426                          u1770 03CB                          u1930 04CD  
                        u1771 03CA                          u1931 04CC                          u2467 0DE1  
                        u1860 0443                          u1940 04D2                          u1861 0442  
                        u1765 03C0                          u1941 04D1                          u2477 0DF0  
                        u1870 0460                          u1790 03DF                          u1950 04E9  
                        u1871 045F                          u1855 0421                          u1791 03DE  
                        u1695 036B                          u1951 04E8                          u2487 0DFF  
                        u1880 0477                          u1960 04EE                          u1881 0476  
                        u1865 043F                          u1785 03CE                          u1961 04ED  
                        u2497 0CCB                          u1890 049B                          u1875 045C  
                        u1971 053F                          u1891 049A                          u1972 0546  
                        u1981 055B                          u1973 054D                          u1982 0562  
                        u1991 0587                          u1983 0569                          u1992 058E  
                        u1993 0595             ?_Lcd_Write_String 0073                          _main 0028  
                        btemp 007E                          start 0000            ??_Lcd_Write_String 0075  
             ___fldiv@new_exp 004C               __end_of_Lcd_Cmd 0CD4             ___bmul@multiplier 0073  
                       ?_main 0070               __end_of___fldiv 048A               __end_of___flmul 07EB  
                       _ANSEL 0188               __end_of___lwdiv 0DD7               __end_of___lwmod 0D51  
                       _RCREG 001A                         _SPBRG 0099                         _PORTA 0005  
                       _PORTB 0006                         _PORTC 0007                         _PORTD 0008  
                       _PORTE 0009       __size_of_Lcd_Set_Cursor 0024                         _TRISA 0085  
                       _TRISB 0086                         _TRISD 0088                         _TRISE 0089  
            ADC_Config@AN_num 0072                         _data1 00A8                         _data2 00A0  
             __end_of_dpowers 081A               __end_of_initOsc 0E7E               __end_of_isdigit 0C66  
                       _setup 0CD4                         pclath 000A                         status 0003  
                       wtemp0 007E               __end_of_sprintf 02AD                   ?_USART_Init 0070  
            __end_of_Lcd_Init 0E22         __size_of_ADC_channel1 0064         __size_of_ADC_channel2 0064  
            __end_of_Lcd_Port 0C3C               __initialization 07EB                  __end_of_main 008E  
                      ??_main 0058                        _ADCON1 009F                        _ADRESH 001E  
                      _ADRESL 009E                   initOsc@IRCF 0072           _USART_Init_BaudRate 0C31  
                      ?_setup 0070                        _ANSELH 0189                  ??_ADC_Config 0070  
                _ADC_channel1 0E7E                  _ADC_channel2 0EE2                     ??_Lcd_Cmd 0071  
                      _S1_val 005E                        _S2_val 005A       __size_of_Lcd_Write_Char 0016  
            __end_of___xxtofl 1000                        ___bmul 0C7A                     ??___fldiv 0042  
                   ??___flmul 0028          ?_USART_Init_BaudRate 0070                     ??___lwdiv 0074  
                   ??___lwmod 007C            __end_of_ADC_Config 014A               _float_to_string 0C8F  
                   ??_initOsc 0070                     ??_isdigit 0070            __size_of__Umul8_16 0027  
         __size_of_USART_Init 0010                     ??_sprintf 0025               Lcd_Set_Cursor@a 0076  
             Lcd_Set_Cursor@b 0074                  ___xxtofl@arg 007A                  ___xxtofl@exp 0079  
                ___xxtofl@val 0070       __end_of__initialization 07FC           ___bmul@multiplicand 0070  
              __pcstackCOMMON 0070         ??_USART_Init_BaudRate 0070                 __end_of_setup 0CF0  
              _Lcd_Set_Cursor 0004                  ?_titulos_LCD 0070                     ?_Lcd_Init 0070  
                   ?_Lcd_Port 0070                       ??_setup 0073                    __pbssBANK0 005A  
                  __pbssBANK1 00A0             __end_of__Umul8_16 0D17                    __pmaintext 0028  
                     ?___bmul 0070       __end_of_float_to_string 0CA4     __size_of_Lcd_Write_String 0042  
      __end_of_Lcd_Set_Cursor 0028                     ?___xxtofl 0070                       _S3_cont 006C  
                  ??_Lcd_Init 0074                    ??_Lcd_Port 0070                    __stringtab 0800  
                  _cont_usart 006A                _Lcd_Write_Char 0CA4                       _Lcd_Cmd 0CBA  
                ??_USART_Init 0070               __size_of___bmul 0015                       ___fldiv 02AD  
                     ___flmul 048A                       ___lwdiv 0D93                       ___lwmod 0D17  
             ?_Lcd_Set_Cursor 0074                       __ptext1 0C66                       __ptext2 0D51  
                     __ptext3 0CA4                       __ptext4 0004                       __ptext5 0CD4  
                     __ptext6 0E22                       __ptext7 0C8F                       __ptext8 014A  
                     __ptext9 0C54                       _dpowers 0810                       _initOsc 0E22  
                     _isdigit 0C54                    ??___xxtofl 0074            __end_of_USART_Init 0C54  
                     _sprintf 014A                       clrloop0 0C3D        __end_of_Lcd_Write_Char 0CBA  
        end_of_initialization 07FC                     _RCSTAbits 0018                     Lcd_Port@a 0070  
            ?_float_to_string 0070                     _PORTEbits 0009                 ___xxtofl@sign 0078  
                   _TRISCbits 0087                   ___fldiv@grs 004E                   ___fldiv@rem 0047  
        __size_of_titulos_LCD 0014               ?_Lcd_Write_Char 0070             Lcd_Write_String@a 0073  
           Lcd_Write_String@i 0078                   ___flmul@grs 002E                     _TXSTAbits 0098  
              __end_of___bmul 0C8F              _Lcd_Write_String 0D51           start_initialization 07EB  
           __size_of_Lcd_Init 004B             __size_of_Lcd_Port 0006   __end_of_USART_Init_BaudRate 0C36  
                    ??___bmul 0071                     __Umul8_16 0CF0               Lcd_Write_Char@a 0072  
                   ___fldiv@a 003A                     ___fldiv@b 003E                     ___flmul@a 0024  
                   ___flmul@b 0020                     ___latbits 0002                 __pcstackBANK0 0020  
           __size_of___xxtofl 00BA                      ?_Lcd_Cmd 0070                   sprintf@flag 0029  
                 sprintf@prec 002D              ___lwdiv@dividend 0072              ??_Lcd_Set_Cursor 0075  
                    ?___fldiv 003A                      ?___flmul 0020                    ?__Umul8_16 0070  
                    ?___lwdiv 0070                      ?___lwmod 0078                     __pstrings 0800  
                    ?_initOsc 0070                      ?_isdigit 0070              ___lwdiv@quotient 0075  
                    ?_sprintf 0020                __size_of_setup 001C                 ?_ADC_channel1 0070  
               ?_ADC_channel2 0070                     clear_ram0 0C3C                      _PIE1bits 008C  
                    Lcd_Cmd@a 0073                      _VAL_SWAP 0066                    _ADCON0bits 001F  
                 __stringbase 080F              ??_Lcd_Write_Char 0071                      _Lcd_Init 0DD7  
                    _Lcd_Port 0C36                ??_ADC_channel1 0054                ??_ADC_channel2 0054  
                  _ADC_Config 008E      __end_of_Lcd_Write_String 0D93              __size_of_Lcd_Cmd 001A  
                 ??__Umul8_16 0072              __size_of___fldiv 01DD              __size_of___flmul 0361  
            __size_of___lwdiv 0044              __size_of___lwmod 003A            __end_of__stringtab 0810  
                 _isdigit$954 0070                    sprintf@val 002B                      ___xxtofl 0F46  
               ??_titulos_LCD 007A              __size_of_initOsc 005C      __size_of_float_to_string 0015  
            __size_of_isdigit 0012               ___lwdiv@divisor 0070               ___lwdiv@counter 0077  
                    __ptext10 0D17                      __ptext11 0D93                      __ptext20 0F46  
                    __ptext12 0C7A                      __ptext21 048A                      __ptext13 0C31  
                    __ptext22 0CF0                      __ptext14 0C44                      __ptext23 02AD  
                    __ptext15 0DD7                      __ptext24 008E                      __ptext16 0CBA  
                    __ptext17 0C36                      __ptext18 0EE2                      __ptext19 0E7E  
                 _eusart_flag 006B              __size_of_sprintf 0163                 __size_of_main 0066  
                  _INTCONbits 000B                   _VAL_NIBBLE1 0064                   _VAL_NIBBLE2 0062  
                    isdigit@c 0071                     sprintf@ap 0028                     sprintf@sp 002A  
                 ?_ADC_Config 0070           __end_of_titulos_LCD 0C7A              ___lwmod@dividend 007A  
                   stringcode 080A                    _OSCCONbits 008F  __size_of_USART_Init_BaudRate 0005  
        __end_of_ADC_channel1 0EE2          __end_of_ADC_channel2 0F46            Lcd_Set_Cursor@temp 0077  
      __Umul8_16@multiplicand 0070                      sprintf@c 002E                      sprintf@f 0020  
             ___lwmod@divisor 0078               ___lwmod@counter 007D                      stringdir 080A  
                    stringtab 0800             ??_float_to_string 002F          __Umul8_16@multiplier 0078  
                  _USART_Init 0C44             __Umul8_16@product 0074  
