

Microchip MPLAB XC8 Assembler V2.31 build 20201012212115 
                                                                                               Mon Feb 08 07:50:29 2021

Microchip MPLAB XC8 C Compiler v2.31 (Free license) build 20201012212115 Og1 
     1                           	processor	16F887
     2                           	pagewidth 120
     3                           	opt	flic
     4                           	psect	cinit,global,class=CODE,merge=1,delta=2
     5                           	psect	bssCOMMON,global,class=COMMON,space=1,delta=1,noexec
     6                           	psect	bssBANK0,global,class=BANK0,space=1,delta=1,noexec
     7                           	psect	cstackCOMMON,global,class=COMMON,space=1,delta=1,noexec
     8                           	psect	cstackBANK0,global,class=BANK0,space=1,delta=1,noexec
     9                           	psect	maintext,global,class=CODE,split=1,delta=2
    10                           	psect	text1,local,class=CODE,merge=1,delta=2
    11                           	psect	text2,local,class=CODE,merge=1,delta=2
    12                           	psect	text3,local,class=CODE,merge=1,delta=2
    13                           	psect	text4,local,class=CODE,merge=1,delta=2
    14                           	psect	intentry,global,class=CODE,delta=2
    15                           	psect	text5,local,class=CODE,merge=1,delta=2
    16                           	psect	text6,local,class=CODE,merge=1,delta=2
    17                           	psect	config,global,abs,ovrld,class=CONFIG,space=4,delta=2,noexec
    18                           	dabs	1,0x7E,2
    19  0000                     
    20                           ; Version 2.20
    21                           ; Generated 12/02/2020 GMT
    22                           ; 
    23                           ; Copyright © 2020, Microchip Technology Inc. and its subsidiaries ("Microchip")
    24                           ; All rights reserved.
    25                           ; 
    26                           ; This software is developed by Microchip Technology Inc. and its subsidiaries ("Microch
      +                          ip").
    27                           ; 
    28                           ; Redistribution and use in source and binary forms, with or without modification, are
    29                           ; permitted provided that the following conditions are met:
    30                           ; 
    31                           ;     1. Redistributions of source code must retain the above copyright notice, this lis
      +                          t of
    32                           ;        conditions and the following disclaimer.
    33                           ; 
    34                           ;     2. Redistributions in binary form must reproduce the above copyright notice, this 
      +                          list
    35                           ;        of conditions and the following disclaimer in the documentation and/or other
    36                           ;        materials provided with the distribution.
    37                           ; 
    38                           ;     3. Microchip's name may not be used to endorse or promote products derived from th
      +                          is
    39                           ;        software without specific prior written permission.
    40                           ; 
    41                           ; THIS SOFTWARE IS PROVIDED BY MICROCHIP "AS IS" AND ANY EXPRESS OR IMPLIED WARRANTIES,
    42                           ; INCLUDING, BUT NOT LIMITED TO, THE IMPLIED WARRANTIES OF MERCHANTABILITY AND FITNESS F
      +                          OR
    43                           ; PURPOSE ARE DISCLAIMED.  IN NO EVENT SHALL MICROCHIP BE LIABLE FOR ANY DIRECT, INDIREC
      +                          T,
    44                           ; INCIDENTAL, SPECIAL, EXEMPLARY, OR CONSEQUENTIAL DAMAGES (INCLUDING BUT NOT LIMITED TO
    45                           ; PROCUREMENT OF SUBSTITUTE GOODS OR SERVICES; LOSS OF USE, DATA OR PROFITS; OR BUSINESS
    46                           ; INTERRUPTION) HOWSOEVER CAUSED AND ON ANY THEORY OF LIABILITY, WHETHER IN CONTRACT, ST
      +                          RICT
    47                           ; LIABILITY, OR TORT (INCLUDING NEGLIGENCE OR OTHERWISE) ARISING IN ANY WAY OUT OF THE U
      +                          SE OF
    48                           ; THIS SOFTWARE, EVEN IF ADVISED OF THE POSSIBILITY OF SUCH DAMAGE.
    49                           ; 
    50                           ; 
    51                           ; Code-generator required, PIC16F887 Definitions
    52                           ; 
    53                           ; SFR Addresses
    54  0000                     	;# 
    55  0001                     	;# 
    56  0002                     	;# 
    57  0003                     	;# 
    58  0004                     	;# 
    59  0005                     	;# 
    60  0006                     	;# 
    61  0007                     	;# 
    62  0008                     	;# 
    63  0009                     	;# 
    64  000A                     	;# 
    65  000B                     	;# 
    66  000C                     	;# 
    67  000D                     	;# 
    68  000E                     	;# 
    69  000E                     	;# 
    70  000F                     	;# 
    71  0010                     	;# 
    72  0011                     	;# 
    73  0012                     	;# 
    74  0013                     	;# 
    75  0014                     	;# 
    76  0015                     	;# 
    77  0015                     	;# 
    78  0016                     	;# 
    79  0017                     	;# 
    80  0018                     	;# 
    81  0019                     	;# 
    82  001A                     	;# 
    83  001B                     	;# 
    84  001B                     	;# 
    85  001C                     	;# 
    86  001D                     	;# 
    87  001E                     	;# 
    88  001F                     	;# 
    89  0081                     	;# 
    90  0085                     	;# 
    91  0086                     	;# 
    92  0087                     	;# 
    93  0088                     	;# 
    94  0089                     	;# 
    95  008C                     	;# 
    96  008D                     	;# 
    97  008E                     	;# 
    98  008F                     	;# 
    99  0090                     	;# 
   100  0091                     	;# 
   101  0092                     	;# 
   102  0093                     	;# 
   103  0093                     	;# 
   104  0093                     	;# 
   105  0094                     	;# 
   106  0095                     	;# 
   107  0096                     	;# 
   108  0097                     	;# 
   109  0098                     	;# 
   110  0099                     	;# 
   111  009A                     	;# 
   112  009B                     	;# 
   113  009C                     	;# 
   114  009D                     	;# 
   115  009E                     	;# 
   116  009F                     	;# 
   117  0105                     	;# 
   118  0107                     	;# 
   119  0108                     	;# 
   120  0109                     	;# 
   121  010C                     	;# 
   122  010C                     	;# 
   123  010D                     	;# 
   124  010E                     	;# 
   125  010F                     	;# 
   126  0185                     	;# 
   127  0187                     	;# 
   128  0188                     	;# 
   129  0189                     	;# 
   130  018C                     	;# 
   131  018D                     	;# 
   132  0000                     	;# 
   133  0001                     	;# 
   134  0002                     	;# 
   135  0003                     	;# 
   136  0004                     	;# 
   137  0005                     	;# 
   138  0006                     	;# 
   139  0007                     	;# 
   140  0008                     	;# 
   141  0009                     	;# 
   142  000A                     	;# 
   143  000B                     	;# 
   144  000C                     	;# 
   145  000D                     	;# 
   146  000E                     	;# 
   147  000E                     	;# 
   148  000F                     	;# 
   149  0010                     	;# 
   150  0011                     	;# 
   151  0012                     	;# 
   152  0013                     	;# 
   153  0014                     	;# 
   154  0015                     	;# 
   155  0015                     	;# 
   156  0016                     	;# 
   157  0017                     	;# 
   158  0018                     	;# 
   159  0019                     	;# 
   160  001A                     	;# 
   161  001B                     	;# 
   162  001B                     	;# 
   163  001C                     	;# 
   164  001D                     	;# 
   165  001E                     	;# 
   166  001F                     	;# 
   167  0081                     	;# 
   168  0085                     	;# 
   169  0086                     	;# 
   170  0087                     	;# 
   171  0088                     	;# 
   172  0089                     	;# 
   173  008C                     	;# 
   174  008D                     	;# 
   175  008E                     	;# 
   176  008F                     	;# 
   177  0090                     	;# 
   178  0091                     	;# 
   179  0092                     	;# 
   180  0093                     	;# 
   181  0093                     	;# 
   182  0093                     	;# 
   183  0094                     	;# 
   184  0095                     	;# 
   185  0096                     	;# 
   186  0097                     	;# 
   187  0098                     	;# 
   188  0099                     	;# 
   189  009A                     	;# 
   190  009B                     	;# 
   191  009C                     	;# 
   192  009D                     	;# 
   193  009E                     	;# 
   194  009F                     	;# 
   195  0105                     	;# 
   196  0107                     	;# 
   197  0108                     	;# 
   198  0109                     	;# 
   199  010C                     	;# 
   200  010C                     	;# 
   201  010D                     	;# 
   202  010E                     	;# 
   203  010F                     	;# 
   204  0185                     	;# 
   205  0187                     	;# 
   206  0188                     	;# 
   207  0189                     	;# 
   208  018C                     	;# 
   209  018D                     	;# 
   210  0000                     	;# 
   211  0001                     	;# 
   212  0002                     	;# 
   213  0003                     	;# 
   214  0004                     	;# 
   215  0005                     	;# 
   216  0006                     	;# 
   217  0007                     	;# 
   218  0008                     	;# 
   219  0009                     	;# 
   220  000A                     	;# 
   221  000B                     	;# 
   222  000C                     	;# 
   223  000D                     	;# 
   224  000E                     	;# 
   225  000E                     	;# 
   226  000F                     	;# 
   227  0010                     	;# 
   228  0011                     	;# 
   229  0012                     	;# 
   230  0013                     	;# 
   231  0014                     	;# 
   232  0015                     	;# 
   233  0015                     	;# 
   234  0016                     	;# 
   235  0017                     	;# 
   236  0018                     	;# 
   237  0019                     	;# 
   238  001A                     	;# 
   239  001B                     	;# 
   240  001B                     	;# 
   241  001C                     	;# 
   242  001D                     	;# 
   243  001E                     	;# 
   244  001F                     	;# 
   245  0081                     	;# 
   246  0085                     	;# 
   247  0086                     	;# 
   248  0087                     	;# 
   249  0088                     	;# 
   250  0089                     	;# 
   251  008C                     	;# 
   252  008D                     	;# 
   253  008E                     	;# 
   254  008F                     	;# 
   255  0090                     	;# 
   256  0091                     	;# 
   257  0092                     	;# 
   258  0093                     	;# 
   259  0093                     	;# 
   260  0093                     	;# 
   261  0094                     	;# 
   262  0095                     	;# 
   263  0096                     	;# 
   264  0097                     	;# 
   265  0098                     	;# 
   266  0099                     	;# 
   267  009A                     	;# 
   268  009B                     	;# 
   269  009C                     	;# 
   270  009D                     	;# 
   271  009E                     	;# 
   272  009F                     	;# 
   273  0105                     	;# 
   274  0107                     	;# 
   275  0108                     	;# 
   276  0109                     	;# 
   277  010C                     	;# 
   278  010C                     	;# 
   279  010D                     	;# 
   280  010E                     	;# 
   281  010F                     	;# 
   282  0185                     	;# 
   283  0187                     	;# 
   284  0188                     	;# 
   285  0189                     	;# 
   286  018C                     	;# 
   287  018D                     	;# 
   288  0000                     	;# 
   289  0001                     	;# 
   290  0002                     	;# 
   291  0003                     	;# 
   292  0004                     	;# 
   293  0005                     	;# 
   294  0006                     	;# 
   295  0007                     	;# 
   296  0008                     	;# 
   297  0009                     	;# 
   298  000A                     	;# 
   299  000B                     	;# 
   300  000C                     	;# 
   301  000D                     	;# 
   302  000E                     	;# 
   303  000E                     	;# 
   304  000F                     	;# 
   305  0010                     	;# 
   306  0011                     	;# 
   307  0012                     	;# 
   308  0013                     	;# 
   309  0014                     	;# 
   310  0015                     	;# 
   311  0015                     	;# 
   312  0016                     	;# 
   313  0017                     	;# 
   314  0018                     	;# 
   315  0019                     	;# 
   316  001A                     	;# 
   317  001B                     	;# 
   318  001B                     	;# 
   319  001C                     	;# 
   320  001D                     	;# 
   321  001E                     	;# 
   322  001F                     	;# 
   323  0081                     	;# 
   324  0085                     	;# 
   325  0086                     	;# 
   326  0087                     	;# 
   327  0088                     	;# 
   328  0089                     	;# 
   329  008C                     	;# 
   330  008D                     	;# 
   331  008E                     	;# 
   332  008F                     	;# 
   333  0090                     	;# 
   334  0091                     	;# 
   335  0092                     	;# 
   336  0093                     	;# 
   337  0093                     	;# 
   338  0093                     	;# 
   339  0094                     	;# 
   340  0095                     	;# 
   341  0096                     	;# 
   342  0097                     	;# 
   343  0098                     	;# 
   344  0099                     	;# 
   345  009A                     	;# 
   346  009B                     	;# 
   347  009C                     	;# 
   348  009D                     	;# 
   349  009E                     	;# 
   350  009F                     	;# 
   351  0105                     	;# 
   352  0107                     	;# 
   353  0108                     	;# 
   354  0109                     	;# 
   355  010C                     	;# 
   356  010C                     	;# 
   357  010D                     	;# 
   358  010E                     	;# 
   359  010F                     	;# 
   360  0185                     	;# 
   361  0187                     	;# 
   362  0188                     	;# 
   363  0189                     	;# 
   364  018C                     	;# 
   365  018D                     	;# 
   366  0000                     	;# 
   367  0001                     	;# 
   368  0002                     	;# 
   369  0003                     	;# 
   370  0004                     	;# 
   371  0005                     	;# 
   372  0006                     	;# 
   373  0007                     	;# 
   374  0008                     	;# 
   375  0009                     	;# 
   376  000A                     	;# 
   377  000B                     	;# 
   378  000C                     	;# 
   379  000D                     	;# 
   380  000E                     	;# 
   381  000E                     	;# 
   382  000F                     	;# 
   383  0010                     	;# 
   384  0011                     	;# 
   385  0012                     	;# 
   386  0013                     	;# 
   387  0014                     	;# 
   388  0015                     	;# 
   389  0015                     	;# 
   390  0016                     	;# 
   391  0017                     	;# 
   392  0018                     	;# 
   393  0019                     	;# 
   394  001A                     	;# 
   395  001B                     	;# 
   396  001B                     	;# 
   397  001C                     	;# 
   398  001D                     	;# 
   399  001E                     	;# 
   400  001F                     	;# 
   401  0081                     	;# 
   402  0085                     	;# 
   403  0086                     	;# 
   404  0087                     	;# 
   405  0088                     	;# 
   406  0089                     	;# 
   407  008C                     	;# 
   408  008D                     	;# 
   409  008E                     	;# 
   410  008F                     	;# 
   411  0090                     	;# 
   412  0091                     	;# 
   413  0092                     	;# 
   414  0093                     	;# 
   415  0093                     	;# 
   416  0093                     	;# 
   417  0094                     	;# 
   418  0095                     	;# 
   419  0096                     	;# 
   420  0097                     	;# 
   421  0098                     	;# 
   422  0099                     	;# 
   423  009A                     	;# 
   424  009B                     	;# 
   425  009C                     	;# 
   426  009D                     	;# 
   427  009E                     	;# 
   428  009F                     	;# 
   429  0105                     	;# 
   430  0107                     	;# 
   431  0108                     	;# 
   432  0109                     	;# 
   433  010C                     	;# 
   434  010C                     	;# 
   435  010D                     	;# 
   436  010E                     	;# 
   437  010F                     	;# 
   438  0185                     	;# 
   439  0187                     	;# 
   440  0188                     	;# 
   441  0189                     	;# 
   442  018C                     	;# 
   443  018D                     	;# 
   444  0009                     _PORTEbits	set	9
   445  000B                     _INTCON	set	11
   446  0009                     _PORTE	set	9
   447  0008                     _PORTD	set	8
   448  0007                     _PORTC	set	7
   449  0005                     _PORTA	set	5
   450  0006                     _PORTB	set	6
   451  001E                     _ADRESH	set	30
   452  001F                     _ADCON0bits	set	31
   453  000C                     _PIR1bits	set	12
   454  009F                     _ADCON1	set	159
   455  008F                     _OSCCONbits	set	143
   456  008C                     _PIE1bits	set	140
   457  0089                     _TRISE	set	137
   458  0088                     _TRISD	set	136
   459  0087                     _TRISC	set	135
   460  0086                     _TRISB	set	134
   461  0085                     _TRISA	set	133
   462  009E                     _ADRESL	set	158
   463  0189                     _ANSELH	set	393
   464  0188                     _ANSEL	set	392
   465                           
   466                           	psect	cinit
   467  0011                     start_initialization:	
   468                           ; #config settings
   469                           
   470  0011                     __initialization:
   471                           
   472                           ; Clear objects allocated to COMMON
   473  0011  01F8               	clrf	__pbssCOMMON& (0+127)
   474  0012  01F9               	clrf	(__pbssCOMMON+1)& (0+127)
   475  0013  01FA               	clrf	(__pbssCOMMON+2)& (0+127)
   476  0014  01FB               	clrf	(__pbssCOMMON+3)& (0+127)
   477  0015  01FC               	clrf	(__pbssCOMMON+4)& (0+127)
   478  0016  01FD               	clrf	(__pbssCOMMON+5)& (0+127)
   479                           
   480                           ; Clear objects allocated to BANK0
   481  0017  1283               	bcf	3,5	;RP0=0, select bank0
   482  0018  1303               	bcf	3,6	;RP1=0, select bank0
   483  0019  01A0               	clrf	__pbssBANK0& (0+127)
   484  001A  01A1               	clrf	(__pbssBANK0+1)& (0+127)
   485  001B  01A2               	clrf	(__pbssBANK0+2)& (0+127)
   486  001C  01A3               	clrf	(__pbssBANK0+3)& (0+127)
   487  001D  01A4               	clrf	(__pbssBANK0+4)& (0+127)
   488  001E  01A5               	clrf	(__pbssBANK0+5)& (0+127)
   489  001F                     end_of_initialization:	
   490                           ;End of C runtime variable initialization code
   491                           
   492  001F                     __end_of__initialization:
   493  001F  0183               	clrf	3
   494  0020  120A  118A  29C4   	ljmp	_main	;jump to C main() function
   495                           
   496                           	psect	bssCOMMON
   497  0078                     __pbssCOMMON:
   498  0078                     _VAL:
   499  0078                     	ds	2
   500  007A                     _ADC_VALOR_2:
   501  007A                     	ds	2
   502  007C                     _ADC_VALOR_1:
   503  007C                     	ds	2
   504                           
   505                           	psect	bssBANK0
   506  0020                     __pbssBANK0:
   507  0020                     _VAL_NIBBLE2:
   508  0020                     	ds	2
   509  0022                     _VAL_NIBBLE1:
   510  0022                     	ds	2
   511  0024                     _VAL_SWAP:
   512  0024                     	ds	2
   513                           
   514                           	psect	cstackCOMMON
   515  0070                     __pcstackCOMMON:
   516  0070                     ?_ADC_Config:
   517  0070                     ??_ADC_Config:	
   518                           ; 1 bytes @ 0x0
   519                           
   520  0070                     ?_setup:	
   521                           ; 1 bytes @ 0x0
   522                           
   523  0070                     ?_Config_INTERRUPT:	
   524                           ; 1 bytes @ 0x0
   525                           
   526  0070                     ?_initOsc:	
   527                           ; 1 bytes @ 0x0
   528                           
   529  0070                     ?_ISR:	
   530                           ; 1 bytes @ 0x0
   531                           
   532  0070                     ?_main:	
   533                           ; 1 bytes @ 0x0
   534                           
   535  0070                     ?_ADC:	
   536                           ; 1 bytes @ 0x0
   537                           
   538  0070                     ADC@ADRESL_:	
   539                           ; 2 bytes @ 0x0
   540                           
   541  0070                     ADC@ADRESH_:	
   542                           ; 1 bytes @ 0x0
   543                           
   544                           
   545                           ; 1 bytes @ 0x0
   546  0070                     	ds	2
   547  0072                     ADC_Config@AN_num:
   548                           
   549                           ; 1 bytes @ 0x2
   550  0072                     	ds	1
   551  0073                     ??_ADC:
   552  0073                     ??_ISR:	
   553                           ; 1 bytes @ 0x3
   554                           
   555                           
   556                           ; 1 bytes @ 0x3
   557  0073                     	ds	5
   558                           
   559                           	psect	cstackBANK0
   560  0026                     __pcstackBANK0:
   561  0026                     ??_Config_INTERRUPT:
   562  0026                     ??_initOsc:	
   563                           ; 1 bytes @ 0x0
   564                           
   565                           
   566                           ; 1 bytes @ 0x0
   567  0026                     	ds	2
   568  0028                     initOsc@IRCF:
   569                           
   570                           ; 1 bytes @ 0x2
   571  0028                     	ds	1
   572  0029                     ??_setup:
   573  0029                     ??_main:	
   574                           ; 1 bytes @ 0x3
   575                           
   576                           
   577                           	psect	maintext
   578  01C4                     __pmaintext:	
   579                           ; 1 bytes @ 0x3
   580 ;;
   581 ;;Main: autosize = 0, tempsize = 0, incstack = 0, save=0
   582 ;;
   583 ;; *************** function _main *****************
   584 ;; Defined at:
   585 ;;		line 100 in file "pseudocodigo_lab3.c"
   586 ;; Parameters:    Size  Location     Type
   587 ;;		None
   588 ;; Auto vars:     Size  Location     Type
   589 ;;		None
   590 ;; Return value:  Size  Location     Type
   591 ;;                  1    wreg      void 
   592 ;; Registers used:
   593 ;;		wreg, fsr0l, fsr0h, status,2, status,0, pclath, cstack
   594 ;; Tracked objects:
   595 ;;		On entry : B00/0
   596 ;;		On exit  : 0/0
   597 ;;		Unchanged: 0/0
   598 ;; Data sizes:     COMMON   BANK0   BANK1   BANK3   BANK2
   599 ;;      Params:         0       0       0       0       0
   600 ;;      Locals:         0       0       0       0       0
   601 ;;      Temps:          0       0       0       0       0
   602 ;;      Totals:         0       0       0       0       0
   603 ;;Total ram usage:        0 bytes
   604 ;; Hardware stack levels required when called:    4
   605 ;; This function calls:
   606 ;;		_Config_INTERRUPT
   607 ;;		_setup
   608 ;; This function is called by:
   609 ;;		Startup code after reset
   610 ;; This function uses a non-reentrant model
   611 ;;
   612                           
   613                           
   614                           ;psect for function _main
   615  01C4                     _main:
   616  01C4                     l1069:	
   617                           ;incstack = 0
   618                           ; Regs used in _main: [wreg-fsr0h+status,2+status,0+pclath+cstack]
   619                           
   620                           
   621                           ;pseudocodigo_lab3.c: 101:     setup();
   622  01C4  120A  118A  21A1  120A  118A  	fcall	_setup
   623  01C9                     l1071:
   624                           
   625                           ;pseudocodigo_lab3.c: 102:     Config_INTERRUPT();
   626  01C9  120A  118A  21DF  120A  118A  	fcall	_Config_INTERRUPT
   627  01CE                     l69:	
   628                           ;pseudocodigo_lab3.c: 107:     while (1) {
   629                           
   630  01CE                     l70:	
   631                           ;pseudocodigo_lab3.c: 109:     }
   632                           
   633  01CE  29CE               	goto	l69
   634  01CF  120A  118A  280E   	ljmp	start
   635  01D2                     __end_of_main:
   636                           
   637                           	psect	text1
   638  01A1                     __ptext1:	
   639 ;; *************** function _setup *****************
   640 ;; Defined at:
   641 ;;		line 119 in file "pseudocodigo_lab3.c"
   642 ;; Parameters:    Size  Location     Type
   643 ;;		None
   644 ;; Auto vars:     Size  Location     Type
   645 ;;		None
   646 ;; Return value:  Size  Location     Type
   647 ;;                  1    wreg      void 
   648 ;; Registers used:
   649 ;;		wreg, fsr0l, fsr0h, status,2, status,0, pclath, cstack
   650 ;; Tracked objects:
   651 ;;		On entry : 0/0
   652 ;;		On exit  : 0/0
   653 ;;		Unchanged: 0/0
   654 ;; Data sizes:     COMMON   BANK0   BANK1   BANK3   BANK2
   655 ;;      Params:         0       0       0       0       0
   656 ;;      Locals:         0       0       0       0       0
   657 ;;      Temps:          0       0       0       0       0
   658 ;;      Totals:         0       0       0       0       0
   659 ;;Total ram usage:        0 bytes
   660 ;; Hardware stack levels used:    1
   661 ;; Hardware stack levels required when called:    3
   662 ;; This function calls:
   663 ;;		_initOsc
   664 ;; This function is called by:
   665 ;;		_main
   666 ;; This function uses a non-reentrant model
   667 ;;
   668                           
   669                           
   670                           ;psect for function _setup
   671  01A1                     _setup:
   672  01A1                     l1011:	
   673                           ;incstack = 0
   674                           ; Regs used in _setup: [wreg-fsr0h+status,2+status,0+pclath+cstack]
   675                           
   676                           
   677                           ;pseudocodigo_lab3.c: 120:     initOsc(0b00000111);
   678  01A1  3007               	movlw	7
   679  01A2  120A  118A  2143  120A  118A  	fcall	_initOsc
   680  01A7                     l1013:
   681                           
   682                           ;pseudocodigo_lab3.c: 121:     ANSEL = 0b00000011;
   683  01A7  3003               	movlw	3
   684  01A8  1683               	bsf	3,5	;RP0=1, select bank3
   685  01A9  1703               	bsf	3,6	;RP1=1, select bank3
   686  01AA  0088               	movwf	8	;volatile
   687  01AB                     l1015:
   688                           
   689                           ;pseudocodigo_lab3.c: 122:     ANSELH = 0;
   690  01AB  0189               	clrf	9	;volatile
   691  01AC                     l1017:
   692                           
   693                           ;pseudocodigo_lab3.c: 123:     TRISA = 0b00000011;
   694  01AC  3003               	movlw	3
   695  01AD  1683               	bsf	3,5	;RP0=1, select bank1
   696  01AE  1303               	bcf	3,6	;RP1=0, select bank1
   697  01AF  0085               	movwf	5	;volatile
   698  01B0                     l1019:
   699                           
   700                           ;pseudocodigo_lab3.c: 124:     PORTA = 0;
   701  01B0  1283               	bcf	3,5	;RP0=0, select bank0
   702  01B1  1303               	bcf	3,6	;RP1=0, select bank0
   703  01B2  0185               	clrf	5	;volatile
   704  01B3                     l1021:
   705                           
   706                           ;pseudocodigo_lab3.c: 125:     PORTB = 0;
   707  01B3  0186               	clrf	6	;volatile
   708  01B4                     l1023:
   709                           
   710                           ;pseudocodigo_lab3.c: 126:     PORTC = 0;
   711  01B4  0187               	clrf	7	;volatile
   712  01B5                     l1025:
   713                           
   714                           ;pseudocodigo_lab3.c: 127:     TRISB = 0;
   715  01B5  1683               	bsf	3,5	;RP0=1, select bank1
   716  01B6  1303               	bcf	3,6	;RP1=0, select bank1
   717  01B7  0186               	clrf	6	;volatile
   718  01B8                     l1027:
   719                           
   720                           ;pseudocodigo_lab3.c: 128:     TRISC = 0;
   721  01B8  0187               	clrf	7	;volatile
   722  01B9                     l1029:
   723                           
   724                           ;pseudocodigo_lab3.c: 129:     TRISD = 0;
   725  01B9  0188               	clrf	8	;volatile
   726  01BA                     l1031:
   727                           
   728                           ;pseudocodigo_lab3.c: 130:     PORTD = 0;
   729  01BA  1283               	bcf	3,5	;RP0=0, select bank0
   730  01BB  1303               	bcf	3,6	;RP1=0, select bank0
   731  01BC  0188               	clrf	8	;volatile
   732  01BD                     l1033:
   733                           
   734                           ;pseudocodigo_lab3.c: 131:     TRISE = 0;
   735  01BD  1683               	bsf	3,5	;RP0=1, select bank1
   736  01BE  1303               	bcf	3,6	;RP1=0, select bank1
   737  01BF  0189               	clrf	9	;volatile
   738  01C0                     l1035:
   739                           
   740                           ;pseudocodigo_lab3.c: 132:     PORTE = 0;
   741  01C0  1283               	bcf	3,5	;RP0=0, select bank0
   742  01C1  1303               	bcf	3,6	;RP1=0, select bank0
   743  01C2  0189               	clrf	9	;volatile
   744  01C3                     l75:
   745  01C3  0008               	return
   746  01C4                     __end_of_setup:
   747                           
   748                           	psect	text2
   749  0143                     __ptext2:	
   750 ;; *************** function _initOsc *****************
   751 ;; Defined at:
   752 ;;		line 3 in file "Oscilador.c"
   753 ;; Parameters:    Size  Location     Type
   754 ;;  IRCF            1    wreg     unsigned char 
   755 ;; Auto vars:     Size  Location     Type
   756 ;;  IRCF            1    2[BANK0 ] unsigned char 
   757 ;; Return value:  Size  Location     Type
   758 ;;                  1    wreg      void 
   759 ;; Registers used:
   760 ;;		wreg, fsr0l, fsr0h, status,2, status,0
   761 ;; Tracked objects:
   762 ;;		On entry : 0/0
   763 ;;		On exit  : 0/0
   764 ;;		Unchanged: 0/0
   765 ;; Data sizes:     COMMON   BANK0   BANK1   BANK3   BANK2
   766 ;;      Params:         0       0       0       0       0
   767 ;;      Locals:         0       1       0       0       0
   768 ;;      Temps:          0       2       0       0       0
   769 ;;      Totals:         0       3       0       0       0
   770 ;;Total ram usage:        3 bytes
   771 ;; Hardware stack levels used:    1
   772 ;; Hardware stack levels required when called:    2
   773 ;; This function calls:
   774 ;;		Nothing
   775 ;; This function is called by:
   776 ;;		_setup
   777 ;; This function uses a non-reentrant model
   778 ;;
   779                           
   780                           
   781                           ;psect for function _initOsc
   782  0143                     _initOsc:
   783                           
   784                           ;incstack = 0
   785                           ; Regs used in _initOsc: [wreg-fsr0h+status,2+status,0]
   786                           ;initOsc@IRCF stored from wreg
   787  0143  1283               	bcf	3,5	;RP0=0, select bank0
   788  0144  1303               	bcf	3,6	;RP1=0, select bank0
   789  0145  00A8               	movwf	initOsc@IRCF
   790  0146                     l995:
   791                           
   792                           ;Oscilador.c: 5:     switch(IRCF){
   793  0146  297D               	goto	l999
   794  0147                     l84:	
   795                           ;Oscilador.c: 6:         case 0:
   796                           
   797                           
   798                           ;Oscilador.c: 7:             OSCCONbits.IRCF2 = 0;
   799  0147  1683               	bsf	3,5	;RP0=1, select bank1
   800  0148  1303               	bcf	3,6	;RP1=0, select bank1
   801  0149  130F               	bcf	15,6	;volatile
   802                           
   803                           ;Oscilador.c: 8:             OSCCONbits.IRCF1 = 0;
   804  014A  128F               	bcf	15,5	;volatile
   805                           
   806                           ;Oscilador.c: 9:             OSCCONbits.IRCF0 = 0;
   807  014B  120F               	bcf	15,4	;volatile
   808                           
   809                           ;Oscilador.c: 10:             break;
   810  014C  299F               	goto	l85
   811  014D                     l86:	
   812                           ;Oscilador.c: 11:          case 1:
   813                           
   814                           
   815                           ;Oscilador.c: 12:             OSCCONbits.IRCF2 = 0;
   816  014D  1683               	bsf	3,5	;RP0=1, select bank1
   817  014E  1303               	bcf	3,6	;RP1=0, select bank1
   818  014F  130F               	bcf	15,6	;volatile
   819                           
   820                           ;Oscilador.c: 13:             OSCCONbits.IRCF1 = 0;
   821  0150  128F               	bcf	15,5	;volatile
   822                           
   823                           ;Oscilador.c: 14:             OSCCONbits.IRCF0 = 1;
   824  0151  160F               	bsf	15,4	;volatile
   825                           
   826                           ;Oscilador.c: 15:             break;
   827  0152  299F               	goto	l85
   828  0153                     l87:	
   829                           ;Oscilador.c: 16:         case 2:
   830                           
   831                           
   832                           ;Oscilador.c: 17:             OSCCONbits.IRCF2 = 0;
   833  0153  1683               	bsf	3,5	;RP0=1, select bank1
   834  0154  1303               	bcf	3,6	;RP1=0, select bank1
   835  0155  130F               	bcf	15,6	;volatile
   836                           
   837                           ;Oscilador.c: 18:             OSCCONbits.IRCF1 = 1;
   838  0156  168F               	bsf	15,5	;volatile
   839                           
   840                           ;Oscilador.c: 19:             OSCCONbits.IRCF0 = 0;
   841  0157  120F               	bcf	15,4	;volatile
   842                           
   843                           ;Oscilador.c: 20:             break;
   844  0158  299F               	goto	l85
   845  0159                     l88:	
   846                           ;Oscilador.c: 21:         case 3:
   847                           
   848                           
   849                           ;Oscilador.c: 22:             OSCCONbits.IRCF2 = 0;
   850  0159  1683               	bsf	3,5	;RP0=1, select bank1
   851  015A  1303               	bcf	3,6	;RP1=0, select bank1
   852  015B  130F               	bcf	15,6	;volatile
   853                           
   854                           ;Oscilador.c: 23:             OSCCONbits.IRCF1 = 1;
   855  015C  168F               	bsf	15,5	;volatile
   856                           
   857                           ;Oscilador.c: 24:             OSCCONbits.IRCF0 = 1;
   858  015D  160F               	bsf	15,4	;volatile
   859                           
   860                           ;Oscilador.c: 25:             break;
   861  015E  299F               	goto	l85
   862  015F                     l89:	
   863                           ;Oscilador.c: 26:         case 4:
   864                           
   865                           
   866                           ;Oscilador.c: 27:             OSCCONbits.IRCF2 = 1;
   867  015F  1683               	bsf	3,5	;RP0=1, select bank1
   868  0160  1303               	bcf	3,6	;RP1=0, select bank1
   869  0161  170F               	bsf	15,6	;volatile
   870                           
   871                           ;Oscilador.c: 28:             OSCCONbits.IRCF1 = 0;
   872  0162  128F               	bcf	15,5	;volatile
   873                           
   874                           ;Oscilador.c: 29:             OSCCONbits.IRCF0 = 0;
   875  0163  120F               	bcf	15,4	;volatile
   876                           
   877                           ;Oscilador.c: 30:             break;
   878  0164  299F               	goto	l85
   879  0165                     l90:	
   880                           ;Oscilador.c: 31:         case 5:
   881                           
   882                           
   883                           ;Oscilador.c: 32:             OSCCONbits.IRCF2 = 1;
   884  0165  1683               	bsf	3,5	;RP0=1, select bank1
   885  0166  1303               	bcf	3,6	;RP1=0, select bank1
   886  0167  170F               	bsf	15,6	;volatile
   887                           
   888                           ;Oscilador.c: 33:             OSCCONbits.IRCF1 = 0;
   889  0168  128F               	bcf	15,5	;volatile
   890                           
   891                           ;Oscilador.c: 34:             OSCCONbits.IRCF0 = 1;
   892  0169  160F               	bsf	15,4	;volatile
   893                           
   894                           ;Oscilador.c: 35:             break;
   895  016A  299F               	goto	l85
   896  016B                     l91:	
   897                           ;Oscilador.c: 36:         case 6:
   898                           
   899                           
   900                           ;Oscilador.c: 37:             OSCCONbits.IRCF2 = 1;
   901  016B  1683               	bsf	3,5	;RP0=1, select bank1
   902  016C  1303               	bcf	3,6	;RP1=0, select bank1
   903  016D  170F               	bsf	15,6	;volatile
   904                           
   905                           ;Oscilador.c: 38:             OSCCONbits.IRCF1 = 1;
   906  016E  168F               	bsf	15,5	;volatile
   907                           
   908                           ;Oscilador.c: 39:             OSCCONbits.IRCF0 = 0;
   909  016F  120F               	bcf	15,4	;volatile
   910                           
   911                           ;Oscilador.c: 40:             break;
   912  0170  299F               	goto	l85
   913  0171                     l92:	
   914                           ;Oscilador.c: 41:         case 7:
   915                           
   916                           
   917                           ;Oscilador.c: 42:             OSCCONbits.IRCF2 = 1;
   918  0171  1683               	bsf	3,5	;RP0=1, select bank1
   919  0172  1303               	bcf	3,6	;RP1=0, select bank1
   920  0173  170F               	bsf	15,6	;volatile
   921                           
   922                           ;Oscilador.c: 43:             OSCCONbits.IRCF1 = 1;
   923  0174  168F               	bsf	15,5	;volatile
   924                           
   925                           ;Oscilador.c: 44:             OSCCONbits.IRCF0 = 1;
   926  0175  160F               	bsf	15,4	;volatile
   927                           
   928                           ;Oscilador.c: 45:             break;
   929  0176  299F               	goto	l85
   930  0177                     l93:	
   931                           ;Oscilador.c: 46:         default:
   932                           
   933                           
   934                           ;Oscilador.c: 47:             OSCCONbits.IRCF2 = 1;
   935  0177  1683               	bsf	3,5	;RP0=1, select bank1
   936  0178  1303               	bcf	3,6	;RP1=0, select bank1
   937  0179  170F               	bsf	15,6	;volatile
   938                           
   939                           ;Oscilador.c: 48:             OSCCONbits.IRCF1 = 1;
   940  017A  168F               	bsf	15,5	;volatile
   941                           
   942                           ;Oscilador.c: 49:             OSCCONbits.IRCF0 = 0;
   943  017B  120F               	bcf	15,4	;volatile
   944                           
   945                           ;Oscilador.c: 50:             break;
   946  017C  299F               	goto	l85
   947  017D                     l999:
   948  017D  0828               	movf	initOsc@IRCF,w
   949  017E  00A6               	movwf	??_initOsc
   950  017F  01A7               	clrf	??_initOsc+1
   951                           
   952                           ; Switch on 2 bytes has been partitioned into a top level switch of size 1, and 1 sub-sw
      +                          itches
   953                           ; Switch size 1, requested type "simple"
   954                           ; Number of cases is 1, Range of values is 0 to 0
   955                           ; switch strategies available:
   956                           ; Name         Instructions Cycles
   957                           ; simple_byte            4     3 (average)
   958                           ; direct_byte           11     8 (fixed)
   959                           ; jumptable            260     6 (fixed)
   960                           ;	Chosen strategy is simple_byte
   961  0180  0827               	movf	??_initOsc+1,w
   962  0181  3A00               	xorlw	0	; case 0
   963  0182  1903               	skipnz
   964  0183  2985               	goto	l1135
   965  0184  2977               	goto	l93
   966  0185                     l1135:
   967                           
   968                           ; Switch size 1, requested type "simple"
   969                           ; Number of cases is 8, Range of values is 0 to 7
   970                           ; switch strategies available:
   971                           ; Name         Instructions Cycles
   972                           ; simple_byte           25    13 (average)
   973                           ; direct_byte           32     8 (fixed)
   974                           ; jumptable            260     6 (fixed)
   975                           ;	Chosen strategy is simple_byte
   976  0185  0826               	movf	??_initOsc,w
   977  0186  3A00               	xorlw	0	; case 0
   978  0187  1903               	skipnz
   979  0188  2947               	goto	l84
   980  0189  3A01               	xorlw	1	; case 1
   981  018A  1903               	skipnz
   982  018B  294D               	goto	l86
   983  018C  3A03               	xorlw	3	; case 2
   984  018D  1903               	skipnz
   985  018E  2953               	goto	l87
   986  018F  3A01               	xorlw	1	; case 3
   987  0190  1903               	skipnz
   988  0191  2959               	goto	l88
   989  0192  3A07               	xorlw	7	; case 4
   990  0193  1903               	skipnz
   991  0194  295F               	goto	l89
   992  0195  3A01               	xorlw	1	; case 5
   993  0196  1903               	skipnz
   994  0197  2965               	goto	l90
   995  0198  3A03               	xorlw	3	; case 6
   996  0199  1903               	skipnz
   997  019A  296B               	goto	l91
   998  019B  3A01               	xorlw	1	; case 7
   999  019C  1903               	skipnz
  1000  019D  2971               	goto	l92
  1001  019E  2977               	goto	l93
  1002  019F                     l85:
  1003                           
  1004                           ;Oscilador.c: 52:     OSCCONbits.SCS = 1;
  1005  019F  140F               	bsf	15,0	;volatile
  1006  01A0                     l94:
  1007  01A0  0008               	return
  1008  01A1                     __end_of_initOsc:
  1009                           
  1010                           	psect	text3
  1011  01DF                     __ptext3:	
  1012 ;; *************** function _Config_INTERRUPT *****************
  1013 ;; Defined at:
  1014 ;;		line 137 in file "pseudocodigo_lab3.c"
  1015 ;; Parameters:    Size  Location     Type
  1016 ;;		None
  1017 ;; Auto vars:     Size  Location     Type
  1018 ;;		None
  1019 ;; Return value:  Size  Location     Type
  1020 ;;                  1    wreg      void 
  1021 ;; Registers used:
  1022 ;;		wreg
  1023 ;; Tracked objects:
  1024 ;;		On entry : 0/0
  1025 ;;		On exit  : 0/0
  1026 ;;		Unchanged: 0/0
  1027 ;; Data sizes:     COMMON   BANK0   BANK1   BANK3   BANK2
  1028 ;;      Params:         0       0       0       0       0
  1029 ;;      Locals:         0       0       0       0       0
  1030 ;;      Temps:          0       0       0       0       0
  1031 ;;      Totals:         0       0       0       0       0
  1032 ;;Total ram usage:        0 bytes
  1033 ;; Hardware stack levels used:    1
  1034 ;; Hardware stack levels required when called:    2
  1035 ;; This function calls:
  1036 ;;		Nothing
  1037 ;; This function is called by:
  1038 ;;		_main
  1039 ;; This function uses a non-reentrant model
  1040 ;;
  1041                           
  1042                           
  1043                           ;psect for function _Config_INTERRUPT
  1044  01DF                     _Config_INTERRUPT:
  1045  01DF                     l1037:	
  1046                           ;incstack = 0
  1047                           ; Regs used in _Config_INTERRUPT: [wreg]
  1048                           
  1049                           
  1050                           ;pseudocodigo_lab3.c: 138:     INTCON = 0b11000000;
  1051  01DF  30C0               	movlw	192
  1052  01E0  008B               	movwf	11	;volatile
  1053  01E1                     l1039:
  1054                           
  1055                           ;pseudocodigo_lab3.c: 139:     PIE1bits.ADIE = 1;
  1056  01E1  1683               	bsf	3,5	;RP0=1, select bank1
  1057  01E2  1303               	bcf	3,6	;RP1=0, select bank1
  1058  01E3  170C               	bsf	12,6	;volatile
  1059  01E4                     l1041:
  1060                           
  1061                           ;pseudocodigo_lab3.c: 140:     PIR1bits.ADIF = 1;
  1062  01E4  1283               	bcf	3,5	;RP0=0, select bank0
  1063  01E5  1303               	bcf	3,6	;RP1=0, select bank0
  1064  01E6  170C               	bsf	12,6	;volatile
  1065  01E7                     l78:
  1066  01E7  0008               	return
  1067  01E8                     __end_of_Config_INTERRUPT:
  1068                           
  1069                           	psect	text4
  1070  00DF                     __ptext4:	
  1071 ;; *************** function _ISR *****************
  1072 ;; Defined at:
  1073 ;;		line 72 in file "pseudocodigo_lab3.c"
  1074 ;; Parameters:    Size  Location     Type
  1075 ;;		None
  1076 ;; Auto vars:     Size  Location     Type
  1077 ;;		None
  1078 ;; Return value:  Size  Location     Type
  1079 ;;                  1    wreg      void 
  1080 ;; Registers used:
  1081 ;;		wreg, fsr0l, fsr0h, status,2, status,0, pclath, cstack
  1082 ;; Tracked objects:
  1083 ;;		On entry : 0/0
  1084 ;;		On exit  : 0/0
  1085 ;;		Unchanged: 0/0
  1086 ;; Data sizes:     COMMON   BANK0   BANK1   BANK3   BANK2
  1087 ;;      Params:         0       0       0       0       0
  1088 ;;      Locals:         0       0       0       0       0
  1089 ;;      Temps:          5       0       0       0       0
  1090 ;;      Totals:         5       0       0       0       0
  1091 ;;Total ram usage:        5 bytes
  1092 ;; Hardware stack levels used:    1
  1093 ;; Hardware stack levels required when called:    1
  1094 ;; This function calls:
  1095 ;;		_ADC
  1096 ;;		_ADC_Config
  1097 ;; This function is called by:
  1098 ;;		Interrupt level 1
  1099 ;; This function uses a non-reentrant model
  1100 ;;
  1101                           
  1102                           
  1103                           ;psect for function _ISR
  1104  00DF                     _ISR:
  1105  00DF                     i1l1043:
  1106                           
  1107                           ;pseudocodigo_lab3.c: 75:     if (PIR1bits.ADIF) {
  1108  00DF  1283               	bcf	3,5	;RP0=0, select bank0
  1109  00E0  1303               	bcf	3,6	;RP1=0, select bank0
  1110  00E1  1F0C               	btfss	12,6	;volatile
  1111  00E2  28E4               	goto	u10_21
  1112  00E3  28E5               	goto	u10_20
  1113  00E4                     u10_21:
  1114  00E4  293A               	goto	i1l64
  1115  00E5                     u10_20:
  1116  00E5                     i1l1045:
  1117                           
  1118                           ;pseudocodigo_lab3.c: 76:         PIR1bits.ADIF = 0;
  1119  00E5  130C               	bcf	12,6	;volatile
  1120  00E6                     i1l1047:
  1121                           
  1122                           ;pseudocodigo_lab3.c: 77:         ADC_Config (0);
  1123  00E6  3000               	movlw	0
  1124  00E7  120A  118A  2023  120A  118A  	fcall	_ADC_Config
  1125  00EC                     i1l1049:
  1126                           
  1127                           ;pseudocodigo_lab3.c: 78:         _delay((unsigned long)((2)*(8000000/4000.0)));
  1128  00EC  3006               	movlw	6
  1129  00ED  00F4               	movwf	??_ISR+1
  1130  00EE  3030               	movlw	48
  1131  00EF  00F3               	movwf	??_ISR
  1132  00F0                     u14_27:
  1133  00F0  0BF3               	decfsz	??_ISR,f
  1134  00F1  28F0               	goto	u14_27
  1135  00F2  0BF4               	decfsz	??_ISR+1,f
  1136  00F3  28F0               	goto	u14_27
  1137  00F4  0000               	nop
  1138  00F5                     i1l1051:
  1139                           
  1140                           ;pseudocodigo_lab3.c: 79:         ADCON0bits.GO = 1;
  1141  00F5  1283               	bcf	3,5	;RP0=0, select bank0
  1142  00F6  1303               	bcf	3,6	;RP1=0, select bank0
  1143  00F7  149F               	bsf	31,1	;volatile
  1144                           
  1145                           ;pseudocodigo_lab3.c: 80:         while (ADCON0bits.GO != 0) {
  1146  00F8  2909               	goto	i1l1055
  1147  00F9                     i1l1053:
  1148                           
  1149                           ;pseudocodigo_lab3.c: 81:             ADC_VALOR_1 = ADC(ADRESL, ADRESH);
  1150  00F9  081E               	movf	30,w	;volatile
  1151  00FA  00F3               	movwf	??_ISR
  1152  00FB  0873               	movf	??_ISR,w
  1153  00FC  00F0               	movwf	ADC@ADRESH_
  1154  00FD  1683               	bsf	3,5	;RP0=1, select bank1
  1155  00FE  1303               	bcf	3,6	;RP1=0, select bank1
  1156  00FF  081E               	movf	30,w	;volatile
  1157  0100  120A  118A  21D2  120A  118A  	fcall	_ADC
  1158  0105  0871               	movf	?_ADC+1,w
  1159  0106  00FD               	movwf	_ADC_VALOR_1+1
  1160  0107  0870               	movf	?_ADC,w
  1161  0108  00FC               	movwf	_ADC_VALOR_1
  1162  0109                     i1l1055:
  1163                           
  1164                           ;pseudocodigo_lab3.c: 80:         while (ADCON0bits.GO != 0) {
  1165  0109  1283               	bcf	3,5	;RP0=0, select bank0
  1166  010A  1303               	bcf	3,6	;RP1=0, select bank0
  1167  010B  189F               	btfsc	31,1	;volatile
  1168  010C  290E               	goto	u11_21
  1169  010D  290F               	goto	u11_20
  1170  010E                     u11_21:
  1171  010E  28F9               	goto	i1l1053
  1172  010F                     u11_20:
  1173  010F                     i1l1057:
  1174                           
  1175                           ;pseudocodigo_lab3.c: 85:         ADC_Config (1);
  1176  010F  3001               	movlw	1
  1177  0110  120A  118A  2023  120A  118A  	fcall	_ADC_Config
  1178  0115                     i1l1059:
  1179                           
  1180                           ;pseudocodigo_lab3.c: 86:         _delay((unsigned long)((2)*(8000000/4000.0)));
  1181  0115  3006               	movlw	6
  1182  0116  00F4               	movwf	??_ISR+1
  1183  0117  3030               	movlw	48
  1184  0118  00F3               	movwf	??_ISR
  1185  0119                     u15_27:
  1186  0119  0BF3               	decfsz	??_ISR,f
  1187  011A  2919               	goto	u15_27
  1188  011B  0BF4               	decfsz	??_ISR+1,f
  1189  011C  2919               	goto	u15_27
  1190  011D  0000               	nop
  1191  011E                     i1l1061:
  1192                           
  1193                           ;pseudocodigo_lab3.c: 87:         ADCON0bits.GO = 1;
  1194  011E  1283               	bcf	3,5	;RP0=0, select bank0
  1195  011F  1303               	bcf	3,6	;RP1=0, select bank0
  1196  0120  149F               	bsf	31,1	;volatile
  1197                           
  1198                           ;pseudocodigo_lab3.c: 88:         while (ADCON0bits.GO != 0) {
  1199  0121  2932               	goto	i1l1065
  1200  0122                     i1l1063:
  1201                           
  1202                           ;pseudocodigo_lab3.c: 89:             ADC_VALOR_2 = ADC(ADRESL, ADRESH);
  1203  0122  081E               	movf	30,w	;volatile
  1204  0123  00F3               	movwf	??_ISR
  1205  0124  0873               	movf	??_ISR,w
  1206  0125  00F0               	movwf	ADC@ADRESH_
  1207  0126  1683               	bsf	3,5	;RP0=1, select bank1
  1208  0127  1303               	bcf	3,6	;RP1=0, select bank1
  1209  0128  081E               	movf	30,w	;volatile
  1210  0129  120A  118A  21D2  120A  118A  	fcall	_ADC
  1211  012E  0871               	movf	?_ADC+1,w
  1212  012F  00FB               	movwf	_ADC_VALOR_2+1
  1213  0130  0870               	movf	?_ADC,w
  1214  0131  00FA               	movwf	_ADC_VALOR_2
  1215  0132                     i1l1065:
  1216                           
  1217                           ;pseudocodigo_lab3.c: 88:         while (ADCON0bits.GO != 0) {
  1218  0132  1283               	bcf	3,5	;RP0=0, select bank0
  1219  0133  1303               	bcf	3,6	;RP1=0, select bank0
  1220  0134  189F               	btfsc	31,1	;volatile
  1221  0135  2937               	goto	u12_21
  1222  0136  2938               	goto	u12_20
  1223  0137                     u12_21:
  1224  0137  2922               	goto	i1l1063
  1225  0138                     u12_20:
  1226  0138                     i1l1067:
  1227                           
  1228                           ;pseudocodigo_lab3.c: 91:         PORTB = ADC_VALOR_2;
  1229  0138  087A               	movf	_ADC_VALOR_2,w
  1230  0139  0086               	movwf	6	;volatile
  1231  013A                     i1l64:
  1232  013A  0877               	movf	??_ISR+4,w
  1233  013B  008A               	movwf	10
  1234  013C  0876               	movf	??_ISR+3,w
  1235  013D  0084               	movwf	4
  1236  013E  0E75               	swapf	??_ISR+2,w
  1237  013F  0083               	movwf	3
  1238  0140  0EFE               	swapf	btemp,f
  1239  0141  0E7E               	swapf	btemp,w
  1240  0142  0009               	retfie
  1241  0143                     __end_of_ISR:
  1242                           
  1243                           	psect	intentry
  1244  0004                     __pintentry:	
  1245                           ;incstack = 0
  1246                           ; Regs used in _ISR: [wreg-fsr0h+status,2+status,0+pclath+cstack]
  1247                           
  1248  0004                     interrupt_function:
  1249  007E                     saved_w	set	btemp
  1250  0004  00FE               	movwf	btemp
  1251  0005  0E03               	swapf	3,w
  1252  0006  00F5               	movwf	??_ISR+2
  1253  0007  0804               	movf	4,w
  1254  0008  00F6               	movwf	??_ISR+3
  1255  0009  080A               	movf	10,w
  1256  000A  00F7               	movwf	??_ISR+4
  1257  000B  120A  118A  28DF   	ljmp	_ISR
  1258                           
  1259                           	psect	text5
  1260  0023                     __ptext5:	
  1261 ;; *************** function _ADC_Config *****************
  1262 ;; Defined at:
  1263 ;;		line 31 in file "Config_ADC.c"
  1264 ;; Parameters:    Size  Location     Type
  1265 ;;  AN_num          1    wreg     unsigned char 
  1266 ;; Auto vars:     Size  Location     Type
  1267 ;;  AN_num          1    2[COMMON] unsigned char 
  1268 ;; Return value:  Size  Location     Type
  1269 ;;                  1    wreg      void 
  1270 ;; Registers used:
  1271 ;;		wreg, fsr0l, fsr0h, status,2, status,0
  1272 ;; Tracked objects:
  1273 ;;		On entry : 0/0
  1274 ;;		On exit  : 0/0
  1275 ;;		Unchanged: 0/0
  1276 ;; Data sizes:     COMMON   BANK0   BANK1   BANK3   BANK2
  1277 ;;      Params:         0       0       0       0       0
  1278 ;;      Locals:         1       0       0       0       0
  1279 ;;      Temps:          2       0       0       0       0
  1280 ;;      Totals:         3       0       0       0       0
  1281 ;;Total ram usage:        3 bytes
  1282 ;; Hardware stack levels used:    1
  1283 ;; This function calls:
  1284 ;;		Nothing
  1285 ;; This function is called by:
  1286 ;;		_ISR
  1287 ;; This function uses a non-reentrant model
  1288 ;;
  1289                           
  1290                           
  1291                           ;psect for function _ADC_Config
  1292  0023                     _ADC_Config:
  1293                           
  1294                           ;incstack = 0
  1295                           ; Regs used in _ADC_Config: [wreg-fsr0h+status,2+status,0]
  1296                           ;ADC_Config@AN_num stored from wreg
  1297  0023  00F2               	movwf	ADC_Config@AN_num
  1298  0024                     i1l791:
  1299                           
  1300                           ;Config_ADC.c: 33:     switch(AN_num){
  1301  0024  289C               	goto	i1l795
  1302  0025                     i1l169:	
  1303                           ;Config_ADC.c: 34:         case 0:
  1304                           
  1305                           
  1306                           ;Config_ADC.c: 35:             ADCON0bits.CHS3 = 0;
  1307  0025  1283               	bcf	3,5	;RP0=0, select bank0
  1308  0026  1303               	bcf	3,6	;RP1=0, select bank0
  1309  0027  129F               	bcf	31,5	;volatile
  1310                           
  1311                           ;Config_ADC.c: 36:             ADCON0bits.CHS2 = 0;
  1312  0028  121F               	bcf	31,4	;volatile
  1313                           
  1314                           ;Config_ADC.c: 37:             ADCON0bits.CHS1 = 0;
  1315  0029  119F               	bcf	31,3	;volatile
  1316                           
  1317                           ;Config_ADC.c: 38:             ADCON0bits.CHS0 = 0;
  1318  002A  111F               	bcf	31,2	;volatile
  1319                           
  1320                           ;Config_ADC.c: 39:             break;
  1321  002B  28D6               	goto	i1l797
  1322  002C                     i1l171:	
  1323                           ;Config_ADC.c: 40:         case 1:
  1324                           
  1325                           
  1326                           ;Config_ADC.c: 41:             ADCON0bits.CHS3 = 0;
  1327  002C  1283               	bcf	3,5	;RP0=0, select bank0
  1328  002D  1303               	bcf	3,6	;RP1=0, select bank0
  1329  002E  129F               	bcf	31,5	;volatile
  1330                           
  1331                           ;Config_ADC.c: 42:             ADCON0bits.CHS2 = 0;
  1332  002F  121F               	bcf	31,4	;volatile
  1333                           
  1334                           ;Config_ADC.c: 43:             ADCON0bits.CHS1 = 0;
  1335  0030  119F               	bcf	31,3	;volatile
  1336                           
  1337                           ;Config_ADC.c: 44:             ADCON0bits.CHS0 = 1;
  1338  0031  151F               	bsf	31,2	;volatile
  1339                           
  1340                           ;Config_ADC.c: 45:             break;
  1341  0032  28D6               	goto	i1l797
  1342  0033                     i1l172:	
  1343                           ;Config_ADC.c: 46:         case 2:
  1344                           
  1345                           
  1346                           ;Config_ADC.c: 47:             ADCON0bits.CHS3 = 0;
  1347  0033  1283               	bcf	3,5	;RP0=0, select bank0
  1348  0034  1303               	bcf	3,6	;RP1=0, select bank0
  1349  0035  129F               	bcf	31,5	;volatile
  1350                           
  1351                           ;Config_ADC.c: 48:             ADCON0bits.CHS2 = 0;
  1352  0036  121F               	bcf	31,4	;volatile
  1353                           
  1354                           ;Config_ADC.c: 49:             ADCON0bits.CHS1 = 1;
  1355  0037  159F               	bsf	31,3	;volatile
  1356                           
  1357                           ;Config_ADC.c: 50:             ADCON0bits.CHS0 = 0;
  1358  0038  111F               	bcf	31,2	;volatile
  1359                           
  1360                           ;Config_ADC.c: 51:             break;
  1361  0039  28D6               	goto	i1l797
  1362  003A                     i1l173:	
  1363                           ;Config_ADC.c: 52:         case 3:
  1364                           
  1365                           
  1366                           ;Config_ADC.c: 53:             ADCON0bits.CHS3 = 0;
  1367  003A  1283               	bcf	3,5	;RP0=0, select bank0
  1368  003B  1303               	bcf	3,6	;RP1=0, select bank0
  1369  003C  129F               	bcf	31,5	;volatile
  1370                           
  1371                           ;Config_ADC.c: 54:             ADCON0bits.CHS2 = 0;
  1372  003D  121F               	bcf	31,4	;volatile
  1373                           
  1374                           ;Config_ADC.c: 55:             ADCON0bits.CHS1 = 1;
  1375  003E  159F               	bsf	31,3	;volatile
  1376                           
  1377                           ;Config_ADC.c: 56:             ADCON0bits.CHS0 = 1;
  1378  003F  151F               	bsf	31,2	;volatile
  1379                           
  1380                           ;Config_ADC.c: 57:             break;
  1381  0040  28D6               	goto	i1l797
  1382  0041                     i1l174:	
  1383                           ;Config_ADC.c: 58:         case 4:
  1384                           
  1385                           
  1386                           ;Config_ADC.c: 59:             ADCON0bits.CHS3 = 0;
  1387  0041  1283               	bcf	3,5	;RP0=0, select bank0
  1388  0042  1303               	bcf	3,6	;RP1=0, select bank0
  1389  0043  129F               	bcf	31,5	;volatile
  1390                           
  1391                           ;Config_ADC.c: 60:             ADCON0bits.CHS2 = 1;
  1392  0044  161F               	bsf	31,4	;volatile
  1393                           
  1394                           ;Config_ADC.c: 61:             ADCON0bits.CHS1 = 0;
  1395  0045  119F               	bcf	31,3	;volatile
  1396                           
  1397                           ;Config_ADC.c: 62:             ADCON0bits.CHS0 = 0;
  1398  0046  111F               	bcf	31,2	;volatile
  1399                           
  1400                           ;Config_ADC.c: 63:             break;
  1401  0047  28D6               	goto	i1l797
  1402  0048                     i1l175:	
  1403                           ;Config_ADC.c: 64:         case 5:
  1404                           
  1405                           
  1406                           ;Config_ADC.c: 65:             ADCON0bits.CHS3 = 0;
  1407  0048  1283               	bcf	3,5	;RP0=0, select bank0
  1408  0049  1303               	bcf	3,6	;RP1=0, select bank0
  1409  004A  129F               	bcf	31,5	;volatile
  1410                           
  1411                           ;Config_ADC.c: 66:             ADCON0bits.CHS2 = 1;
  1412  004B  161F               	bsf	31,4	;volatile
  1413                           
  1414                           ;Config_ADC.c: 67:             ADCON0bits.CHS1 = 0;
  1415  004C  119F               	bcf	31,3	;volatile
  1416                           
  1417                           ;Config_ADC.c: 68:             ADCON0bits.CHS0 = 1;
  1418  004D  151F               	bsf	31,2	;volatile
  1419                           
  1420                           ;Config_ADC.c: 69:             break;
  1421  004E  28D6               	goto	i1l797
  1422  004F                     i1l176:	
  1423                           ;Config_ADC.c: 70:         case 6:
  1424                           
  1425                           
  1426                           ;Config_ADC.c: 71:             ADCON0bits.CHS3 = 0;
  1427  004F  1283               	bcf	3,5	;RP0=0, select bank0
  1428  0050  1303               	bcf	3,6	;RP1=0, select bank0
  1429  0051  129F               	bcf	31,5	;volatile
  1430                           
  1431                           ;Config_ADC.c: 72:             ADCON0bits.CHS2 = 1;
  1432  0052  161F               	bsf	31,4	;volatile
  1433                           
  1434                           ;Config_ADC.c: 73:             ADCON0bits.CHS1 = 1;
  1435  0053  159F               	bsf	31,3	;volatile
  1436                           
  1437                           ;Config_ADC.c: 74:             ADCON0bits.CHS0 = 0;
  1438  0054  111F               	bcf	31,2	;volatile
  1439                           
  1440                           ;Config_ADC.c: 75:             break;
  1441  0055  28D6               	goto	i1l797
  1442  0056                     i1l177:	
  1443                           ;Config_ADC.c: 76:         case 7:
  1444                           
  1445                           
  1446                           ;Config_ADC.c: 77:             ADCON0bits.CHS3 = 0;
  1447  0056  1283               	bcf	3,5	;RP0=0, select bank0
  1448  0057  1303               	bcf	3,6	;RP1=0, select bank0
  1449  0058  129F               	bcf	31,5	;volatile
  1450                           
  1451                           ;Config_ADC.c: 78:             ADCON0bits.CHS2 = 1;
  1452  0059  161F               	bsf	31,4	;volatile
  1453                           
  1454                           ;Config_ADC.c: 79:             ADCON0bits.CHS1 = 1;
  1455  005A  159F               	bsf	31,3	;volatile
  1456                           
  1457                           ;Config_ADC.c: 80:             ADCON0bits.CHS0 = 1;
  1458  005B  151F               	bsf	31,2	;volatile
  1459                           
  1460                           ;Config_ADC.c: 81:             break;
  1461  005C  28D6               	goto	i1l797
  1462  005D                     i1l178:	
  1463                           ;Config_ADC.c: 82:         case 8:
  1464                           
  1465                           
  1466                           ;Config_ADC.c: 83:             ADCON0bits.CHS3 = 1;
  1467  005D  1283               	bcf	3,5	;RP0=0, select bank0
  1468  005E  1303               	bcf	3,6	;RP1=0, select bank0
  1469  005F  169F               	bsf	31,5	;volatile
  1470                           
  1471                           ;Config_ADC.c: 84:             ADCON0bits.CHS2 = 0;
  1472  0060  121F               	bcf	31,4	;volatile
  1473                           
  1474                           ;Config_ADC.c: 85:             ADCON0bits.CHS1 = 0;
  1475  0061  119F               	bcf	31,3	;volatile
  1476                           
  1477                           ;Config_ADC.c: 86:             ADCON0bits.CHS0 = 0;
  1478  0062  111F               	bcf	31,2	;volatile
  1479                           
  1480                           ;Config_ADC.c: 87:             break;
  1481  0063  28D6               	goto	i1l797
  1482  0064                     i1l179:	
  1483                           ;Config_ADC.c: 88:         case 9:
  1484                           
  1485                           
  1486                           ;Config_ADC.c: 89:             ADCON0bits.CHS3 = 1;
  1487  0064  1283               	bcf	3,5	;RP0=0, select bank0
  1488  0065  1303               	bcf	3,6	;RP1=0, select bank0
  1489  0066  169F               	bsf	31,5	;volatile
  1490                           
  1491                           ;Config_ADC.c: 90:             ADCON0bits.CHS2 = 0;
  1492  0067  121F               	bcf	31,4	;volatile
  1493                           
  1494                           ;Config_ADC.c: 91:             ADCON0bits.CHS1 = 0;
  1495  0068  119F               	bcf	31,3	;volatile
  1496                           
  1497                           ;Config_ADC.c: 92:             ADCON0bits.CHS0 = 1;
  1498  0069  151F               	bsf	31,2	;volatile
  1499                           
  1500                           ;Config_ADC.c: 93:             break;
  1501  006A  28D6               	goto	i1l797
  1502  006B                     i1l180:	
  1503                           ;Config_ADC.c: 94:         case 10:
  1504                           
  1505                           
  1506                           ;Config_ADC.c: 95:             ADCON0bits.CHS3 = 1;
  1507  006B  1283               	bcf	3,5	;RP0=0, select bank0
  1508  006C  1303               	bcf	3,6	;RP1=0, select bank0
  1509  006D  169F               	bsf	31,5	;volatile
  1510                           
  1511                           ;Config_ADC.c: 96:             ADCON0bits.CHS2 = 0;
  1512  006E  121F               	bcf	31,4	;volatile
  1513                           
  1514                           ;Config_ADC.c: 97:             ADCON0bits.CHS1 = 1;
  1515  006F  159F               	bsf	31,3	;volatile
  1516                           
  1517                           ;Config_ADC.c: 98:             ADCON0bits.CHS0 = 0;
  1518  0070  111F               	bcf	31,2	;volatile
  1519                           
  1520                           ;Config_ADC.c: 99:             break;
  1521  0071  28D6               	goto	i1l797
  1522  0072                     i1l181:	
  1523                           ;Config_ADC.c: 100:         case 11:
  1524                           
  1525                           
  1526                           ;Config_ADC.c: 101:             ADCON0bits.CHS3 = 1;
  1527  0072  1283               	bcf	3,5	;RP0=0, select bank0
  1528  0073  1303               	bcf	3,6	;RP1=0, select bank0
  1529  0074  169F               	bsf	31,5	;volatile
  1530                           
  1531                           ;Config_ADC.c: 102:             ADCON0bits.CHS2 = 0;
  1532  0075  121F               	bcf	31,4	;volatile
  1533                           
  1534                           ;Config_ADC.c: 103:             ADCON0bits.CHS1 = 1;
  1535  0076  159F               	bsf	31,3	;volatile
  1536                           
  1537                           ;Config_ADC.c: 104:             ADCON0bits.CHS0 = 1;
  1538  0077  151F               	bsf	31,2	;volatile
  1539                           
  1540                           ;Config_ADC.c: 105:             break;
  1541  0078  28D6               	goto	i1l797
  1542  0079                     i1l182:	
  1543                           ;Config_ADC.c: 106:         case 12:
  1544                           
  1545                           
  1546                           ;Config_ADC.c: 107:             ADCON0bits.CHS3 = 1;
  1547  0079  1283               	bcf	3,5	;RP0=0, select bank0
  1548  007A  1303               	bcf	3,6	;RP1=0, select bank0
  1549  007B  169F               	bsf	31,5	;volatile
  1550                           
  1551                           ;Config_ADC.c: 108:             ADCON0bits.CHS2 = 1;
  1552  007C  161F               	bsf	31,4	;volatile
  1553                           
  1554                           ;Config_ADC.c: 109:             ADCON0bits.CHS1 = 0;
  1555  007D  119F               	bcf	31,3	;volatile
  1556                           
  1557                           ;Config_ADC.c: 110:             ADCON0bits.CHS0 = 0;
  1558  007E  111F               	bcf	31,2	;volatile
  1559                           
  1560                           ;Config_ADC.c: 111:             break;
  1561  007F  28D6               	goto	i1l797
  1562  0080                     i1l183:	
  1563                           ;Config_ADC.c: 112:         case 13:
  1564                           
  1565                           
  1566                           ;Config_ADC.c: 113:             ADCON0bits.CHS3 = 1;
  1567  0080  1283               	bcf	3,5	;RP0=0, select bank0
  1568  0081  1303               	bcf	3,6	;RP1=0, select bank0
  1569  0082  169F               	bsf	31,5	;volatile
  1570                           
  1571                           ;Config_ADC.c: 114:             ADCON0bits.CHS2 = 1;
  1572  0083  161F               	bsf	31,4	;volatile
  1573                           
  1574                           ;Config_ADC.c: 115:             ADCON0bits.CHS1 = 0;
  1575  0084  119F               	bcf	31,3	;volatile
  1576                           
  1577                           ;Config_ADC.c: 116:             ADCON0bits.CHS0 = 1;
  1578  0085  151F               	bsf	31,2	;volatile
  1579                           
  1580                           ;Config_ADC.c: 117:             break;
  1581  0086  28D6               	goto	i1l797
  1582  0087                     i1l184:	
  1583                           ;Config_ADC.c: 118:         case 14:
  1584                           
  1585                           
  1586                           ;Config_ADC.c: 119:             ADCON0bits.CHS3 = 1;
  1587  0087  1283               	bcf	3,5	;RP0=0, select bank0
  1588  0088  1303               	bcf	3,6	;RP1=0, select bank0
  1589  0089  169F               	bsf	31,5	;volatile
  1590                           
  1591                           ;Config_ADC.c: 120:             ADCON0bits.CHS2 = 1;
  1592  008A  161F               	bsf	31,4	;volatile
  1593                           
  1594                           ;Config_ADC.c: 121:             ADCON0bits.CHS1 = 1;
  1595  008B  159F               	bsf	31,3	;volatile
  1596                           
  1597                           ;Config_ADC.c: 122:             ADCON0bits.CHS0 = 0;
  1598  008C  111F               	bcf	31,2	;volatile
  1599                           
  1600                           ;Config_ADC.c: 123:             break;
  1601  008D  28D6               	goto	i1l797
  1602  008E                     i1l185:	
  1603                           ;Config_ADC.c: 124:         case 15:
  1604                           
  1605                           
  1606                           ;Config_ADC.c: 125:             ADCON0bits.CHS3 = 1;
  1607  008E  1283               	bcf	3,5	;RP0=0, select bank0
  1608  008F  1303               	bcf	3,6	;RP1=0, select bank0
  1609  0090  169F               	bsf	31,5	;volatile
  1610                           
  1611                           ;Config_ADC.c: 126:             ADCON0bits.CHS2 = 1;
  1612  0091  161F               	bsf	31,4	;volatile
  1613                           
  1614                           ;Config_ADC.c: 127:             ADCON0bits.CHS1 = 1;
  1615  0092  159F               	bsf	31,3	;volatile
  1616                           
  1617                           ;Config_ADC.c: 128:             ADCON0bits.CHS0 = 1;
  1618  0093  151F               	bsf	31,2	;volatile
  1619                           
  1620                           ;Config_ADC.c: 129:             break;
  1621  0094  28D6               	goto	i1l797
  1622  0095                     i1l186:	
  1623                           ;Config_ADC.c: 130:         default:
  1624                           
  1625                           
  1626                           ;Config_ADC.c: 131:             ADCON0bits.CHS3 = 0;
  1627  0095  1283               	bcf	3,5	;RP0=0, select bank0
  1628  0096  1303               	bcf	3,6	;RP1=0, select bank0
  1629  0097  129F               	bcf	31,5	;volatile
  1630                           
  1631                           ;Config_ADC.c: 132:             ADCON0bits.CHS2 = 0;
  1632  0098  121F               	bcf	31,4	;volatile
  1633                           
  1634                           ;Config_ADC.c: 133:             ADCON0bits.CHS1 = 0;
  1635  0099  119F               	bcf	31,3	;volatile
  1636                           
  1637                           ;Config_ADC.c: 134:             ADCON0bits.CHS0 = 0;
  1638  009A  111F               	bcf	31,2	;volatile
  1639                           
  1640                           ;Config_ADC.c: 135:             break;
  1641  009B  28D6               	goto	i1l797
  1642  009C                     i1l795:
  1643  009C  0872               	movf	ADC_Config@AN_num,w
  1644  009D  00F0               	movwf	??_ADC_Config
  1645  009E  01F1               	clrf	??_ADC_Config+1
  1646                           
  1647                           ; Switch on 2 bytes has been partitioned into a top level switch of size 1, and 1 sub-sw
      +                          itches
  1648                           ; Switch size 1, requested type "simple"
  1649                           ; Number of cases is 1, Range of values is 0 to 0
  1650                           ; switch strategies available:
  1651                           ; Name         Instructions Cycles
  1652                           ; simple_byte            4     3 (average)
  1653                           ; direct_byte           11     8 (fixed)
  1654                           ; jumptable            260     6 (fixed)
  1655                           ;	Chosen strategy is simple_byte
  1656  009F  0871               	movf	??_ADC_Config+1,w
  1657  00A0  3A00               	xorlw	0	; case 0
  1658  00A1  1903               	skipnz
  1659  00A2  28A4               	goto	i1l1137
  1660  00A3  2895               	goto	i1l186
  1661  00A4                     i1l1137:
  1662                           
  1663                           ; Switch size 1, requested type "simple"
  1664                           ; Number of cases is 16, Range of values is 0 to 15
  1665                           ; switch strategies available:
  1666                           ; Name         Instructions Cycles
  1667                           ; simple_byte           49    25 (average)
  1668                           ; direct_byte           56     8 (fixed)
  1669                           ; jumptable            260     6 (fixed)
  1670                           ;	Chosen strategy is simple_byte
  1671  00A4  0870               	movf	??_ADC_Config,w
  1672  00A5  3A00               	xorlw	0	; case 0
  1673  00A6  1903               	skipnz
  1674  00A7  2825               	goto	i1l169
  1675  00A8  3A01               	xorlw	1	; case 1
  1676  00A9  1903               	skipnz
  1677  00AA  282C               	goto	i1l171
  1678  00AB  3A03               	xorlw	3	; case 2
  1679  00AC  1903               	skipnz
  1680  00AD  2833               	goto	i1l172
  1681  00AE  3A01               	xorlw	1	; case 3
  1682  00AF  1903               	skipnz
  1683  00B0  283A               	goto	i1l173
  1684  00B1  3A07               	xorlw	7	; case 4
  1685  00B2  1903               	skipnz
  1686  00B3  2841               	goto	i1l174
  1687  00B4  3A01               	xorlw	1	; case 5
  1688  00B5  1903               	skipnz
  1689  00B6  2848               	goto	i1l175
  1690  00B7  3A03               	xorlw	3	; case 6
  1691  00B8  1903               	skipnz
  1692  00B9  284F               	goto	i1l176
  1693  00BA  3A01               	xorlw	1	; case 7
  1694  00BB  1903               	skipnz
  1695  00BC  2856               	goto	i1l177
  1696  00BD  3A0F               	xorlw	15	; case 8
  1697  00BE  1903               	skipnz
  1698  00BF  285D               	goto	i1l178
  1699  00C0  3A01               	xorlw	1	; case 9
  1700  00C1  1903               	skipnz
  1701  00C2  2864               	goto	i1l179
  1702  00C3  3A03               	xorlw	3	; case 10
  1703  00C4  1903               	skipnz
  1704  00C5  286B               	goto	i1l180
  1705  00C6  3A01               	xorlw	1	; case 11
  1706  00C7  1903               	skipnz
  1707  00C8  2872               	goto	i1l181
  1708  00C9  3A07               	xorlw	7	; case 12
  1709  00CA  1903               	skipnz
  1710  00CB  2879               	goto	i1l182
  1711  00CC  3A01               	xorlw	1	; case 13
  1712  00CD  1903               	skipnz
  1713  00CE  2880               	goto	i1l183
  1714  00CF  3A03               	xorlw	3	; case 14
  1715  00D0  1903               	skipnz
  1716  00D1  2887               	goto	i1l184
  1717  00D2  3A01               	xorlw	1	; case 15
  1718  00D3  1903               	skipnz
  1719  00D4  288E               	goto	i1l185
  1720  00D5  2895               	goto	i1l186
  1721  00D6                     i1l797:
  1722                           
  1723                           ;Config_ADC.c: 137:     ADCON1 = 0b00000000;
  1724  00D6  1683               	bsf	3,5	;RP0=1, select bank1
  1725  00D7  1303               	bcf	3,6	;RP1=0, select bank1
  1726  00D8  019F               	clrf	31	;volatile
  1727  00D9                     i1l799:
  1728                           
  1729                           ;Config_ADC.c: 138:     ADCON0bits.ADCS1 = 0;
  1730  00D9  1283               	bcf	3,5	;RP0=0, select bank0
  1731  00DA  1303               	bcf	3,6	;RP1=0, select bank0
  1732  00DB  139F               	bcf	31,7	;volatile
  1733  00DC                     i1l801:
  1734                           
  1735                           ;Config_ADC.c: 139:     ADCON0bits.ADCS0 = 1;
  1736  00DC  171F               	bsf	31,6	;volatile
  1737  00DD                     i1l803:
  1738                           
  1739                           ;Config_ADC.c: 140:     ADCON0bits.ADON = 1;
  1740  00DD  141F               	bsf	31,0	;volatile
  1741  00DE                     i1l187:
  1742  00DE  0008               	return
  1743  00DF                     __end_of_ADC_Config:
  1744                           
  1745                           	psect	text6
  1746  01D2                     __ptext6:	
  1747 ;; *************** function _ADC *****************
  1748 ;; Defined at:
  1749 ;;		line 11 in file "Config_ADC.c"
  1750 ;; Parameters:    Size  Location     Type
  1751 ;;  ADRESL_         1    wreg     unsigned char 
  1752 ;;  ADRESH_         1    0[COMMON] unsigned char 
  1753 ;; Auto vars:     Size  Location     Type
  1754 ;;  ADRESL_         1    0[COMMON] unsigned char 
  1755 ;; Return value:  Size  Location     Type
  1756 ;;                  2    0[COMMON] int 
  1757 ;; Registers used:
  1758 ;;		wreg
  1759 ;; Tracked objects:
  1760 ;;		On entry : 0/0
  1761 ;;		On exit  : 0/0
  1762 ;;		Unchanged: 0/0
  1763 ;; Data sizes:     COMMON   BANK0   BANK1   BANK3   BANK2
  1764 ;;      Params:         3       0       0       0       0
  1765 ;;      Locals:         0       0       0       0       0
  1766 ;;      Temps:          0       0       0       0       0
  1767 ;;      Totals:         3       0       0       0       0
  1768 ;;Total ram usage:        3 bytes
  1769 ;; Hardware stack levels used:    1
  1770 ;; This function calls:
  1771 ;;		Nothing
  1772 ;; This function is called by:
  1773 ;;		_ISR
  1774 ;; This function uses a non-reentrant model
  1775 ;;
  1776                           
  1777                           
  1778                           ;psect for function _ADC
  1779  01D2                     _ADC:
  1780  01D2                     i1l1007:	
  1781                           ;incstack = 0
  1782                           ; Regs used in _ADC: [wreg]
  1783                           
  1784                           
  1785                           ;Config_ADC.c: 12:     VAL = (ADRESL << 8) | ADRESH;
  1786  01D2  1683               	bsf	3,5	;RP0=1, select bank1
  1787  01D3  1303               	bcf	3,6	;RP1=0, select bank1
  1788  01D4  081E               	movf	30,w	;volatile
  1789  01D5  00F9               	movwf	_VAL+1
  1790  01D6  1283               	bcf	3,5	;RP0=0, select bank0
  1791  01D7  1303               	bcf	3,6	;RP1=0, select bank0
  1792  01D8  081E               	movf	30,w	;volatile
  1793  01D9  00F8               	movwf	_VAL
  1794                           
  1795                           ;Config_ADC.c: 13:     return VAL;
  1796  01DA  0879               	movf	_VAL+1,w
  1797  01DB  00F1               	movwf	?_ADC+1
  1798  01DC  0878               	movf	_VAL,w
  1799  01DD  00F0               	movwf	?_ADC
  1800  01DE                     i1l156:
  1801  01DE  0008               	return
  1802  01DF                     __end_of_ADC:
  1803  007E                     btemp	set	126	;btemp
  1804  007E                     wtemp0	set	126
  1805                           
  1806                           	psect	config
  1807                           
  1808                           ;Config register CONFIG1 @ 0x2007
  1809                           ;	Oscillator Selection bits
  1810                           ;	FOSC = XT, XT oscillator: Crystal/resonator on RA6/OSC2/CLKOUT and RA7/OSC1/CLKIN
  1811                           ;	Watchdog Timer Enable bit
  1812                           ;	WDTE = OFF, WDT disabled and can be enabled by SWDTEN bit of the WDTCON register
  1813                           ;	Power-up Timer Enable bit
  1814                           ;	PWRTE = OFF, PWRT disabled
  1815                           ;	RE3/MCLR pin function select bit
  1816                           ;	MCLRE = OFF, RE3/MCLR pin function is digital input, MCLR internally tied to VDD
  1817                           ;	Code Protection bit
  1818                           ;	CP = OFF, Program memory code protection is disabled
  1819                           ;	Data Code Protection bit
  1820                           ;	CPD = OFF, Data memory code protection is disabled
  1821                           ;	Brown Out Reset Selection bits
  1822                           ;	BOREN = OFF, BOR disabled
  1823                           ;	Internal External Switchover bit
  1824                           ;	IESO = OFF, Internal/External Switchover mode is disabled
  1825                           ;	Fail-Safe Clock Monitor Enabled bit
  1826                           ;	FCMEN = OFF, Fail-Safe Clock Monitor is disabled
  1827                           ;	Low Voltage Programming Enable bit
  1828                           ;	LVP = OFF, RB3 pin has digital I/O, HV on MCLR must be used for programming
  1829                           ;	In-Circuit Debugger Mode bit
  1830                           ;	DEBUG = 0x1, unprogrammed default
  1831  2007                     	org	8199
  1832  2007  20D1               	dw	8401
  1833                           
  1834                           ;Config register CONFIG2 @ 0x2008
  1835                           ;	Brown-out Reset Selection bit
  1836                           ;	BOR4V = BOR40V, Brown-out Reset set to 4.0V
  1837                           ;	Flash Program Memory Self Write Enable bits
  1838                           ;	WRT = OFF, Write protection off
  1839  2008                     	org	8200
  1840  2008  3FFF               	dw	16383

Data Sizes:
    Strings     0
    Constant    0
    Data        0
    BSS         12
    Persistent  0
    Stack       0

Auto Spaces:
    Space          Size  Autos    Used
    COMMON           14      8      14
    BANK0            80      3       9
    BANK1            80      0       0
    BANK3            96      0       0
    BANK2            96      0       0

Pointer List with Targets:

    None.

Critical Paths under _main in COMMON

    None.

Critical Paths under _ISR in COMMON

    _ISR->_ADC
    _ISR->_ADC_Config

Critical Paths under _main in BANK0

    _setup->_initOsc

Critical Paths under _ISR in BANK0

    None.

Critical Paths under _main in BANK1

    None.

Critical Paths under _ISR in BANK1

    None.

Critical Paths under _main in BANK3

    None.

Critical Paths under _ISR in BANK3

    None.

Critical Paths under _main in BANK2

    None.

Critical Paths under _ISR in BANK2

    None.

Call Graph Tables:

 ---------------------------------------------------------------------------------
 (Depth) Function   	        Calls       Base Space   Used Autos Params    Refs
 ---------------------------------------------------------------------------------
 (0) _main                                                 0     0      0      22
                   _Config_INTERRUPT
                              _setup
 ---------------------------------------------------------------------------------
 (1) _setup                                                0     0      0      22
                            _initOsc
 ---------------------------------------------------------------------------------
 (2) _initOsc                                              3     3      0      22
                                              0 BANK0      3     3      0
 ---------------------------------------------------------------------------------
 (1) _Config_INTERRUPT                                     0     0      0       0
 ---------------------------------------------------------------------------------
 Estimated maximum stack depth 2
 ---------------------------------------------------------------------------------
 (Depth) Function   	        Calls       Base Space   Used Autos Params    Refs
 ---------------------------------------------------------------------------------
 (3) _ISR                                                  5     5      0     167
                                              3 COMMON     5     5      0
                                _ADC
                         _ADC_Config
 ---------------------------------------------------------------------------------
 (4) _ADC_Config                                           3     3      0      15
                                              0 COMMON     3     3      0
 ---------------------------------------------------------------------------------
 (4) _ADC                                                  4     1      3     152
                                              0 COMMON     3     0      3
 ---------------------------------------------------------------------------------
 Estimated maximum stack depth 4
 ---------------------------------------------------------------------------------

 Call Graph Graphs:

 _main (ROOT)
   _Config_INTERRUPT
   _setup
     _initOsc

 _ISR (ROOT)
   _ADC
   _ADC_Config

 Address spaces:
Name               Size   Autos  Total    Cost      Usage
BITCOMMON            E      0       0       0        0.0%
EEDATA             100      0       0       0        0.0%
NULL                 0      0       0       0        0.0%
CODE                 0      0       0       0        0.0%
COMMON               E      8       E       1      100.0%
BITSFR0              0      0       0       1        0.0%
SFR0                 0      0       0       1        0.0%
BITSFR1              0      0       0       2        0.0%
SFR1                 0      0       0       2        0.0%
STACK                0      0       0       2        0.0%
ABS                  0      0      17       3        0.0%
BITBANK0            50      0       0       4        0.0%
BITSFR3              0      0       0       4        0.0%
SFR3                 0      0       0       4        0.0%
BANK0               50      3       9       5       11.2%
BITSFR2              0      0       0       5        0.0%
SFR2                 0      0       0       5        0.0%
BITBANK1            50      0       0       6        0.0%
BANK1               50      0       0       7        0.0%
BITBANK3            60      0       0       8        0.0%
BANK3               60      0       0       9        0.0%
BITBANK2            60      0       0      10        0.0%
BANK2               60      0       0      11        0.0%
DATA                 0      0      17      12        0.0%


Microchip Technology PIC Macro Assembler V2.31 build 20201012212115 
Symbol Table                                                                                   Mon Feb 08 07:50:29 2021

                       l70 01CE                         l90 0165                         l91 016B  
                       l75 01C3                         l92 0171                         l84 0147  
                       l93 0177                         l85 019F                         l69 01CE  
                       l78 01E7                         l94 01A0                         l86 014D  
                       l87 0153                         l88 0159                         l89 015F  
      __size_of_ADC_Config 00BC                        _ADC 01D2                        l995 0146  
                      l999 017D                        _ISR 00DF                        _VAL 0078  
                      fsr0 0004                       ?_ADC 0070                       ?_ISR 0070  
                     l1011 01A1                       l1021 01B3                       l1013 01A7  
                     l1031 01BA                       l1023 01B4                       l1015 01AB  
                     l1041 01E4                       l1033 01BD                       l1025 01B5  
                     l1017 01AC                       l1035 01C0                       l1027 01B8  
                     l1019 01B0                       l1037 01DF                       l1029 01B9  
                     l1039 01E1                       l1135 0185                       l1071 01C9  
                     l1069 01C4                       i1l64 013A                       _main 01C4  
                     btemp 007E   __end_of_Config_INTERRUPT 01E8                       start 000E  
                    ??_ADC 0073                      ??_ISR 0073                      ?_main 0070  
                    _ANSEL 0188                      i1l171 002C                      i1l156 01DE  
                    i1l180 006B                      i1l172 0033                      i1l181 0072  
                    i1l173 003A                      i1l182 0079                      i1l174 0041  
                    i1l183 0080                      i1l175 0048                      i1l184 0087  
                    i1l176 004F                      i1l185 008E                      i1l177 0056  
                    i1l169 0025                      i1l186 0095                      i1l178 005D  
                    i1l187 00DE                      i1l179 0064                      i1l801 00DC  
                    i1l803 00DD                      i1l791 0024                      i1l795 009C  
                    i1l797 00D6                      i1l799 00D9                      u10_20 00E5  
                    u10_21 00E4                      u11_20 010F                      u11_21 010E  
                    u12_20 0138                      u12_21 0137                      u14_27 00F0  
                    u15_27 0119                      _PORTA 0005                      _PORTB 0006  
                    _PORTC 0007                      _PORTD 0008                      _PORTE 0009  
                    _TRISA 0085                      _TRISB 0086                      _TRISC 0087  
                    _TRISD 0088                      _TRISE 0089           ADC_Config@AN_num 0072  
          __end_of_initOsc 01A1                      _setup 01A1                      pclath 000A  
                    status 0003                      wtemp0 007E            __initialization 0011  
             __end_of_main 01D2                     ??_main 0029                     _ADCON1 009F  
                   _ADRESH 001E                     _ADRESL 009E                initOsc@IRCF 0028  
                   ?_setup 0070                     _ANSELH 0189                     i1l1007 01D2  
                   i1l1051 00F5                     i1l1043 00DF                     i1l1061 011E  
                   i1l1053 00F9                     i1l1045 00E5                     i1l1063 0122  
                   i1l1055 0109                     i1l1047 00E6                     i1l1137 00A4  
                   i1l1065 0132                     i1l1057 010F                     i1l1049 00EC  
                   i1l1067 0138                     i1l1059 0115               ??_ADC_Config 0070  
                   _INTCON 000B         __end_of_ADC_Config 00DF                  ??_initOsc 0026  
                   saved_w 007E                 ADC@ADRESH_ 0070                 ADC@ADRESL_ 0070  
  __end_of__initialization 001F             __pcstackCOMMON 0070              __end_of_setup 01C4  
                  ??_setup 0029                 __pbssBANK0 0020          ?_Config_INTERRUPT 0070  
               __pmaintext 01C4         ??_Config_INTERRUPT 0026                 __pintentry 0004  
                  __ptext1 01A1                    __ptext2 0143                    __ptext3 01DF  
                  __ptext4 00DF                    __ptext5 0023                    __ptext6 01D2  
             __size_of_ADC 000D               __size_of_ISR 0064                    _initOsc 0143  
     end_of_initialization 001F                  _PORTEbits 0009                _ADC_VALOR_1 007C  
              _ADC_VALOR_2 007A        start_initialization 0011                __end_of_ADC 01DF  
              __end_of_ISR 0143  __size_of_Config_INTERRUPT 0009                __pbssCOMMON 0078  
                ___latbits 0002              __pcstackBANK0 0026                   ?_initOsc 0070  
           __size_of_setup 0023          interrupt_function 0004                   _PIE1bits 008C  
                 _PIR1bits 000C                   _VAL_SWAP 0024                 _ADCON0bits 001F  
               _ADC_Config 0023           _Config_INTERRUPT 01DF           __size_of_initOsc 005E  
            __size_of_main 000E                _VAL_NIBBLE1 0022                _VAL_NIBBLE2 0020  
                 intlevel1 0000                ?_ADC_Config 0070                 _OSCCONbits 008F  
