

Microchip MPLAB XC8 Assembler V2.31 build 20201012212115 
                                                                                               Thu Feb 18 12:13:43 2021

Microchip MPLAB XC8 C Compiler v2.31 (Free license) build 20201012212115 Og1 
     1                           	processor	16F887
     2                           	pagewidth 120
     3                           	opt	flic
     4                           	psect	cinit,global,class=CODE,merge=1,delta=2
     5                           	psect	bssCOMMON,global,class=COMMON,space=1,delta=1,noexec
     6                           	psect	bssBANK0,global,class=BANK0,space=1,delta=1,noexec
     7                           	psect	cstackCOMMON,global,class=COMMON,space=1,delta=1,noexec
     8                           	psect	cstackBANK0,global,class=BANK0,space=1,delta=1,noexec
     9                           	psect	maintext,global,class=CODE,split=1,delta=2
    10                           	psect	text1,local,class=CODE,merge=1,delta=2
    11                           	psect	text2,local,class=CODE,merge=1,delta=2
    12                           	psect	text3,local,class=CODE,merge=1,delta=2
    13                           	psect	text4,local,class=CODE,merge=1,delta=2
    14                           	psect	text5,local,class=CODE,merge=1,delta=2
    15                           	psect	text6,local,class=CODE,merge=1,delta=2,group=1
    16                           	psect	text7,local,class=CODE,merge=1,delta=2,group=1
    17                           	psect	text8,local,class=CODE,merge=1,delta=2
    18                           	psect	intentry,global,class=CODE,delta=2
    19                           	psect	text9,local,class=CODE,merge=1,delta=2
    20                           	psect	text10,local,class=CODE,merge=1,delta=2
    21                           	psect	text11,local,class=CODE,merge=1,delta=2
    22                           	psect	config,global,abs,ovrld,class=CONFIG,space=4,delta=2,noexec
    23                           	dabs	1,0x7E,2
    24  0000                     
    25                           ; Version 2.20
    26                           ; Generated 12/02/2020 GMT
    27                           ; 
    28                           ; Copyright © 2020, Microchip Technology Inc. and its subsidiaries ("Microchip")
    29                           ; All rights reserved.
    30                           ; 
    31                           ; This software is developed by Microchip Technology Inc. and its subsidiaries ("Microch
      +                          ip").
    32                           ; 
    33                           ; Redistribution and use in source and binary forms, with or without modification, are
    34                           ; permitted provided that the following conditions are met:
    35                           ; 
    36                           ;     1. Redistributions of source code must retain the above copyright notice, this lis
      +                          t of
    37                           ;        conditions and the following disclaimer.
    38                           ; 
    39                           ;     2. Redistributions in binary form must reproduce the above copyright notice, this 
      +                          list
    40                           ;        of conditions and the following disclaimer in the documentation and/or other
    41                           ;        materials provided with the distribution.
    42                           ; 
    43                           ;     3. Microchip's name may not be used to endorse or promote products derived from th
      +                          is
    44                           ;        software without specific prior written permission.
    45                           ; 
    46                           ; THIS SOFTWARE IS PROVIDED BY MICROCHIP "AS IS" AND ANY EXPRESS OR IMPLIED WARRANTIES,
    47                           ; INCLUDING, BUT NOT LIMITED TO, THE IMPLIED WARRANTIES OF MERCHANTABILITY AND FITNESS F
      +                          OR
    48                           ; PURPOSE ARE DISCLAIMED.  IN NO EVENT SHALL MICROCHIP BE LIABLE FOR ANY DIRECT, INDIREC
      +                          T,
    49                           ; INCIDENTAL, SPECIAL, EXEMPLARY, OR CONSEQUENTIAL DAMAGES (INCLUDING BUT NOT LIMITED TO
    50                           ; PROCUREMENT OF SUBSTITUTE GOODS OR SERVICES; LOSS OF USE, DATA OR PROFITS; OR BUSINESS
    51                           ; INTERRUPTION) HOWSOEVER CAUSED AND ON ANY THEORY OF LIABILITY, WHETHER IN CONTRACT, ST
      +                          RICT
    52                           ; LIABILITY, OR TORT (INCLUDING NEGLIGENCE OR OTHERWISE) ARISING IN ANY WAY OUT OF THE U
      +                          SE OF
    53                           ; THIS SOFTWARE, EVEN IF ADVISED OF THE POSSIBILITY OF SUCH DAMAGE.
    54                           ; 
    55                           ; 
    56                           ; Code-generator required, PIC16F887 Definitions
    57                           ; 
    58                           ; SFR Addresses
    59  0000                     	;# 
    60  0001                     	;# 
    61  0002                     	;# 
    62  0003                     	;# 
    63  0004                     	;# 
    64  0005                     	;# 
    65  0006                     	;# 
    66  0007                     	;# 
    67  0008                     	;# 
    68  0009                     	;# 
    69  000A                     	;# 
    70  000B                     	;# 
    71  000C                     	;# 
    72  000D                     	;# 
    73  000E                     	;# 
    74  000E                     	;# 
    75  000F                     	;# 
    76  0010                     	;# 
    77  0011                     	;# 
    78  0012                     	;# 
    79  0013                     	;# 
    80  0014                     	;# 
    81  0015                     	;# 
    82  0015                     	;# 
    83  0016                     	;# 
    84  0017                     	;# 
    85  0018                     	;# 
    86  0019                     	;# 
    87  001A                     	;# 
    88  001B                     	;# 
    89  001B                     	;# 
    90  001C                     	;# 
    91  001D                     	;# 
    92  001E                     	;# 
    93  001F                     	;# 
    94  0081                     	;# 
    95  0085                     	;# 
    96  0086                     	;# 
    97  0087                     	;# 
    98  0088                     	;# 
    99  0089                     	;# 
   100  008C                     	;# 
   101  008D                     	;# 
   102  008E                     	;# 
   103  008F                     	;# 
   104  0090                     	;# 
   105  0091                     	;# 
   106  0092                     	;# 
   107  0093                     	;# 
   108  0093                     	;# 
   109  0093                     	;# 
   110  0094                     	;# 
   111  0095                     	;# 
   112  0096                     	;# 
   113  0097                     	;# 
   114  0098                     	;# 
   115  0099                     	;# 
   116  009A                     	;# 
   117  009B                     	;# 
   118  009C                     	;# 
   119  009D                     	;# 
   120  009E                     	;# 
   121  009F                     	;# 
   122  0105                     	;# 
   123  0107                     	;# 
   124  0108                     	;# 
   125  0109                     	;# 
   126  010C                     	;# 
   127  010C                     	;# 
   128  010D                     	;# 
   129  010E                     	;# 
   130  010F                     	;# 
   131  0185                     	;# 
   132  0187                     	;# 
   133  0188                     	;# 
   134  0189                     	;# 
   135  018C                     	;# 
   136  018D                     	;# 
   137  0000                     	;# 
   138  0001                     	;# 
   139  0002                     	;# 
   140  0003                     	;# 
   141  0004                     	;# 
   142  0005                     	;# 
   143  0006                     	;# 
   144  0007                     	;# 
   145  0008                     	;# 
   146  0009                     	;# 
   147  000A                     	;# 
   148  000B                     	;# 
   149  000C                     	;# 
   150  000D                     	;# 
   151  000E                     	;# 
   152  000E                     	;# 
   153  000F                     	;# 
   154  0010                     	;# 
   155  0011                     	;# 
   156  0012                     	;# 
   157  0013                     	;# 
   158  0014                     	;# 
   159  0015                     	;# 
   160  0015                     	;# 
   161  0016                     	;# 
   162  0017                     	;# 
   163  0018                     	;# 
   164  0019                     	;# 
   165  001A                     	;# 
   166  001B                     	;# 
   167  001B                     	;# 
   168  001C                     	;# 
   169  001D                     	;# 
   170  001E                     	;# 
   171  001F                     	;# 
   172  0081                     	;# 
   173  0085                     	;# 
   174  0086                     	;# 
   175  0087                     	;# 
   176  0088                     	;# 
   177  0089                     	;# 
   178  008C                     	;# 
   179  008D                     	;# 
   180  008E                     	;# 
   181  008F                     	;# 
   182  0090                     	;# 
   183  0091                     	;# 
   184  0092                     	;# 
   185  0093                     	;# 
   186  0093                     	;# 
   187  0093                     	;# 
   188  0094                     	;# 
   189  0095                     	;# 
   190  0096                     	;# 
   191  0097                     	;# 
   192  0098                     	;# 
   193  0099                     	;# 
   194  009A                     	;# 
   195  009B                     	;# 
   196  009C                     	;# 
   197  009D                     	;# 
   198  009E                     	;# 
   199  009F                     	;# 
   200  0105                     	;# 
   201  0107                     	;# 
   202  0108                     	;# 
   203  0109                     	;# 
   204  010C                     	;# 
   205  010C                     	;# 
   206  010D                     	;# 
   207  010E                     	;# 
   208  010F                     	;# 
   209  0185                     	;# 
   210  0187                     	;# 
   211  0188                     	;# 
   212  0189                     	;# 
   213  018C                     	;# 
   214  018D                     	;# 
   215  0000                     	;# 
   216  0001                     	;# 
   217  0002                     	;# 
   218  0003                     	;# 
   219  0004                     	;# 
   220  0005                     	;# 
   221  0006                     	;# 
   222  0007                     	;# 
   223  0008                     	;# 
   224  0009                     	;# 
   225  000A                     	;# 
   226  000B                     	;# 
   227  000C                     	;# 
   228  000D                     	;# 
   229  000E                     	;# 
   230  000E                     	;# 
   231  000F                     	;# 
   232  0010                     	;# 
   233  0011                     	;# 
   234  0012                     	;# 
   235  0013                     	;# 
   236  0014                     	;# 
   237  0015                     	;# 
   238  0015                     	;# 
   239  0016                     	;# 
   240  0017                     	;# 
   241  0018                     	;# 
   242  0019                     	;# 
   243  001A                     	;# 
   244  001B                     	;# 
   245  001B                     	;# 
   246  001C                     	;# 
   247  001D                     	;# 
   248  001E                     	;# 
   249  001F                     	;# 
   250  0081                     	;# 
   251  0085                     	;# 
   252  0086                     	;# 
   253  0087                     	;# 
   254  0088                     	;# 
   255  0089                     	;# 
   256  008C                     	;# 
   257  008D                     	;# 
   258  008E                     	;# 
   259  008F                     	;# 
   260  0090                     	;# 
   261  0091                     	;# 
   262  0092                     	;# 
   263  0093                     	;# 
   264  0093                     	;# 
   265  0093                     	;# 
   266  0094                     	;# 
   267  0095                     	;# 
   268  0096                     	;# 
   269  0097                     	;# 
   270  0098                     	;# 
   271  0099                     	;# 
   272  009A                     	;# 
   273  009B                     	;# 
   274  009C                     	;# 
   275  009D                     	;# 
   276  009E                     	;# 
   277  009F                     	;# 
   278  0105                     	;# 
   279  0107                     	;# 
   280  0108                     	;# 
   281  0109                     	;# 
   282  010C                     	;# 
   283  010C                     	;# 
   284  010D                     	;# 
   285  010E                     	;# 
   286  010F                     	;# 
   287  0185                     	;# 
   288  0187                     	;# 
   289  0188                     	;# 
   290  0189                     	;# 
   291  018C                     	;# 
   292  018D                     	;# 
   293  0000                     	;# 
   294  0001                     	;# 
   295  0002                     	;# 
   296  0003                     	;# 
   297  0004                     	;# 
   298  0005                     	;# 
   299  0006                     	;# 
   300  0007                     	;# 
   301  0008                     	;# 
   302  0009                     	;# 
   303  000A                     	;# 
   304  000B                     	;# 
   305  000C                     	;# 
   306  000D                     	;# 
   307  000E                     	;# 
   308  000E                     	;# 
   309  000F                     	;# 
   310  0010                     	;# 
   311  0011                     	;# 
   312  0012                     	;# 
   313  0013                     	;# 
   314  0014                     	;# 
   315  0015                     	;# 
   316  0015                     	;# 
   317  0016                     	;# 
   318  0017                     	;# 
   319  0018                     	;# 
   320  0019                     	;# 
   321  001A                     	;# 
   322  001B                     	;# 
   323  001B                     	;# 
   324  001C                     	;# 
   325  001D                     	;# 
   326  001E                     	;# 
   327  001F                     	;# 
   328  0081                     	;# 
   329  0085                     	;# 
   330  0086                     	;# 
   331  0087                     	;# 
   332  0088                     	;# 
   333  0089                     	;# 
   334  008C                     	;# 
   335  008D                     	;# 
   336  008E                     	;# 
   337  008F                     	;# 
   338  0090                     	;# 
   339  0091                     	;# 
   340  0092                     	;# 
   341  0093                     	;# 
   342  0093                     	;# 
   343  0093                     	;# 
   344  0094                     	;# 
   345  0095                     	;# 
   346  0096                     	;# 
   347  0097                     	;# 
   348  0098                     	;# 
   349  0099                     	;# 
   350  009A                     	;# 
   351  009B                     	;# 
   352  009C                     	;# 
   353  009D                     	;# 
   354  009E                     	;# 
   355  009F                     	;# 
   356  0105                     	;# 
   357  0107                     	;# 
   358  0108                     	;# 
   359  0109                     	;# 
   360  010C                     	;# 
   361  010C                     	;# 
   362  010D                     	;# 
   363  010E                     	;# 
   364  010F                     	;# 
   365  0185                     	;# 
   366  0187                     	;# 
   367  0188                     	;# 
   368  0189                     	;# 
   369  018C                     	;# 
   370  018D                     	;# 
   371  0013                     _SSPBUF	set	19
   372  0014                     _SSPCON	set	20
   373  000C                     _PIR1bits	set	12
   374  000B                     _INTCONbits	set	11
   375  001F                     _ADCON0	set	31
   376  0009                     _PORTE	set	9
   377  0007                     _PORTC	set	7
   378  0005                     _PORTA	set	5
   379  001E                     _ADRESH	set	30
   380  001F                     _ADCON0bits	set	31
   381  0006                     _PORTB	set	6
   382  0008                     _PORTD	set	8
   383  004A                     _RE2	set	74
   384  0049                     _RE1	set	73
   385  0048                     _RE0	set	72
   386  0063                     _SSPIF	set	99
   387  0094                     _SSPSTATbits	set	148
   388  0094                     _SSPSTAT	set	148
   389  008C                     _PIE1bits	set	140
   390  0085                     _TRISAbits	set	133
   391  009F                     _ADCON1bits	set	159
   392  0089                     _TRISE	set	137
   393  0088                     _TRISD	set	136
   394  0087                     _TRISC	set	135
   395  0086                     _TRISB	set	134
   396  0085                     _TRISA	set	133
   397  008F                     _OSCCONbits	set	143
   398  043B                     _TRISC3	set	1083
   399  043D                     _TRISC5	set	1085
   400  0189                     _ANSELH	set	393
   401  0188                     _ANSEL	set	392
   402                           
   403                           	psect	cinit
   404  000F                     start_initialization:	
   405                           ; #config settings
   406                           
   407  000F                     __initialization:
   408                           
   409                           ; Clear objects allocated to COMMON
   410  000F  01F7               	clrf	__pbssCOMMON& (0+127)
   411  0010  01F8               	clrf	(__pbssCOMMON+1)& (0+127)
   412  0011  01F9               	clrf	(__pbssCOMMON+2)& (0+127)
   413  0012  01FA               	clrf	(__pbssCOMMON+3)& (0+127)
   414                           
   415                           ; Clear objects allocated to BANK0
   416  0013  1283               	bcf	3,5	;RP0=0, select bank0
   417  0014  1303               	bcf	3,6	;RP1=0, select bank0
   418  0015  01AD               	clrf	__pbssBANK0& (0+127)
   419  0016  01AE               	clrf	(__pbssBANK0+1)& (0+127)
   420  0017                     end_of_initialization:	
   421                           ;End of C runtime variable initialization code
   422                           
   423  0017                     __end_of__initialization:
   424  0017  0183               	clrf	3
   425  0018  120A  118A  2926   	ljmp	_main	;jump to C main() function
   426                           
   427                           	psect	bssCOMMON
   428  0077                     __pbssCOMMON:
   429  0077                     _temp:
   430  0077                     	ds	2
   431  0079                     _mv_temp_val:
   432  0079                     	ds	2
   433                           
   434                           	psect	bssBANK0
   435  002D                     __pbssBANK0:
   436  002D                     _temp_val:
   437  002D                     	ds	2
   438                           
   439                           	psect	cstackCOMMON
   440  0070                     __pcstackCOMMON:
   441  0070                     ?_spiRead:
   442  0070                     ??_spiRead:	
   443                           ; 1 bytes @ 0x0
   444                           
   445  0070                     ?_spiWrite:	
   446                           ; 1 bytes @ 0x0
   447                           
   448  0070                     ??_spiWrite:	
   449                           ; 1 bytes @ 0x0
   450                           
   451  0070                     ?_setup:	
   452                           ; 1 bytes @ 0x0
   453                           
   454  0070                     ?_semaforo:	
   455                           ; 1 bytes @ 0x0
   456                           
   457  0070                     ?_Config_INTERRUPT:	
   458                           ; 1 bytes @ 0x0
   459                           
   460  0070                     ?_initOsc:	
   461                           ; 1 bytes @ 0x0
   462                           
   463  0070                     ?_ISR:	
   464                           ; 1 bytes @ 0x0
   465                           
   466  0070                     ?_main:	
   467                           ; 1 bytes @ 0x0
   468                           
   469  0070                     ?_spiReceiveWait:	
   470                           ; 1 bytes @ 0x0
   471                           
   472  0070                     ??_spiReceiveWait:	
   473                           ; 1 bytes @ 0x0
   474                           
   475  0070                     spiWrite@dat:	
   476                           ; 1 bytes @ 0x0
   477                           
   478                           
   479                           ; 1 bytes @ 0x0
   480  0070                     	ds	1
   481  0071                     ??_ISR:
   482                           
   483                           ; 1 bytes @ 0x1
   484  0071                     	ds	2
   485  0073                     ??_semaforo:
   486  0073                     ??_Config_INTERRUPT:	
   487                           ; 1 bytes @ 0x3
   488                           
   489  0073                     ?_spiInit:	
   490                           ; 1 bytes @ 0x3
   491                           
   492  0073                     ??_initOsc:	
   493                           ; 1 bytes @ 0x3
   494                           
   495  0073                     ?___wmul:	
   496                           ; 1 bytes @ 0x3
   497                           
   498  0073                     spiInit@sDataSample:	
   499                           ; 2 bytes @ 0x3
   500                           
   501  0073                     ___wmul@multiplier:	
   502                           ; 1 bytes @ 0x3
   503                           
   504                           
   505                           ; 2 bytes @ 0x3
   506  0073                     	ds	1
   507  0074                     spiInit@sClockIdle:
   508                           
   509                           ; 1 bytes @ 0x4
   510  0074                     	ds	1
   511  0075                     initOsc@IRCF:
   512  0075                     spiInit@sTransmitEdge:	
   513                           ; 1 bytes @ 0x5
   514                           
   515  0075                     ___wmul@multiplicand:	
   516                           ; 1 bytes @ 0x5
   517                           
   518                           
   519                           ; 2 bytes @ 0x5
   520  0075                     	ds	1
   521  0076                     ??_spiInit:
   522  0076                     spiInit@sType:	
   523                           ; 1 bytes @ 0x6
   524                           
   525                           
   526                           ; 1 bytes @ 0x6
   527  0076                     	ds	1
   528  0077                     ??_setup:
   529  0077                     ??___wmul:	
   530                           ; 1 bytes @ 0x7
   531                           
   532                           
   533                           	psect	cstackBANK0
   534  0020                     __pcstackBANK0:	
   535                           ; 1 bytes @ 0x7
   536                           
   537  0020                     ___wmul@product:
   538                           
   539                           ; 2 bytes @ 0x0
   540  0020                     	ds	2
   541  0022                     ?___awdiv:
   542  0022                     ___awdiv@divisor:	
   543                           ; 2 bytes @ 0x2
   544                           
   545                           
   546                           ; 2 bytes @ 0x2
   547  0022                     	ds	2
   548  0024                     ___awdiv@dividend:
   549                           
   550                           ; 2 bytes @ 0x4
   551  0024                     	ds	2
   552  0026                     ??___awdiv:
   553                           
   554                           ; 1 bytes @ 0x6
   555  0026                     	ds	1
   556  0027                     ___awdiv@counter:
   557                           
   558                           ; 1 bytes @ 0x7
   559  0027                     	ds	1
   560  0028                     ___awdiv@sign:
   561                           
   562                           ; 1 bytes @ 0x8
   563  0028                     	ds	1
   564  0029                     ___awdiv@quotient:
   565                           
   566                           ; 2 bytes @ 0x9
   567  0029                     	ds	2
   568  002B                     ??_main:
   569                           
   570                           ; 1 bytes @ 0xB
   571  002B                     	ds	2
   572                           
   573                           	psect	maintext
   574  0126                     __pmaintext:	
   575 ;;
   576 ;;Main: autosize = 0, tempsize = 2, incstack = 0, save=0
   577 ;;
   578 ;; *************** function _main *****************
   579 ;; Defined at:
   580 ;;		line 73 in file "main_temperatura.c"
   581 ;; Parameters:    Size  Location     Type
   582 ;;		None
   583 ;; Auto vars:     Size  Location     Type
   584 ;;		None
   585 ;; Return value:  Size  Location     Type
   586 ;;                  1    wreg      void 
   587 ;; Registers used:
   588 ;;		wreg, fsr0l, fsr0h, status,2, status,0, btemp+1, pclath, cstack
   589 ;; Tracked objects:
   590 ;;		On entry : B00/0
   591 ;;		On exit  : 0/0
   592 ;;		Unchanged: 0/0
   593 ;; Data sizes:     COMMON   BANK0   BANK1   BANK3   BANK2
   594 ;;      Params:         0       0       0       0       0
   595 ;;      Locals:         0       0       0       0       0
   596 ;;      Temps:          0       2       0       0       0
   597 ;;      Totals:         0       2       0       0       0
   598 ;;Total ram usage:        2 bytes
   599 ;; Hardware stack levels required when called:    5
   600 ;; This function calls:
   601 ;;		___awdiv
   602 ;;		___wmul
   603 ;;		_semaforo
   604 ;;		_setup
   605 ;; This function is called by:
   606 ;;		Startup code after reset
   607 ;; This function uses a non-reentrant model
   608 ;;
   609                           
   610                           
   611                           ;psect for function _main
   612  0126                     _main:
   613  0126                     l1145:	
   614                           ;incstack = 0
   615                           ; Regs used in _main: [wreg-fsr0h+status,2+status,0+btemp+1+pclath+cstack]
   616                           
   617                           
   618                           ;main_temperatura.c: 74:     setup();
   619  0126  120A  118A  2168  120A  118A  	fcall	_setup
   620  012B                     l1147:
   621                           
   622                           ;main_temperatura.c: 80:         ADCON0bits.GO = 1;
   623  012B  1283               	bcf	3,5	;RP0=0, select bank0
   624  012C  1303               	bcf	3,6	;RP1=0, select bank0
   625  012D  149F               	bsf	31,1	;volatile
   626                           
   627                           ;main_temperatura.c: 81:         while (ADCON0bits.GO != 0) {
   628  012E  2936               	goto	l1151
   629  012F                     l1149:
   630                           
   631                           ;main_temperatura.c: 82:             temp_val = ADRESH;
   632  012F  081E               	movf	30,w	;volatile
   633  0130  00AB               	movwf	??_main
   634  0131  01AC               	clrf	??_main+1
   635  0132  082B               	movf	??_main,w
   636  0133  00AD               	movwf	_temp_val
   637  0134  082C               	movf	??_main+1,w
   638  0135  00AE               	movwf	_temp_val+1
   639  0136                     l1151:
   640                           
   641                           ;main_temperatura.c: 81:         while (ADCON0bits.GO != 0) {
   642  0136  189F               	btfsc	31,1	;volatile
   643  0137  2939               	goto	u571
   644  0138  293A               	goto	u570
   645  0139                     u571:
   646  0139  292F               	goto	l1149
   647  013A                     u570:
   648  013A                     l1153:
   649                           
   650                           ;main_temperatura.c: 84:         mv_temp_val = ((ADRESH * 150) / 255);
   651  013A  30FF               	movlw	255
   652  013B  00A2               	movwf	___awdiv@divisor
   653  013C  3000               	movlw	0
   654  013D  00A3               	movwf	___awdiv@divisor+1
   655  013E  081E               	movf	30,w	;volatile
   656  013F  00AB               	movwf	??_main
   657  0140  01AC               	clrf	??_main+1
   658  0141  082B               	movf	??_main,w
   659  0142  00F3               	movwf	___wmul@multiplier
   660  0143  082C               	movf	??_main+1,w
   661  0144  00F4               	movwf	___wmul@multiplier+1
   662  0145  3096               	movlw	150
   663  0146  00F5               	movwf	___wmul@multiplicand
   664  0147  3000               	movlw	0
   665  0148  00F6               	movwf	___wmul@multiplicand+1
   666  0149  120A  118A  219B  120A  118A  	fcall	___wmul
   667  014E  0874               	movf	?___wmul+1,w
   668  014F  1283               	bcf	3,5	;RP0=0, select bank0
   669  0150  1303               	bcf	3,6	;RP1=0, select bank0
   670  0151  00A5               	movwf	___awdiv@dividend+1
   671  0152  0873               	movf	?___wmul,w
   672  0153  00A4               	movwf	___awdiv@dividend
   673  0154  120A  118A  201B  120A  118A  	fcall	___awdiv
   674  0159  1283               	bcf	3,5	;RP0=0, select bank0
   675  015A  1303               	bcf	3,6	;RP1=0, select bank0
   676  015B  0823               	movf	?___awdiv+1,w
   677  015C  00FA               	movwf	_mv_temp_val+1
   678  015D  0822               	movf	?___awdiv,w
   679  015E  00F9               	movwf	_mv_temp_val
   680  015F                     l1155:
   681                           
   682                           ;main_temperatura.c: 85:         semaforo();
   683  015F  120A  118A  20E0  120A  118A  	fcall	_semaforo
   684  0164  292B               	goto	l1147
   685  0165  120A  118A  280C   	ljmp	start
   686  0168                     __end_of_main:
   687                           
   688                           	psect	text1
   689  0168                     __ptext1:	
   690 ;; *************** function _setup *****************
   691 ;; Defined at:
   692 ;;		line 95 in file "main_temperatura.c"
   693 ;; Parameters:    Size  Location     Type
   694 ;;		None
   695 ;; Auto vars:     Size  Location     Type
   696 ;;		None
   697 ;; Return value:  Size  Location     Type
   698 ;;                  1    wreg      void 
   699 ;; Registers used:
   700 ;;		wreg, fsr0l, fsr0h, status,2, status,0, pclath, cstack
   701 ;; Tracked objects:
   702 ;;		On entry : 0/0
   703 ;;		On exit  : 0/0
   704 ;;		Unchanged: 0/0
   705 ;; Data sizes:     COMMON   BANK0   BANK1   BANK3   BANK2
   706 ;;      Params:         0       0       0       0       0
   707 ;;      Locals:         0       0       0       0       0
   708 ;;      Temps:          0       0       0       0       0
   709 ;;      Totals:         0       0       0       0       0
   710 ;;Total ram usage:        0 bytes
   711 ;; Hardware stack levels used:    1
   712 ;; Hardware stack levels required when called:    4
   713 ;; This function calls:
   714 ;;		_Config_INTERRUPT
   715 ;;		_initOsc
   716 ;;		_spiInit
   717 ;; This function is called by:
   718 ;;		_main
   719 ;; This function uses a non-reentrant model
   720 ;;
   721                           
   722                           
   723                           ;psect for function _setup
   724  0168                     _setup:
   725  0168                     l947:	
   726                           ;incstack = 0
   727                           ; Regs used in _setup: [wreg-fsr0h+status,2+status,0+pclath+cstack]
   728                           
   729                           
   730                           ;main_temperatura.c: 96:     initOsc(0b00000111);
   731  0168  3007               	movlw	7
   732  0169  120A  118A  2084  120A  118A  	fcall	_initOsc
   733  016E                     l949:
   734                           
   735                           ;main_temperatura.c: 97:     ANSEL = 0b00000001;
   736  016E  3001               	movlw	1
   737  016F  1683               	bsf	3,5	;RP0=1, select bank3
   738  0170  1703               	bsf	3,6	;RP1=1, select bank3
   739  0171  0088               	movwf	8	;volatile
   740  0172                     l951:
   741                           
   742                           ;main_temperatura.c: 98:     ANSELH = 0;
   743  0172  0189               	clrf	9	;volatile
   744  0173                     l953:
   745                           
   746                           ;main_temperatura.c: 99:     TRISA = 0b00000001;
   747  0173  3001               	movlw	1
   748  0174  1683               	bsf	3,5	;RP0=1, select bank1
   749  0175  1303               	bcf	3,6	;RP1=0, select bank1
   750  0176  0085               	movwf	5	;volatile
   751  0177                     l955:
   752                           
   753                           ;main_temperatura.c: 100:     TRISB = 0;
   754  0177  0186               	clrf	6	;volatile
   755  0178                     l957:
   756                           
   757                           ;main_temperatura.c: 101:     TRISC = 0;
   758  0178  0187               	clrf	7	;volatile
   759  0179                     l959:
   760                           
   761                           ;main_temperatura.c: 102:     TRISD = 0;
   762  0179  0188               	clrf	8	;volatile
   763  017A                     l961:
   764                           
   765                           ;main_temperatura.c: 103:     TRISE = 0;
   766  017A  0189               	clrf	9	;volatile
   767  017B                     l963:
   768                           
   769                           ;main_temperatura.c: 104:     PORTA = 0;
   770  017B  1283               	bcf	3,5	;RP0=0, select bank0
   771  017C  1303               	bcf	3,6	;RP1=0, select bank0
   772  017D  0185               	clrf	5	;volatile
   773  017E                     l965:
   774                           
   775                           ;main_temperatura.c: 105:     PORTB = 0;
   776  017E  0186               	clrf	6	;volatile
   777  017F                     l967:
   778                           
   779                           ;main_temperatura.c: 106:     PORTC = 0;
   780  017F  0187               	clrf	7	;volatile
   781  0180                     l969:
   782                           
   783                           ;main_temperatura.c: 107:     PORTD = 0;
   784  0180  0188               	clrf	8	;volatile
   785  0181                     l971:
   786                           
   787                           ;main_temperatura.c: 108:     PORTE = 0;
   788  0181  0189               	clrf	9	;volatile
   789  0182                     l973:
   790                           
   791                           ;main_temperatura.c: 110:     ADCON1bits.VCFG0 = 1;
   792  0182  1683               	bsf	3,5	;RP0=1, select bank1
   793  0183  1303               	bcf	3,6	;RP1=0, select bank1
   794  0184  161F               	bsf	31,4	;volatile
   795  0185                     l975:
   796                           
   797                           ;main_temperatura.c: 111:     ADCON0 = 0b01000001;
   798  0185  3041               	movlw	65
   799  0186  1283               	bcf	3,5	;RP0=0, select bank0
   800  0187  1303               	bcf	3,6	;RP1=0, select bank0
   801  0188  009F               	movwf	31	;volatile
   802  0189                     l977:
   803                           
   804                           ;main_temperatura.c: 112:     Config_INTERRUPT() ;
   805  0189  120A  118A  21FA  120A  118A  	fcall	_Config_INTERRUPT
   806  018E                     l979:
   807                           
   808                           ;main_temperatura.c: 113:     TRISAbits.TRISA5 = 1;
   809  018E  1683               	bsf	3,5	;RP0=1, select bank1
   810  018F  1303               	bcf	3,6	;RP1=0, select bank1
   811  0190  1685               	bsf	5,5	;volatile
   812  0191                     l981:
   813                           
   814                           ;main_temperatura.c: 114:     spiInit(SPI_SLAVE_SS_EN, SPI_DATA_SAMPLE_MIDDLE, SPI_CLOCK
      +                          _IDLE_LOW, SPI_IDLE_2_ACTIVE);
   815  0191  01F3               	clrf	spiInit@sDataSample
   816  0192  01F4               	clrf	spiInit@sClockIdle
   817  0193  01F5               	clrf	spiInit@sTransmitEdge
   818  0194  3024               	movlw	36
   819  0195  120A  118A  21E4  120A  118A  	fcall	_spiInit
   820  019A                     l104:
   821  019A  0008               	return
   822  019B                     __end_of_setup:
   823                           
   824                           	psect	text2
   825  01E4                     __ptext2:	
   826 ;; *************** function _spiInit *****************
   827 ;; Defined at:
   828 ;;		line 14 in file "SPI.c"
   829 ;; Parameters:    Size  Location     Type
   830 ;;  sType           1    wreg     enum E1264
   831 ;;  sDataSample     1    3[COMMON] enum E1272
   832 ;;  sClockIdle      1    4[COMMON] enum E1276
   833 ;;  sTransmitEdg    1    5[COMMON] enum E1280
   834 ;; Auto vars:     Size  Location     Type
   835 ;;  sType           1    6[COMMON] enum E1264
   836 ;; Return value:  Size  Location     Type
   837 ;;                  1    wreg      void 
   838 ;; Registers used:
   839 ;;		wreg, status,2, status,0
   840 ;; Tracked objects:
   841 ;;		On entry : 0/0
   842 ;;		On exit  : 0/0
   843 ;;		Unchanged: 0/0
   844 ;; Data sizes:     COMMON   BANK0   BANK1   BANK3   BANK2
   845 ;;      Params:         3       0       0       0       0
   846 ;;      Locals:         1       0       0       0       0
   847 ;;      Temps:          0       0       0       0       0
   848 ;;      Totals:         4       0       0       0       0
   849 ;;Total ram usage:        4 bytes
   850 ;; Hardware stack levels used:    1
   851 ;; Hardware stack levels required when called:    3
   852 ;; This function calls:
   853 ;;		Nothing
   854 ;; This function is called by:
   855 ;;		_setup
   856 ;; This function uses a non-reentrant model
   857 ;;
   858                           
   859                           
   860                           ;psect for function _spiInit
   861  01E4                     _spiInit:
   862                           
   863                           ;incstack = 0
   864                           ; Regs used in _spiInit: [wreg+status,2+status,0]
   865                           ;spiInit@sType stored from wreg
   866  01E4  00F6               	movwf	spiInit@sType
   867  01E5                     l937:
   868                           
   869                           ;SPI.c: 14: void spiInit(Spi_Type sType, Spi_Data_Sample sDataSample, Spi_Clock_Idle sCl
      +                          ockIdle, Spi_Transmit_Edge sTransmitEdge);SPI.c: 15: {;SPI.c: 16:     TRISC5 = 0;
   870  01E5  1683               	bsf	3,5	;RP0=1, select bank1
   871  01E6  1303               	bcf	3,6	;RP1=0, select bank1
   872  01E7  1287               	bcf	7,5	;volatile
   873                           
   874                           ;SPI.c: 17:     if(sType & 0b00000100)
   875  01E8  1D76               	btfss	spiInit@sType,2
   876  01E9  29EB               	goto	u231
   877  01EA  29EC               	goto	u230
   878  01EB                     u231:
   879  01EB  29F0               	goto	l943
   880  01EC                     u230:
   881  01EC                     l939:
   882                           
   883                           ;SPI.c: 18:     {;SPI.c: 19:         SSPSTAT = sTransmitEdge;
   884  01EC  0875               	movf	spiInit@sTransmitEdge,w
   885  01ED  0094               	movwf	20	;volatile
   886  01EE                     l941:
   887                           
   888                           ;SPI.c: 20:         TRISC3 = 1;
   889  01EE  1587               	bsf	7,3	;volatile
   890                           
   891                           ;SPI.c: 21:     }
   892  01EF  29F4               	goto	l131
   893  01F0                     l943:
   894                           
   895                           ;SPI.c: 23:     {;SPI.c: 24:         SSPSTAT = sDataSample | sTransmitEdge;
   896  01F0  0873               	movf	spiInit@sDataSample,w
   897  01F1  0475               	iorwf	spiInit@sTransmitEdge,w
   898  01F2  0094               	movwf	20	;volatile
   899  01F3                     l945:
   900                           
   901                           ;SPI.c: 25:         TRISC3 = 0;
   902  01F3  1187               	bcf	7,3	;volatile
   903  01F4                     l131:	
   904                           ;SPI.c: 26:     }
   905                           
   906                           
   907                           ;SPI.c: 28:     SSPCON = sType | sClockIdle;
   908  01F4  0876               	movf	spiInit@sType,w
   909  01F5  0474               	iorwf	spiInit@sClockIdle,w
   910  01F6  1283               	bcf	3,5	;RP0=0, select bank0
   911  01F7  1303               	bcf	3,6	;RP1=0, select bank0
   912  01F8  0094               	movwf	20	;volatile
   913  01F9                     l132:
   914  01F9  0008               	return
   915  01FA                     __end_of_spiInit:
   916                           
   917                           	psect	text3
   918  0084                     __ptext3:	
   919 ;; *************** function _initOsc *****************
   920 ;; Defined at:
   921 ;;		line 6 in file "Oscilador.c"
   922 ;; Parameters:    Size  Location     Type
   923 ;;  IRCF            1    wreg     unsigned char 
   924 ;; Auto vars:     Size  Location     Type
   925 ;;  IRCF            1    5[COMMON] unsigned char 
   926 ;; Return value:  Size  Location     Type
   927 ;;                  1    wreg      void 
   928 ;; Registers used:
   929 ;;		wreg, fsr0l, fsr0h, status,2, status,0
   930 ;; Tracked objects:
   931 ;;		On entry : 0/0
   932 ;;		On exit  : 0/0
   933 ;;		Unchanged: 0/0
   934 ;; Data sizes:     COMMON   BANK0   BANK1   BANK3   BANK2
   935 ;;      Params:         0       0       0       0       0
   936 ;;      Locals:         1       0       0       0       0
   937 ;;      Temps:          2       0       0       0       0
   938 ;;      Totals:         3       0       0       0       0
   939 ;;Total ram usage:        3 bytes
   940 ;; Hardware stack levels used:    1
   941 ;; Hardware stack levels required when called:    3
   942 ;; This function calls:
   943 ;;		Nothing
   944 ;; This function is called by:
   945 ;;		_setup
   946 ;; This function uses a non-reentrant model
   947 ;;
   948                           
   949                           
   950                           ;psect for function _initOsc
   951  0084                     _initOsc:
   952                           
   953                           ;incstack = 0
   954                           ; Regs used in _initOsc: [wreg-fsr0h+status,2+status,0]
   955                           ;initOsc@IRCF stored from wreg
   956  0084  00F5               	movwf	initOsc@IRCF
   957  0085                     l925:
   958                           
   959                           ;Oscilador.c: 8:     switch(IRCF){
   960  0085  28BC               	goto	l929
   961  0086                     l6:	
   962                           ;Oscilador.c: 9:         case 0:
   963                           
   964                           
   965                           ;Oscilador.c: 10:             OSCCONbits.IRCF2 = 0;
   966  0086  1683               	bsf	3,5	;RP0=1, select bank1
   967  0087  1303               	bcf	3,6	;RP1=0, select bank1
   968  0088  130F               	bcf	15,6	;volatile
   969                           
   970                           ;Oscilador.c: 11:             OSCCONbits.IRCF1 = 0;
   971  0089  128F               	bcf	15,5	;volatile
   972                           
   973                           ;Oscilador.c: 12:             OSCCONbits.IRCF0 = 0;
   974  008A  120F               	bcf	15,4	;volatile
   975                           
   976                           ;Oscilador.c: 13:             break;
   977  008B  28DE               	goto	l7
   978  008C                     l8:	
   979                           ;Oscilador.c: 14:          case 1:
   980                           
   981                           
   982                           ;Oscilador.c: 15:             OSCCONbits.IRCF2 = 0;
   983  008C  1683               	bsf	3,5	;RP0=1, select bank1
   984  008D  1303               	bcf	3,6	;RP1=0, select bank1
   985  008E  130F               	bcf	15,6	;volatile
   986                           
   987                           ;Oscilador.c: 16:             OSCCONbits.IRCF1 = 0;
   988  008F  128F               	bcf	15,5	;volatile
   989                           
   990                           ;Oscilador.c: 17:             OSCCONbits.IRCF0 = 1;
   991  0090  160F               	bsf	15,4	;volatile
   992                           
   993                           ;Oscilador.c: 18:             break;
   994  0091  28DE               	goto	l7
   995  0092                     l9:	
   996                           ;Oscilador.c: 19:         case 2:
   997                           
   998                           
   999                           ;Oscilador.c: 20:             OSCCONbits.IRCF2 = 0;
  1000  0092  1683               	bsf	3,5	;RP0=1, select bank1
  1001  0093  1303               	bcf	3,6	;RP1=0, select bank1
  1002  0094  130F               	bcf	15,6	;volatile
  1003                           
  1004                           ;Oscilador.c: 21:             OSCCONbits.IRCF1 = 1;
  1005  0095  168F               	bsf	15,5	;volatile
  1006                           
  1007                           ;Oscilador.c: 22:             OSCCONbits.IRCF0 = 0;
  1008  0096  120F               	bcf	15,4	;volatile
  1009                           
  1010                           ;Oscilador.c: 23:             break;
  1011  0097  28DE               	goto	l7
  1012  0098                     l10:	
  1013                           ;Oscilador.c: 24:         case 3:
  1014                           
  1015                           
  1016                           ;Oscilador.c: 25:             OSCCONbits.IRCF2 = 0;
  1017  0098  1683               	bsf	3,5	;RP0=1, select bank1
  1018  0099  1303               	bcf	3,6	;RP1=0, select bank1
  1019  009A  130F               	bcf	15,6	;volatile
  1020                           
  1021                           ;Oscilador.c: 26:             OSCCONbits.IRCF1 = 1;
  1022  009B  168F               	bsf	15,5	;volatile
  1023                           
  1024                           ;Oscilador.c: 27:             OSCCONbits.IRCF0 = 1;
  1025  009C  160F               	bsf	15,4	;volatile
  1026                           
  1027                           ;Oscilador.c: 28:             break;
  1028  009D  28DE               	goto	l7
  1029  009E                     l11:	
  1030                           ;Oscilador.c: 29:         case 4:
  1031                           
  1032                           
  1033                           ;Oscilador.c: 30:             OSCCONbits.IRCF2 = 1;
  1034  009E  1683               	bsf	3,5	;RP0=1, select bank1
  1035  009F  1303               	bcf	3,6	;RP1=0, select bank1
  1036  00A0  170F               	bsf	15,6	;volatile
  1037                           
  1038                           ;Oscilador.c: 31:             OSCCONbits.IRCF1 = 0;
  1039  00A1  128F               	bcf	15,5	;volatile
  1040                           
  1041                           ;Oscilador.c: 32:             OSCCONbits.IRCF0 = 0;
  1042  00A2  120F               	bcf	15,4	;volatile
  1043                           
  1044                           ;Oscilador.c: 33:             break;
  1045  00A3  28DE               	goto	l7
  1046  00A4                     l12:	
  1047                           ;Oscilador.c: 34:         case 5:
  1048                           
  1049                           
  1050                           ;Oscilador.c: 35:             OSCCONbits.IRCF2 = 1;
  1051  00A4  1683               	bsf	3,5	;RP0=1, select bank1
  1052  00A5  1303               	bcf	3,6	;RP1=0, select bank1
  1053  00A6  170F               	bsf	15,6	;volatile
  1054                           
  1055                           ;Oscilador.c: 36:             OSCCONbits.IRCF1 = 0;
  1056  00A7  128F               	bcf	15,5	;volatile
  1057                           
  1058                           ;Oscilador.c: 37:             OSCCONbits.IRCF0 = 1;
  1059  00A8  160F               	bsf	15,4	;volatile
  1060                           
  1061                           ;Oscilador.c: 38:             break;
  1062  00A9  28DE               	goto	l7
  1063  00AA                     l13:	
  1064                           ;Oscilador.c: 39:         case 6:
  1065                           
  1066                           
  1067                           ;Oscilador.c: 40:             OSCCONbits.IRCF2 = 1;
  1068  00AA  1683               	bsf	3,5	;RP0=1, select bank1
  1069  00AB  1303               	bcf	3,6	;RP1=0, select bank1
  1070  00AC  170F               	bsf	15,6	;volatile
  1071                           
  1072                           ;Oscilador.c: 41:             OSCCONbits.IRCF1 = 1;
  1073  00AD  168F               	bsf	15,5	;volatile
  1074                           
  1075                           ;Oscilador.c: 42:             OSCCONbits.IRCF0 = 0;
  1076  00AE  120F               	bcf	15,4	;volatile
  1077                           
  1078                           ;Oscilador.c: 43:             break;
  1079  00AF  28DE               	goto	l7
  1080  00B0                     l14:	
  1081                           ;Oscilador.c: 44:         case 7:
  1082                           
  1083                           
  1084                           ;Oscilador.c: 45:             OSCCONbits.IRCF2 = 1;
  1085  00B0  1683               	bsf	3,5	;RP0=1, select bank1
  1086  00B1  1303               	bcf	3,6	;RP1=0, select bank1
  1087  00B2  170F               	bsf	15,6	;volatile
  1088                           
  1089                           ;Oscilador.c: 46:             OSCCONbits.IRCF1 = 1;
  1090  00B3  168F               	bsf	15,5	;volatile
  1091                           
  1092                           ;Oscilador.c: 47:             OSCCONbits.IRCF0 = 1;
  1093  00B4  160F               	bsf	15,4	;volatile
  1094                           
  1095                           ;Oscilador.c: 48:             break;
  1096  00B5  28DE               	goto	l7
  1097  00B6                     l15:	
  1098                           ;Oscilador.c: 49:         default:
  1099                           
  1100                           
  1101                           ;Oscilador.c: 50:             OSCCONbits.IRCF2 = 1;
  1102  00B6  1683               	bsf	3,5	;RP0=1, select bank1
  1103  00B7  1303               	bcf	3,6	;RP1=0, select bank1
  1104  00B8  170F               	bsf	15,6	;volatile
  1105                           
  1106                           ;Oscilador.c: 51:             OSCCONbits.IRCF1 = 1;
  1107  00B9  168F               	bsf	15,5	;volatile
  1108                           
  1109                           ;Oscilador.c: 52:             OSCCONbits.IRCF0 = 0;
  1110  00BA  120F               	bcf	15,4	;volatile
  1111                           
  1112                           ;Oscilador.c: 53:             break;
  1113  00BB  28DE               	goto	l7
  1114  00BC                     l929:
  1115  00BC  0875               	movf	initOsc@IRCF,w
  1116  00BD  00F3               	movwf	??_initOsc
  1117  00BE  01F4               	clrf	??_initOsc+1
  1118                           
  1119                           ; Switch on 2 bytes has been partitioned into a top level switch of size 1, and 1 sub-sw
      +                          itches
  1120                           ; Switch size 1, requested type "simple"
  1121                           ; Number of cases is 1, Range of values is 0 to 0
  1122                           ; switch strategies available:
  1123                           ; Name         Instructions Cycles
  1124                           ; simple_byte            4     3 (average)
  1125                           ; direct_byte           11     8 (fixed)
  1126                           ; jumptable            260     6 (fixed)
  1127                           ;	Chosen strategy is simple_byte
  1128  00BF  0874               	movf	??_initOsc+1,w
  1129  00C0  3A00               	xorlw	0	; case 0
  1130  00C1  1903               	skipnz
  1131  00C2  28C4               	goto	l1177
  1132  00C3  28B6               	goto	l15
  1133  00C4                     l1177:
  1134                           
  1135                           ; Switch size 1, requested type "simple"
  1136                           ; Number of cases is 8, Range of values is 0 to 7
  1137                           ; switch strategies available:
  1138                           ; Name         Instructions Cycles
  1139                           ; simple_byte           25    13 (average)
  1140                           ; direct_byte           32     8 (fixed)
  1141                           ; jumptable            260     6 (fixed)
  1142                           ;	Chosen strategy is simple_byte
  1143  00C4  0873               	movf	??_initOsc,w
  1144  00C5  3A00               	xorlw	0	; case 0
  1145  00C6  1903               	skipnz
  1146  00C7  2886               	goto	l6
  1147  00C8  3A01               	xorlw	1	; case 1
  1148  00C9  1903               	skipnz
  1149  00CA  288C               	goto	l8
  1150  00CB  3A03               	xorlw	3	; case 2
  1151  00CC  1903               	skipnz
  1152  00CD  2892               	goto	l9
  1153  00CE  3A01               	xorlw	1	; case 3
  1154  00CF  1903               	skipnz
  1155  00D0  2898               	goto	l10
  1156  00D1  3A07               	xorlw	7	; case 4
  1157  00D2  1903               	skipnz
  1158  00D3  289E               	goto	l11
  1159  00D4  3A01               	xorlw	1	; case 5
  1160  00D5  1903               	skipnz
  1161  00D6  28A4               	goto	l12
  1162  00D7  3A03               	xorlw	3	; case 6
  1163  00D8  1903               	skipnz
  1164  00D9  28AA               	goto	l13
  1165  00DA  3A01               	xorlw	1	; case 7
  1166  00DB  1903               	skipnz
  1167  00DC  28B0               	goto	l14
  1168  00DD  28B6               	goto	l15
  1169  00DE                     l7:
  1170                           
  1171                           ;Oscilador.c: 55:     OSCCONbits.SCS = 1;
  1172  00DE  140F               	bsf	15,0	;volatile
  1173  00DF                     l16:
  1174  00DF  0008               	return
  1175  00E0                     __end_of_initOsc:
  1176                           
  1177                           	psect	text4
  1178  01FA                     __ptext4:	
  1179 ;; *************** function _Config_INTERRUPT *****************
  1180 ;; Defined at:
  1181 ;;		line 118 in file "main_temperatura.c"
  1182 ;; Parameters:    Size  Location     Type
  1183 ;;		None
  1184 ;; Auto vars:     Size  Location     Type
  1185 ;;		None
  1186 ;; Return value:  Size  Location     Type
  1187 ;;                  1    wreg      void 
  1188 ;; Registers used:
  1189 ;;		None
  1190 ;; Tracked objects:
  1191 ;;		On entry : 0/0
  1192 ;;		On exit  : 0/0
  1193 ;;		Unchanged: 0/0
  1194 ;; Data sizes:     COMMON   BANK0   BANK1   BANK3   BANK2
  1195 ;;      Params:         0       0       0       0       0
  1196 ;;      Locals:         0       0       0       0       0
  1197 ;;      Temps:          0       0       0       0       0
  1198 ;;      Totals:         0       0       0       0       0
  1199 ;;Total ram usage:        0 bytes
  1200 ;; Hardware stack levels used:    1
  1201 ;; Hardware stack levels required when called:    3
  1202 ;; This function calls:
  1203 ;;		Nothing
  1204 ;; This function is called by:
  1205 ;;		_setup
  1206 ;; This function uses a non-reentrant model
  1207 ;;
  1208                           
  1209                           
  1210                           ;psect for function _Config_INTERRUPT
  1211  01FA                     _Config_INTERRUPT:
  1212  01FA                     l935:	
  1213                           ;incstack = 0
  1214                           ; Regs used in _Config_INTERRUPT: []
  1215                           
  1216                           
  1217                           ;main_temperatura.c: 119:     INTCONbits.GIE = 1;
  1218  01FA  178B               	bsf	11,7	;volatile
  1219                           
  1220                           ;main_temperatura.c: 120:     INTCONbits.PEIE = 1;
  1221  01FB  170B               	bsf	11,6	;volatile
  1222                           
  1223                           ;main_temperatura.c: 121:     PIR1bits.SSPIF = 0;
  1224  01FC  1283               	bcf	3,5	;RP0=0, select bank0
  1225  01FD  1303               	bcf	3,6	;RP1=0, select bank0
  1226  01FE  118C               	bcf	12,3	;volatile
  1227                           
  1228                           ;main_temperatura.c: 122:     PIE1bits.SSPIE = 1;
  1229  01FF  1683               	bsf	3,5	;RP0=1, select bank1
  1230  0200  1303               	bcf	3,6	;RP1=0, select bank1
  1231  0201  158C               	bsf	12,3	;volatile
  1232  0202                     l107:
  1233  0202  0008               	return
  1234  0203                     __end_of_Config_INTERRUPT:
  1235                           
  1236                           	psect	text5
  1237  00E0                     __ptext5:	
  1238 ;; *************** function _semaforo *****************
  1239 ;; Defined at:
  1240 ;;		line 129 in file "main_temperatura.c"
  1241 ;; Parameters:    Size  Location     Type
  1242 ;;		None
  1243 ;; Auto vars:     Size  Location     Type
  1244 ;;		None
  1245 ;; Return value:  Size  Location     Type
  1246 ;;                  1    wreg      void 
  1247 ;; Registers used:
  1248 ;;		wreg, btemp+1
  1249 ;; Tracked objects:
  1250 ;;		On entry : 0/0
  1251 ;;		On exit  : 0/0
  1252 ;;		Unchanged: 0/0
  1253 ;; Data sizes:     COMMON   BANK0   BANK1   BANK3   BANK2
  1254 ;;      Params:         0       0       0       0       0
  1255 ;;      Locals:         0       0       0       0       0
  1256 ;;      Temps:          0       0       0       0       0
  1257 ;;      Totals:         0       0       0       0       0
  1258 ;;Total ram usage:        0 bytes
  1259 ;; Hardware stack levels used:    1
  1260 ;; Hardware stack levels required when called:    3
  1261 ;; This function calls:
  1262 ;;		Nothing
  1263 ;; This function is called by:
  1264 ;;		_main
  1265 ;; This function uses a non-reentrant model
  1266 ;;
  1267                           
  1268                           
  1269                           ;psect for function _semaforo
  1270  00E0                     _semaforo:
  1271  00E0                     l983:	
  1272                           ;incstack = 0
  1273                           ; Regs used in _semaforo: [wreg+btemp+1]
  1274                           
  1275                           
  1276                           ;main_temperatura.c: 130:     if (mv_temp_val <= 25){
  1277  00E0  087A               	movf	_mv_temp_val+1,w
  1278  00E1  3A80               	xorlw	128
  1279  00E2  00FF               	movwf	btemp+1
  1280  00E3  3080               	movlw	128
  1281  00E4  027F               	subwf	btemp+1,w
  1282  00E5  1D03               	skipz
  1283  00E6  28E9               	goto	u245
  1284  00E7  301A               	movlw	26
  1285  00E8  0279               	subwf	_mv_temp_val,w
  1286  00E9                     u245:
  1287  00E9  1803               	skipnc
  1288  00EA  28EC               	goto	u241
  1289  00EB  28ED               	goto	u240
  1290  00EC                     u241:
  1291  00EC  28F3               	goto	l987
  1292  00ED                     u240:
  1293  00ED                     l985:
  1294                           
  1295                           ;main_temperatura.c: 131:         RE0 = 0;
  1296  00ED  1283               	bcf	3,5	;RP0=0, select bank0
  1297  00EE  1303               	bcf	3,6	;RP1=0, select bank0
  1298  00EF  1009               	bcf	9,0	;volatile
  1299                           
  1300                           ;main_temperatura.c: 132:         RE1 = 0;
  1301  00F0  1089               	bcf	9,1	;volatile
  1302                           
  1303                           ;main_temperatura.c: 133:         RE2 = 1;
  1304  00F1  1509               	bsf	9,2	;volatile
  1305                           
  1306                           ;main_temperatura.c: 134:     }
  1307  00F2  2925               	goto	l115
  1308  00F3                     l987:
  1309  00F3  087A               	movf	_mv_temp_val+1,w
  1310  00F4  3A80               	xorlw	128
  1311  00F5  00FF               	movwf	btemp+1
  1312  00F6  3080               	movlw	128
  1313  00F7  027F               	subwf	btemp+1,w
  1314  00F8  1D03               	skipz
  1315  00F9  28FC               	goto	u255
  1316  00FA  301A               	movlw	26
  1317  00FB  0279               	subwf	_mv_temp_val,w
  1318  00FC                     u255:
  1319  00FC  1C03               	skipc
  1320  00FD  28FF               	goto	u251
  1321  00FE  2900               	goto	u250
  1322  00FF                     u251:
  1323  00FF  2913               	goto	l993
  1324  0100                     u250:
  1325  0100                     l989:
  1326  0100  087A               	movf	_mv_temp_val+1,w
  1327  0101  3A80               	xorlw	128
  1328  0102  00FF               	movwf	btemp+1
  1329  0103  3080               	movlw	128
  1330  0104  027F               	subwf	btemp+1,w
  1331  0105  1D03               	skipz
  1332  0106  2909               	goto	u265
  1333  0107  3025               	movlw	37
  1334  0108  0279               	subwf	_mv_temp_val,w
  1335  0109                     u265:
  1336  0109  1803               	skipnc
  1337  010A  290C               	goto	u261
  1338  010B  290D               	goto	u260
  1339  010C                     u261:
  1340  010C  2913               	goto	l993
  1341  010D                     u260:
  1342  010D                     l991:
  1343                           
  1344                           ;main_temperatura.c: 136:         RE0 = 0;
  1345  010D  1283               	bcf	3,5	;RP0=0, select bank0
  1346  010E  1303               	bcf	3,6	;RP1=0, select bank0
  1347  010F  1009               	bcf	9,0	;volatile
  1348                           
  1349                           ;main_temperatura.c: 137:         RE1 = 1;
  1350  0110  1489               	bsf	9,1	;volatile
  1351                           
  1352                           ;main_temperatura.c: 138:         RE2 = 0;
  1353  0111  1109               	bcf	9,2	;volatile
  1354                           
  1355                           ;main_temperatura.c: 139:     }
  1356  0112  2925               	goto	l115
  1357  0113                     l993:
  1358  0113  087A               	movf	_mv_temp_val+1,w
  1359  0114  3A80               	xorlw	128
  1360  0115  00FF               	movwf	btemp+1
  1361  0116  3080               	movlw	128
  1362  0117  027F               	subwf	btemp+1,w
  1363  0118  1D03               	skipz
  1364  0119  291C               	goto	u275
  1365  011A  3025               	movlw	37
  1366  011B  0279               	subwf	_mv_temp_val,w
  1367  011C                     u275:
  1368  011C  1C03               	skipc
  1369  011D  291F               	goto	u271
  1370  011E  2920               	goto	u270
  1371  011F                     u271:
  1372  011F  2925               	goto	l115
  1373  0120                     u270:
  1374  0120                     l995:
  1375                           
  1376                           ;main_temperatura.c: 141:         RE0 = 1;
  1377  0120  1283               	bcf	3,5	;RP0=0, select bank0
  1378  0121  1303               	bcf	3,6	;RP1=0, select bank0
  1379  0122  1409               	bsf	9,0	;volatile
  1380                           
  1381                           ;main_temperatura.c: 142:         RE1 = 0;
  1382  0123  1089               	bcf	9,1	;volatile
  1383                           
  1384                           ;main_temperatura.c: 143:         RE2 = 0;
  1385  0124  1109               	bcf	9,2	;volatile
  1386  0125                     l115:
  1387  0125  0008               	return
  1388  0126                     __end_of_semaforo:
  1389                           
  1390                           	psect	text6
  1391  019B                     __ptext6:	
  1392 ;; *************** function ___wmul *****************
  1393 ;; Defined at:
  1394 ;;		line 15 in file "C:\Program Files\Microchip\xc8\v2.31\pic\sources\c90\common\Umul16.c"
  1395 ;; Parameters:    Size  Location     Type
  1396 ;;  multiplier      2    3[COMMON] unsigned int 
  1397 ;;  multiplicand    2    5[COMMON] unsigned int 
  1398 ;; Auto vars:     Size  Location     Type
  1399 ;;  product         2    0[BANK0 ] unsigned int 
  1400 ;; Return value:  Size  Location     Type
  1401 ;;                  2    3[COMMON] unsigned int 
  1402 ;; Registers used:
  1403 ;;		wreg, status,2, status,0
  1404 ;; Tracked objects:
  1405 ;;		On entry : 0/0
  1406 ;;		On exit  : 0/0
  1407 ;;		Unchanged: 0/0
  1408 ;; Data sizes:     COMMON   BANK0   BANK1   BANK3   BANK2
  1409 ;;      Params:         4       0       0       0       0
  1410 ;;      Locals:         0       2       0       0       0
  1411 ;;      Temps:          0       0       0       0       0
  1412 ;;      Totals:         4       2       0       0       0
  1413 ;;Total ram usage:        6 bytes
  1414 ;; Hardware stack levels used:    1
  1415 ;; Hardware stack levels required when called:    3
  1416 ;; This function calls:
  1417 ;;		Nothing
  1418 ;; This function is called by:
  1419 ;;		_main
  1420 ;; This function uses a non-reentrant model
  1421 ;;
  1422                           
  1423                           
  1424                           ;psect for function ___wmul
  1425  019B                     ___wmul:
  1426  019B                     l1087:	
  1427                           ;incstack = 0
  1428                           ; Regs used in ___wmul: [wreg+status,2+status,0]
  1429                           
  1430  019B  1283               	bcf	3,5	;RP0=0, select bank0
  1431  019C  1303               	bcf	3,6	;RP1=0, select bank0
  1432  019D  01A0               	clrf	___wmul@product
  1433  019E  01A1               	clrf	___wmul@product+1
  1434  019F                     l1089:
  1435  019F  1C73               	btfss	___wmul@multiplier,0
  1436  01A0  29A2               	goto	u431
  1437  01A1  29A3               	goto	u430
  1438  01A2                     u431:
  1439  01A2  29AB               	goto	l235
  1440  01A3                     u430:
  1441  01A3                     l1091:
  1442  01A3  0875               	movf	___wmul@multiplicand,w
  1443  01A4  1283               	bcf	3,5	;RP0=0, select bank0
  1444  01A5  1303               	bcf	3,6	;RP1=0, select bank0
  1445  01A6  07A0               	addwf	___wmul@product,f
  1446  01A7  1803               	skipnc
  1447  01A8  0AA1               	incf	___wmul@product+1,f
  1448  01A9  0876               	movf	___wmul@multiplicand+1,w
  1449  01AA  07A1               	addwf	___wmul@product+1,f
  1450  01AB                     l235:
  1451  01AB  3001               	movlw	1
  1452  01AC                     u445:
  1453  01AC  1003               	clrc
  1454  01AD  0DF5               	rlf	___wmul@multiplicand,f
  1455  01AE  0DF6               	rlf	___wmul@multiplicand+1,f
  1456  01AF  3EFF               	addlw	-1
  1457  01B0  1D03               	skipz
  1458  01B1  29AC               	goto	u445
  1459  01B2                     l1093:
  1460  01B2  3001               	movlw	1
  1461  01B3                     u455:
  1462  01B3  1003               	clrc
  1463  01B4  0CF4               	rrf	___wmul@multiplier+1,f
  1464  01B5  0CF3               	rrf	___wmul@multiplier,f
  1465  01B6  3EFF               	addlw	-1
  1466  01B7  1D03               	skipz
  1467  01B8  29B3               	goto	u455
  1468  01B9                     l1095:
  1469  01B9  0873               	movf	___wmul@multiplier,w
  1470  01BA  0474               	iorwf	___wmul@multiplier+1,w
  1471  01BB  1D03               	btfss	3,2
  1472  01BC  29BE               	goto	u461
  1473  01BD  29BF               	goto	u460
  1474  01BE                     u461:
  1475  01BE  299F               	goto	l1089
  1476  01BF                     u460:
  1477  01BF                     l1097:
  1478  01BF  1283               	bcf	3,5	;RP0=0, select bank0
  1479  01C0  1303               	bcf	3,6	;RP1=0, select bank0
  1480  01C1  0821               	movf	___wmul@product+1,w
  1481  01C2  00F4               	movwf	?___wmul+1
  1482  01C3  0820               	movf	___wmul@product,w
  1483  01C4  00F3               	movwf	?___wmul
  1484  01C5                     l237:
  1485  01C5  0008               	return
  1486  01C6                     __end_of___wmul:
  1487                           
  1488                           	psect	text7
  1489  001B                     __ptext7:	
  1490 ;; *************** function ___awdiv *****************
  1491 ;; Defined at:
  1492 ;;		line 5 in file "C:\Program Files\Microchip\xc8\v2.31\pic\sources\c90\common\awdiv.c"
  1493 ;; Parameters:    Size  Location     Type
  1494 ;;  divisor         2    2[BANK0 ] int 
  1495 ;;  dividend        2    4[BANK0 ] int 
  1496 ;; Auto vars:     Size  Location     Type
  1497 ;;  quotient        2    9[BANK0 ] int 
  1498 ;;  sign            1    8[BANK0 ] unsigned char 
  1499 ;;  counter         1    7[BANK0 ] unsigned char 
  1500 ;; Return value:  Size  Location     Type
  1501 ;;                  2    2[BANK0 ] int 
  1502 ;; Registers used:
  1503 ;;		wreg, status,2, status,0
  1504 ;; Tracked objects:
  1505 ;;		On entry : 0/0
  1506 ;;		On exit  : 0/0
  1507 ;;		Unchanged: 0/0
  1508 ;; Data sizes:     COMMON   BANK0   BANK1   BANK3   BANK2
  1509 ;;      Params:         0       4       0       0       0
  1510 ;;      Locals:         0       4       0       0       0
  1511 ;;      Temps:          0       1       0       0       0
  1512 ;;      Totals:         0       9       0       0       0
  1513 ;;Total ram usage:        9 bytes
  1514 ;; Hardware stack levels used:    1
  1515 ;; Hardware stack levels required when called:    3
  1516 ;; This function calls:
  1517 ;;		Nothing
  1518 ;; This function is called by:
  1519 ;;		_main
  1520 ;; This function uses a non-reentrant model
  1521 ;;
  1522                           
  1523                           
  1524                           ;psect for function ___awdiv
  1525  001B                     ___awdiv:
  1526  001B                     l1101:	
  1527                           ;incstack = 0
  1528                           ; Regs used in ___awdiv: [wreg+status,2+status,0]
  1529                           
  1530  001B  1283               	bcf	3,5	;RP0=0, select bank0
  1531  001C  1303               	bcf	3,6	;RP1=0, select bank0
  1532  001D  01A8               	clrf	___awdiv@sign
  1533  001E                     l1103:
  1534  001E  1FA3               	btfss	___awdiv@divisor+1,7
  1535  001F  2821               	goto	u471
  1536  0020  2822               	goto	u470
  1537  0021                     u471:
  1538  0021  2829               	goto	l1109
  1539  0022                     u470:
  1540  0022                     l1105:
  1541  0022  09A2               	comf	___awdiv@divisor,f
  1542  0023  09A3               	comf	___awdiv@divisor+1,f
  1543  0024  0AA2               	incf	___awdiv@divisor,f
  1544  0025  1903               	skipnz
  1545  0026  0AA3               	incf	___awdiv@divisor+1,f
  1546  0027                     l1107:
  1547  0027  01A8               	clrf	___awdiv@sign
  1548  0028  0AA8               	incf	___awdiv@sign,f
  1549  0029                     l1109:
  1550  0029  1FA5               	btfss	___awdiv@dividend+1,7
  1551  002A  282C               	goto	u481
  1552  002B  282D               	goto	u480
  1553  002C                     u481:
  1554  002C  2836               	goto	l1115
  1555  002D                     u480:
  1556  002D                     l1111:
  1557  002D  09A4               	comf	___awdiv@dividend,f
  1558  002E  09A5               	comf	___awdiv@dividend+1,f
  1559  002F  0AA4               	incf	___awdiv@dividend,f
  1560  0030  1903               	skipnz
  1561  0031  0AA5               	incf	___awdiv@dividend+1,f
  1562  0032                     l1113:
  1563  0032  3001               	movlw	1
  1564  0033  00A6               	movwf	??___awdiv
  1565  0034  0826               	movf	??___awdiv,w
  1566  0035  06A8               	xorwf	___awdiv@sign,f
  1567  0036                     l1115:
  1568  0036  01A9               	clrf	___awdiv@quotient
  1569  0037  01AA               	clrf	___awdiv@quotient+1
  1570  0038                     l1117:
  1571  0038  0822               	movf	___awdiv@divisor,w
  1572  0039  0423               	iorwf	___awdiv@divisor+1,w
  1573  003A  1903               	btfsc	3,2
  1574  003B  283D               	goto	u491
  1575  003C  283E               	goto	u490
  1576  003D                     u491:
  1577  003D  2875               	goto	l1137
  1578  003E                     u490:
  1579  003E                     l1119:
  1580  003E  01A7               	clrf	___awdiv@counter
  1581  003F  0AA7               	incf	___awdiv@counter,f
  1582  0040  284C               	goto	l1125
  1583  0041                     l1121:
  1584  0041  3001               	movlw	1
  1585  0042                     u505:
  1586  0042  1003               	clrc
  1587  0043  0DA2               	rlf	___awdiv@divisor,f
  1588  0044  0DA3               	rlf	___awdiv@divisor+1,f
  1589  0045  3EFF               	addlw	-1
  1590  0046  1D03               	skipz
  1591  0047  2842               	goto	u505
  1592  0048                     l1123:
  1593  0048  3001               	movlw	1
  1594  0049  00A6               	movwf	??___awdiv
  1595  004A  0826               	movf	??___awdiv,w
  1596  004B  07A7               	addwf	___awdiv@counter,f
  1597  004C                     l1125:
  1598  004C  1FA3               	btfss	___awdiv@divisor+1,7
  1599  004D  284F               	goto	u511
  1600  004E  2850               	goto	u510
  1601  004F                     u511:
  1602  004F  2841               	goto	l1121
  1603  0050                     u510:
  1604  0050                     l1127:
  1605  0050  3001               	movlw	1
  1606  0051                     u525:
  1607  0051  1003               	clrc
  1608  0052  0DA9               	rlf	___awdiv@quotient,f
  1609  0053  0DAA               	rlf	___awdiv@quotient+1,f
  1610  0054  3EFF               	addlw	-1
  1611  0055  1D03               	skipz
  1612  0056  2851               	goto	u525
  1613  0057  0823               	movf	___awdiv@divisor+1,w
  1614  0058  0225               	subwf	___awdiv@dividend+1,w
  1615  0059  1D03               	skipz
  1616  005A  285D               	goto	u535
  1617  005B  0822               	movf	___awdiv@divisor,w
  1618  005C  0224               	subwf	___awdiv@dividend,w
  1619  005D                     u535:
  1620  005D  1C03               	skipc
  1621  005E  2860               	goto	u531
  1622  005F  2861               	goto	u530
  1623  0060                     u531:
  1624  0060  2868               	goto	l1133
  1625  0061                     u530:
  1626  0061                     l1129:
  1627  0061  0822               	movf	___awdiv@divisor,w
  1628  0062  02A4               	subwf	___awdiv@dividend,f
  1629  0063  0823               	movf	___awdiv@divisor+1,w
  1630  0064  1C03               	skipc
  1631  0065  03A5               	decf	___awdiv@dividend+1,f
  1632  0066  02A5               	subwf	___awdiv@dividend+1,f
  1633  0067                     l1131:
  1634  0067  1429               	bsf	___awdiv@quotient,0
  1635  0068                     l1133:
  1636  0068  3001               	movlw	1
  1637  0069                     u545:
  1638  0069  1003               	clrc
  1639  006A  0CA3               	rrf	___awdiv@divisor+1,f
  1640  006B  0CA2               	rrf	___awdiv@divisor,f
  1641  006C  3EFF               	addlw	-1
  1642  006D  1D03               	skipz
  1643  006E  2869               	goto	u545
  1644  006F                     l1135:
  1645  006F  3001               	movlw	1
  1646  0070  02A7               	subwf	___awdiv@counter,f
  1647  0071  1D03               	btfss	3,2
  1648  0072  2874               	goto	u551
  1649  0073  2875               	goto	u550
  1650  0074                     u551:
  1651  0074  2850               	goto	l1127
  1652  0075                     u550:
  1653  0075                     l1137:
  1654  0075  0828               	movf	___awdiv@sign,w
  1655  0076  1903               	btfsc	3,2
  1656  0077  2879               	goto	u561
  1657  0078  287A               	goto	u560
  1658  0079                     u561:
  1659  0079  287F               	goto	l1141
  1660  007A                     u560:
  1661  007A                     l1139:
  1662  007A  09A9               	comf	___awdiv@quotient,f
  1663  007B  09AA               	comf	___awdiv@quotient+1,f
  1664  007C  0AA9               	incf	___awdiv@quotient,f
  1665  007D  1903               	skipnz
  1666  007E  0AAA               	incf	___awdiv@quotient+1,f
  1667  007F                     l1141:
  1668  007F  082A               	movf	___awdiv@quotient+1,w
  1669  0080  00A3               	movwf	?___awdiv+1
  1670  0081  0829               	movf	___awdiv@quotient,w
  1671  0082  00A2               	movwf	?___awdiv
  1672  0083                     l388:
  1673  0083  0008               	return
  1674  0084                     __end_of___awdiv:
  1675                           
  1676                           	psect	text8
  1677  01C6                     __ptext8:	
  1678 ;; *************** function _ISR *****************
  1679 ;; Defined at:
  1680 ;;		line 60 in file "main_temperatura.c"
  1681 ;; Parameters:    Size  Location     Type
  1682 ;;		None
  1683 ;; Auto vars:     Size  Location     Type
  1684 ;;		None
  1685 ;; Return value:  Size  Location     Type
  1686 ;;                  1    wreg      void 
  1687 ;; Registers used:
  1688 ;;		wreg, status,2, status,0, pclath, cstack
  1689 ;; Tracked objects:
  1690 ;;		On entry : 0/0
  1691 ;;		On exit  : 0/0
  1692 ;;		Unchanged: 0/0
  1693 ;; Data sizes:     COMMON   BANK0   BANK1   BANK3   BANK2
  1694 ;;      Params:         0       0       0       0       0
  1695 ;;      Locals:         0       0       0       0       0
  1696 ;;      Temps:          2       0       0       0       0
  1697 ;;      Totals:         2       0       0       0       0
  1698 ;;Total ram usage:        2 bytes
  1699 ;; Hardware stack levels used:    1
  1700 ;; Hardware stack levels required when called:    2
  1701 ;; This function calls:
  1702 ;;		_spiRead
  1703 ;;		_spiWrite
  1704 ;; This function is called by:
  1705 ;;		Interrupt level 1
  1706 ;; This function uses a non-reentrant model
  1707 ;;
  1708                           
  1709                           
  1710                           ;psect for function _ISR
  1711  01C6                     _ISR:
  1712  01C6                     i1l881:
  1713                           
  1714                           ;main_temperatura.c: 61:     if(SSPIF == 1){
  1715  01C6  1283               	bcf	3,5	;RP0=0, select bank0
  1716  01C7  1303               	bcf	3,6	;RP1=0, select bank0
  1717  01C8  1D8C               	btfss	12,3	;volatile
  1718  01C9  29CB               	goto	u21_21
  1719  01CA  29CC               	goto	u21_20
  1720  01CB                     u21_21:
  1721  01CB  29DD               	goto	i1l90
  1722  01CC                     u21_20:
  1723  01CC                     i1l883:
  1724                           
  1725                           ;main_temperatura.c: 62:         PORTD = spiRead();
  1726  01CC  120A  118A  2203  120A  118A  	fcall	_spiRead
  1727  01D1  1283               	bcf	3,5	;RP0=0, select bank0
  1728  01D2  1303               	bcf	3,6	;RP1=0, select bank0
  1729  01D3  0088               	movwf	8	;volatile
  1730                           
  1731                           ;main_temperatura.c: 63:         spiWrite(PORTB);
  1732  01D4  0806               	movf	6,w	;volatile
  1733  01D5  120A  118A  2213  120A  118A  	fcall	_spiWrite
  1734  01DA                     i1l885:
  1735                           
  1736                           ;main_temperatura.c: 64:         SSPIF = 0;
  1737  01DA  1283               	bcf	3,5	;RP0=0, select bank0
  1738  01DB  1303               	bcf	3,6	;RP1=0, select bank0
  1739  01DC  118C               	bcf	12,3	;volatile
  1740  01DD                     i1l90:
  1741  01DD  0872               	movf	??_ISR+1,w
  1742  01DE  008A               	movwf	10
  1743  01DF  0E71               	swapf	??_ISR,w
  1744  01E0  0083               	movwf	3
  1745  01E1  0EFE               	swapf	btemp,f
  1746  01E2  0E7E               	swapf	btemp,w
  1747  01E3  0009               	retfie
  1748  01E4                     __end_of_ISR:
  1749                           
  1750                           	psect	intentry
  1751  0004                     __pintentry:	
  1752                           ;incstack = 0
  1753                           ; Regs used in _ISR: [wreg+status,2+status,0+pclath+cstack]
  1754                           
  1755  0004                     interrupt_function:
  1756  007E                     saved_w	set	btemp
  1757  0004  00FE               	movwf	btemp
  1758  0005  0E03               	swapf	3,w
  1759  0006  00F1               	movwf	??_ISR
  1760  0007  080A               	movf	10,w
  1761  0008  00F2               	movwf	??_ISR+1
  1762  0009  120A  118A  29C6   	ljmp	_ISR
  1763                           
  1764                           	psect	text9
  1765  0213                     __ptext9:	
  1766 ;; *************** function _spiWrite *****************
  1767 ;; Defined at:
  1768 ;;		line 36 in file "SPI.c"
  1769 ;; Parameters:    Size  Location     Type
  1770 ;;  dat             1    wreg     unsigned char 
  1771 ;; Auto vars:     Size  Location     Type
  1772 ;;  dat             1    0[COMMON] unsigned char 
  1773 ;; Return value:  Size  Location     Type
  1774 ;;                  1    wreg      void 
  1775 ;; Registers used:
  1776 ;;		wreg
  1777 ;; Tracked objects:
  1778 ;;		On entry : 0/0
  1779 ;;		On exit  : 0/0
  1780 ;;		Unchanged: 0/0
  1781 ;; Data sizes:     COMMON   BANK0   BANK1   BANK3   BANK2
  1782 ;;      Params:         0       0       0       0       0
  1783 ;;      Locals:         1       0       0       0       0
  1784 ;;      Temps:          0       0       0       0       0
  1785 ;;      Totals:         1       0       0       0       0
  1786 ;;Total ram usage:        1 bytes
  1787 ;; Hardware stack levels used:    1
  1788 ;; This function calls:
  1789 ;;		Nothing
  1790 ;; This function is called by:
  1791 ;;		_ISR
  1792 ;; This function uses a non-reentrant model
  1793 ;;
  1794                           
  1795                           
  1796                           ;psect for function _spiWrite
  1797  0213                     _spiWrite:
  1798                           
  1799                           ;incstack = 0
  1800                           ; Regs used in _spiWrite: [wreg]
  1801                           ;spiWrite@dat stored from wreg
  1802  0213  00F0               	movwf	spiWrite@dat
  1803  0214                     i1l771:
  1804                           
  1805                           ;SPI.c: 36: void spiWrite(char dat);SPI.c: 37: {;SPI.c: 38:     SSPBUF = dat;
  1806  0214  0870               	movf	spiWrite@dat,w
  1807  0215  1283               	bcf	3,5	;RP0=0, select bank0
  1808  0216  1303               	bcf	3,6	;RP1=0, select bank0
  1809  0217  0093               	movwf	19	;volatile
  1810  0218                     i1l141:
  1811  0218  0008               	return
  1812  0219                     __end_of_spiWrite:
  1813                           
  1814                           	psect	text10
  1815  0203                     __ptext10:	
  1816 ;; *************** function _spiRead *****************
  1817 ;; Defined at:
  1818 ;;		line 49 in file "SPI.c"
  1819 ;; Parameters:    Size  Location     Type
  1820 ;;		None
  1821 ;; Auto vars:     Size  Location     Type
  1822 ;;		None
  1823 ;; Return value:  Size  Location     Type
  1824 ;;                  1    wreg      unsigned char 
  1825 ;; Registers used:
  1826 ;;		wreg, status,2, status,0, pclath, cstack
  1827 ;; Tracked objects:
  1828 ;;		On entry : 0/0
  1829 ;;		On exit  : 0/0
  1830 ;;		Unchanged: 0/0
  1831 ;; Data sizes:     COMMON   BANK0   BANK1   BANK3   BANK2
  1832 ;;      Params:         0       0       0       0       0
  1833 ;;      Locals:         0       0       0       0       0
  1834 ;;      Temps:          0       0       0       0       0
  1835 ;;      Totals:         0       0       0       0       0
  1836 ;;Total ram usage:        0 bytes
  1837 ;; Hardware stack levels used:    1
  1838 ;; Hardware stack levels required when called:    1
  1839 ;; This function calls:
  1840 ;;		_spiReceiveWait
  1841 ;; This function is called by:
  1842 ;;		_ISR
  1843 ;; This function uses a non-reentrant model
  1844 ;;
  1845                           
  1846                           
  1847                           ;psect for function _spiRead
  1848  0203                     _spiRead:
  1849  0203                     i1l765:	
  1850                           ;incstack = 0
  1851                           ; Regs used in _spiRead: [wreg+status,2+status,0+pclath+cstack]
  1852                           
  1853                           
  1854                           ;SPI.c: 51:     spiReceiveWait();
  1855  0203  120A  118A  220C  120A  118A  	fcall	_spiReceiveWait
  1856  0208                     i1l767:
  1857                           
  1858                           ;SPI.c: 52:     return(SSPBUF);
  1859  0208  1283               	bcf	3,5	;RP0=0, select bank0
  1860  0209  1303               	bcf	3,6	;RP1=0, select bank0
  1861  020A  0813               	movf	19,w	;volatile
  1862  020B                     i1l149:
  1863  020B  0008               	return
  1864  020C                     __end_of_spiRead:
  1865                           
  1866                           	psect	text11
  1867  020C                     __ptext11:	
  1868 ;; *************** function _spiReceiveWait *****************
  1869 ;; Defined at:
  1870 ;;		line 31 in file "SPI.c"
  1871 ;; Parameters:    Size  Location     Type
  1872 ;;		None
  1873 ;; Auto vars:     Size  Location     Type
  1874 ;;		None
  1875 ;; Return value:  Size  Location     Type
  1876 ;;                  1    wreg      void 
  1877 ;; Registers used:
  1878 ;;		None
  1879 ;; Tracked objects:
  1880 ;;		On entry : 0/0
  1881 ;;		On exit  : 0/0
  1882 ;;		Unchanged: 0/0
  1883 ;; Data sizes:     COMMON   BANK0   BANK1   BANK3   BANK2
  1884 ;;      Params:         0       0       0       0       0
  1885 ;;      Locals:         0       0       0       0       0
  1886 ;;      Temps:          0       0       0       0       0
  1887 ;;      Totals:         0       0       0       0       0
  1888 ;;Total ram usage:        0 bytes
  1889 ;; Hardware stack levels used:    1
  1890 ;; This function calls:
  1891 ;;		Nothing
  1892 ;; This function is called by:
  1893 ;;		_spiRead
  1894 ;; This function uses a non-reentrant model
  1895 ;;
  1896                           
  1897                           
  1898                           ;psect for function _spiReceiveWait
  1899  020C                     _spiReceiveWait:
  1900  020C                     i1l763:	
  1901                           ;incstack = 0
  1902                           ; Regs used in _spiReceiveWait: []
  1903                           
  1904  020C                     i1l135:	
  1905                           ;SPI.c: 33:     while ( !SSPSTATbits.BF );
  1906                           
  1907  020C  1683               	bsf	3,5	;RP0=1, select bank1
  1908  020D  1303               	bcf	3,6	;RP1=0, select bank1
  1909  020E  1C14               	btfss	20,0	;volatile
  1910  020F  2A11               	goto	u2_21
  1911  0210  2A12               	goto	u2_20
  1912  0211                     u2_21:
  1913  0211  2A0C               	goto	i1l135
  1914  0212                     u2_20:
  1915  0212                     i1l138:
  1916  0212  0008               	return
  1917  0213                     __end_of_spiReceiveWait:
  1918  007E                     btemp	set	126	;btemp
  1919  007E                     wtemp0	set	126
  1920                           
  1921                           	psect	config
  1922                           
  1923                           ;Config register CONFIG1 @ 0x2007
  1924                           ;	Oscillator Selection bits
  1925                           ;	FOSC = EXTRC_NOCLKOUT, RCIO oscillator: I/O function on RA6/OSC2/CLKOUT pin, RC on RA7
      +                          /OSC1/CLKIN
  1926                           ;	Watchdog Timer Enable bit
  1927                           ;	WDTE = OFF, WDT disabled and can be enabled by SWDTEN bit of the WDTCON register
  1928                           ;	Power-up Timer Enable bit
  1929                           ;	PWRTE = OFF, PWRT disabled
  1930                           ;	RE3/MCLR pin function select bit
  1931                           ;	MCLRE = OFF, RE3/MCLR pin function is digital input, MCLR internally tied to VDD
  1932                           ;	Code Protection bit
  1933                           ;	CP = OFF, Program memory code protection is disabled
  1934                           ;	Data Code Protection bit
  1935                           ;	CPD = OFF, Data memory code protection is disabled
  1936                           ;	Brown Out Reset Selection bits
  1937                           ;	BOREN = OFF, BOR disabled
  1938                           ;	Internal External Switchover bit
  1939                           ;	IESO = OFF, Internal/External Switchover mode is disabled
  1940                           ;	Fail-Safe Clock Monitor Enabled bit
  1941                           ;	FCMEN = OFF, Fail-Safe Clock Monitor is disabled
  1942                           ;	Low Voltage Programming Enable bit
  1943                           ;	LVP = OFF, RB3 pin has digital I/O, HV on MCLR must be used for programming
  1944                           ;	In-Circuit Debugger Mode bit
  1945                           ;	DEBUG = 0x1, unprogrammed default
  1946  2007                     	org	8199
  1947  2007  20D6               	dw	8406
  1948                           
  1949                           ;Config register CONFIG2 @ 0x2008
  1950                           ;	Brown-out Reset Selection bit
  1951                           ;	BOR4V = BOR40V, Brown-out Reset set to 4.0V
  1952                           ;	Flash Program Memory Self Write Enable bits
  1953                           ;	WRT = OFF, Write protection off
  1954  2008                     	org	8200
  1955  2008  3FFF               	dw	16383

Data Sizes:
    Strings     0
    Constant    0
    Data        0
    BSS         6
    Persistent  0
    Stack       0

Auto Spaces:
    Space          Size  Autos    Used
    COMMON           14      7      11
    BANK0            80     13      15
    BANK1            80      0       0
    BANK3            96      0       0
    BANK2            96      0       0

Pointer List with Targets:

    None.

Critical Paths under _main in COMMON

    _main->___wmul
    _setup->_spiInit
    ___awdiv->___wmul

Critical Paths under _ISR in COMMON

    _ISR->_spiWrite

Critical Paths under _main in BANK0

    _main->___awdiv
    ___awdiv->___wmul

Critical Paths under _ISR in BANK0

    None.

Critical Paths under _main in BANK1

    None.

Critical Paths under _ISR in BANK1

    None.

Critical Paths under _main in BANK3

    None.

Critical Paths under _ISR in BANK3

    None.

Critical Paths under _main in BANK2

    None.

Critical Paths under _ISR in BANK2

    None.

Call Graph Tables:

 ---------------------------------------------------------------------------------
 (Depth) Function   	        Calls       Base Space   Used Autos Params    Refs
 ---------------------------------------------------------------------------------
 (0) _main                                                 2     2      0    1323
                                             11 BANK0      2     2      0
                            ___awdiv
                             ___wmul
                           _semaforo
                              _setup
 ---------------------------------------------------------------------------------
 (1) _setup                                                0     0      0     382
                   _Config_INTERRUPT
                            _initOsc
                            _spiInit
 ---------------------------------------------------------------------------------
 (2) _spiInit                                              4     1      3     360
                                              3 COMMON     4     1      3
 ---------------------------------------------------------------------------------
 (2) _initOsc                                              3     3      0      22
                                              3 COMMON     3     3      0
 ---------------------------------------------------------------------------------
 (2) _Config_INTERRUPT                                     0     0      0       0
 ---------------------------------------------------------------------------------
 (1) _semaforo                                             0     0      0       0
 ---------------------------------------------------------------------------------
 (1) ___wmul                                               6     2      4     316
                                              3 COMMON     4     0      4
                                              0 BANK0      2     2      0
 ---------------------------------------------------------------------------------
 (1) ___awdiv                                              9     5      4     625
                                              2 BANK0      9     5      4
                             ___wmul (ARG)
 ---------------------------------------------------------------------------------
 Estimated maximum stack depth 2
 ---------------------------------------------------------------------------------
 (Depth) Function   	        Calls       Base Space   Used Autos Params    Refs
 ---------------------------------------------------------------------------------
 (3) _ISR                                                  2     2      0      15
                                              1 COMMON     2     2      0
                            _spiRead
                           _spiWrite
 ---------------------------------------------------------------------------------
 (4) _spiWrite                                             1     1      0      15
                                              0 COMMON     1     1      0
 ---------------------------------------------------------------------------------
 (4) _spiRead                                              0     0      0       0
                     _spiReceiveWait
 ---------------------------------------------------------------------------------
 (5) _spiReceiveWait                                       0     0      0       0
 ---------------------------------------------------------------------------------
 Estimated maximum stack depth 5
 ---------------------------------------------------------------------------------

 Call Graph Graphs:

 _main (ROOT)
   ___awdiv
     ___wmul (ARG)
   ___wmul
   _semaforo
   _setup
     _Config_INTERRUPT
     _initOsc
     _spiInit

 _ISR (ROOT)
   _spiRead
     _spiReceiveWait
   _spiWrite

 Address spaces:
Name               Size   Autos  Total    Cost      Usage
BITCOMMON            E      0       0       0        0.0%
EEDATA             100      0       0       0        0.0%
NULL                 0      0       0       0        0.0%
CODE                 0      0       0       0        0.0%
COMMON               E      7       B       1       78.6%
BITSFR0              0      0       0       1        0.0%
SFR0                 0      0       0       1        0.0%
BITSFR1              0      0       0       2        0.0%
SFR1                 0      0       0       2        0.0%
STACK                0      0       0       2        0.0%
ABS                  0      0      1A       3        0.0%
BITBANK0            50      0       0       4        0.0%
BITSFR3              0      0       0       4        0.0%
SFR3                 0      0       0       4        0.0%
BANK0               50      D       F       5       18.8%
BITSFR2              0      0       0       5        0.0%
SFR2                 0      0       0       5        0.0%
BITBANK1            50      0       0       6        0.0%
BANK1               50      0       0       7        0.0%
BITBANK3            60      0       0       8        0.0%
BANK3               60      0       0       9        0.0%
BITBANK2            60      0       0      10        0.0%
BANK2               60      0       0      11        0.0%
DATA                 0      0      1A      12        0.0%


Microchip Technology PIC Macro Assembler V2.31 build 20201012212115 
Symbol Table                                                                                   Thu Feb 18 12:13:43 2021

                        l6 0086                          l7 00DE                          l8 008C  
                        l9 0092                _SSPSTATbits 0094                         l10 0098  
                       l11 009E                         l12 00A4                         l13 00AA  
                       l14 00B0                         l15 00B6                         l16 00DF  
             ___awdiv@sign 0028        ___wmul@multiplicand 0075                        l104 019A  
                      l115 0125                        l107 0202                        l131 01F4  
                      l132 01F9                        l235 01AB                        l237 01C5  
                      l388 0083                        l925 0085                        l941 01EE  
                      l935 01FA                        l943 01F0                        l951 0172  
                      l929 00BC                        l945 01F3                        l937 01E5  
                      l961 017A                        l953 0173                        l939 01EC  
                      l971 0181                        l963 017B                        l955 0177  
                      l947 0168                        l981 0191                        l973 0182  
                      l965 017E                        l957 0178                        l949 016E  
                      l991 010D                        l983 00E0                        l975 0185  
                      l967 017F                        l959 0179                        l993 0113  
                      l985 00ED                        l977 0189                        l969 0180  
                      l995 0120                        l987 00F3                        l979 018E  
                      l989 0100                        _RE0 0048                        _RE1 0049  
                      _RE2 004A                        u230 01EC                        u231 01EB  
                      u240 00ED                        u241 00EC                        u250 0100  
                      u251 00FF                        u260 010D                        u261 010C  
                      u245 00E9                        u510 0050                        u430 01A3  
                      u270 0120                        u511 004F                        u431 01A2  
                      u271 011F                        u255 00FC                        u505 0042  
                      u265 0109                        u530 0061                        u531 0060  
                      u275 011C                        u460 01BF                        _ISR 01C6  
                      u525 0051                        u461 01BE                        u445 01AC  
                      u550 0075                        u470 0022                        u551 0074  
                      u535 005D                        u471 0021                        u455 01B3  
                      u560 007A                        u480 002D                        u561 0079  
                      u545 0069                        u481 002C                        u490 003E  
                      u570 013A                        u491 003D                        u571 0139  
                     ?_ISR 0070                       l1101 001B                       l1111 002D  
                     l1103 001E                       l1121 0041                       l1113 0032  
                     l1105 0022                       l1131 0067                       l1123 0048  
                     l1115 0036                       l1107 0027                       l1141 007F  
                     l1133 0068                       l1125 004C                       l1117 0038  
                     l1109 0029                       l1135 006F                       l1127 0050  
                     l1119 003E                       l1151 0136                       l1129 0061  
                     l1137 0075                       l1153 013A                       l1145 0126  
                     l1139 007A                       l1091 01A3                       l1155 015F  
                     l1147 012B                       l1093 01B2                       l1149 012F  
                     l1095 01B9                       l1087 019B                       l1097 01BF  
                     l1089 019F                       l1177 00C4                       i1l90 01DD  
                     u2_20 0212                       u2_21 0211                       _main 0126  
                     _temp 0077                       btemp 007E   __end_of_Config_INTERRUPT 0203  
                     start 000C                      ??_ISR 0071                      ?_main 0070  
          __end_of___awdiv 0084                      _ANSEL 0188            ___awdiv@divisor 0022  
                    i1l141 0218                      i1l135 020C                      i1l138 0212  
                    i1l149 020B                      i1l763 020C                      i1l771 0214  
                    i1l765 0203                      i1l767 0208                      i1l881 01C6  
                    i1l883 01CC                      i1l885 01DA            ___awdiv@counter 0027  
                    u21_20 01CC                      u21_21 01CB                      _PORTA 0005  
                    _PORTB 0006                      _PORTC 0007                      _PORTD 0008  
                    _PORTE 0009                      _TRISA 0085                      _TRISB 0086  
                    _TRISC 0087                      _TRISD 0088                      _TRISE 0089  
                    _SSPIF 0063            __end_of_initOsc 00E0                      _setup 0168  
                    pclath 000A            __end_of_spiInit 01FA            __end_of_spiRead 020C  
                    status 0003                      wtemp0 007E            __initialization 000F  
             __end_of_main 0168                     ??_main 002B                     _ADCON0 001F  
                   _ADRESH 001E                initOsc@IRCF 0075           ___awdiv@dividend 0024  
                   ?_setup 0070                     _ANSELH 0189                     _TRISC3 043B  
                   _TRISC5 043D                     _SSPCON 0014                     _SSPBUF 0013  
                   ___wmul 019B                  ??___awdiv 0026           ___awdiv@quotient 0029  
         __end_of_semaforo 0126                  ??_initOsc 0073                     saved_w 007E  
         __end_of_spiWrite 0219                  ??_spiInit 0076                  ??_spiRead 0070  
  __end_of__initialization 0017             __pcstackCOMMON 0070              __end_of_setup 019B  
                  ??_setup 0077                 __pbssBANK0 002D          ?_Config_INTERRUPT 0070  
               __pmaintext 0126         ??_Config_INTERRUPT 0073                    ?___wmul 0073  
               __pintentry 0004    __size_of_spiReceiveWait 0007                    _SSPSTAT 0094  
                ?_semaforo 0070                  ?_spiWrite 0070                    ___awdiv 001B  
          __size_of___wmul 002B                    __ptext1 0168                    __ptext2 01E4  
                  __ptext3 0084                    __ptext4 01FA                    __ptext5 00E0  
                  __ptext6 019B                    __ptext7 001B                    __ptext8 01C6  
                  __ptext9 0213               __size_of_ISR 001E                    _initOsc 0084  
                  _spiInit 01E4                    _spiRead 0203       end_of_initialization 0017  
               ??_semaforo 0073                 ??_spiWrite 0070                  _TRISAbits 0085  
              spiWrite@dat 0070             _spiReceiveWait 020C             __end_of___wmul 01C6  
      start_initialization 000F                __end_of_ISR 01E4     __end_of_spiReceiveWait 0213  
                 ??___wmul 0077  __size_of_Config_INTERRUPT 0009                __pbssCOMMON 0077  
                ___latbits 0002              __pcstackBANK0 0020            ?_spiReceiveWait 0070  
        __size_of_semaforo 0046                   ?___awdiv 0022          __size_of_spiWrite 0006  
                 ?_initOsc 0070                   ?_spiInit 0073                   ?_spiRead 0070  
           __size_of_setup 0033       spiInit@sTransmitEdge 0075          interrupt_function 0004  
           ___wmul@product 0020                   _PIE1bits 008C         spiInit@sDataSample 0073  
                 _PIR1bits 000C                 _ADCON0bits 001F                 _ADCON1bits 009F  
        ___wmul@multiplier 0073           __size_of___awdiv 0069           _Config_INTERRUPT 01FA  
         __size_of_initOsc 005C                   __ptext10 0203                   __ptext11 020C  
         __size_of_spiInit 0016           __size_of_spiRead 0009              __size_of_main 0042  
                 _semaforo 00E0                   _temp_val 002D                   _spiWrite 0213  
             spiInit@sType 0076          spiInit@sClockIdle 0074                 _INTCONbits 000B  
                 intlevel1 0000           ??_spiReceiveWait 0070                _mv_temp_val 0079  
               _OSCCONbits 008F  
