

Microchip MPLAB XC8 Assembler V2.31 build 20201012212115 
                                                                                               Fri Feb 12 21:54:22 2021

Microchip MPLAB XC8 C Compiler v2.31 (Free license) build 20201012212115 Og1 
     1                           	processor	16F887
     2                           	pagewidth 120
     3                           	opt	flic
     4                           	psect	strings,global,class=STRING,delta=2,noexec
     5                           	psect	cinit,global,class=CODE,merge=1,delta=2
     6                           	psect	bssCOMMON,global,class=COMMON,space=1,delta=1,noexec
     7                           	psect	bssBANK1,global,class=BANK1,space=1,delta=1,noexec
     8                           	psect	clrtext,global,class=CODE,delta=2
     9                           	psect	cstackBANK1,global,class=BANK1,space=1,delta=1,noexec
    10                           	psect	cstackCOMMON,global,class=COMMON,space=1,delta=1,noexec
    11                           	psect	cstackBANK0,global,class=BANK0,space=1,delta=1,noexec
    12                           	psect	maintext,global,class=CODE,split=1,delta=2
    13                           	psect	text1,local,class=CODE,merge=1,delta=2,group=1
    14                           	psect	text2,local,class=CODE,merge=1,delta=2,group=1
    15                           	psect	text3,local,class=CODE,merge=1,delta=2,group=2
    16                           	psect	text4,local,class=CODE,merge=1,delta=2,group=2
    17                           	psect	text5,local,class=CODE,merge=1,delta=2,group=3
    18                           	psect	text6,local,class=CODE,merge=1,delta=2,group=1
    19                           	psect	text7,local,class=CODE,merge=1,delta=2,group=2
    20                           	psect	text8,local,class=CODE,merge=1,delta=2,group=2
    21                           	psect	text9,local,class=CODE,merge=1,delta=2,group=2
    22                           	psect	text10,local,class=CODE,merge=1,delta=2,group=2
    23                           	psect	text11,local,class=CODE,merge=1,delta=2,group=2
    24                           	psect	text12,local,class=CODE,merge=1,delta=2,group=2
    25                           	psect	text13,local,class=CODE,merge=1,delta=2,group=2
    26                           	psect	text14,local,class=CODE,merge=1,delta=2,group=2
    27                           	psect	text15,local,class=CODE,merge=1,delta=2,group=2
    28                           	psect	text16,local,class=CODE,merge=1,delta=2,group=2
    29                           	psect	text17,local,class=CODE,merge=1,delta=2,group=2
    30                           	psect	text18,local,class=CODE,merge=1,delta=2,group=2
    31                           	psect	text19,local,class=CODE,merge=1,delta=2,group=2
    32                           	psect	text20,local,class=CODE,merge=1,delta=2
    33                           	psect	text21,local,class=CODE,merge=1,delta=2
    34                           	psect	text22,local,class=CODE,merge=1,delta=2
    35                           	psect	text23,local,class=CODE,merge=1,delta=2,group=2
    36                           	psect	text24,local,class=CODE,merge=1,delta=2,group=2
    37                           	psect	text25,local,class=CODE,merge=1,delta=2,group=2
    38                           	psect	text26,local,class=CODE,merge=1,delta=2,group=2
    39                           	psect	text27,local,class=CODE,merge=1,delta=2
    40                           	psect	intentry,global,class=CODE,delta=2
    41                           	psect	config,global,abs,ovrld,class=CONFIG,space=4,delta=2,noexec
    42                           	psect	text1_split_1,local,class=CODE,merge=1,delta=2
    43                           	dabs	1,0x7E,2
    44  0000                     
    45                           ; Version 2.20
    46                           ; Generated 12/02/2020 GMT
    47                           ; 
    48                           ; Copyright © 2020, Microchip Technology Inc. and its subsidiaries ("Microchip")
    49                           ; All rights reserved.
    50                           ; 
    51                           ; This software is developed by Microchip Technology Inc. and its subsidiaries ("Microch
      +                          ip").
    52                           ; 
    53                           ; Redistribution and use in source and binary forms, with or without modification, are
    54                           ; permitted provided that the following conditions are met:
    55                           ; 
    56                           ;     1. Redistributions of source code must retain the above copyright notice, this lis
      +                          t of
    57                           ;        conditions and the following disclaimer.
    58                           ; 
    59                           ;     2. Redistributions in binary form must reproduce the above copyright notice, this 
      +                          list
    60                           ;        of conditions and the following disclaimer in the documentation and/or other
    61                           ;        materials provided with the distribution.
    62                           ; 
    63                           ;     3. Microchip's name may not be used to endorse or promote products derived from th
      +                          is
    64                           ;        software without specific prior written permission.
    65                           ; 
    66                           ; THIS SOFTWARE IS PROVIDED BY MICROCHIP "AS IS" AND ANY EXPRESS OR IMPLIED WARRANTIES,
    67                           ; INCLUDING, BUT NOT LIMITED TO, THE IMPLIED WARRANTIES OF MERCHANTABILITY AND FITNESS F
      +                          OR
    68                           ; PURPOSE ARE DISCLAIMED.  IN NO EVENT SHALL MICROCHIP BE LIABLE FOR ANY DIRECT, INDIREC
      +                          T,
    69                           ; INCIDENTAL, SPECIAL, EXEMPLARY, OR CONSEQUENTIAL DAMAGES (INCLUDING BUT NOT LIMITED TO
    70                           ; PROCUREMENT OF SUBSTITUTE GOODS OR SERVICES; LOSS OF USE, DATA OR PROFITS; OR BUSINESS
    71                           ; INTERRUPTION) HOWSOEVER CAUSED AND ON ANY THEORY OF LIABILITY, WHETHER IN CONTRACT, ST
      +                          RICT
    72                           ; LIABILITY, OR TORT (INCLUDING NEGLIGENCE OR OTHERWISE) ARISING IN ANY WAY OUT OF THE U
      +                          SE OF
    73                           ; THIS SOFTWARE, EVEN IF ADVISED OF THE POSSIBILITY OF SUCH DAMAGE.
    74                           ; 
    75                           ; 
    76                           ; Code-generator required, PIC16F887 Definitions
    77                           ; 
    78                           ; SFR Addresses
    79  0000                     	;# 
    80  0001                     	;# 
    81  0002                     	;# 
    82  0003                     	;# 
    83  0004                     	;# 
    84  0005                     	;# 
    85  0006                     	;# 
    86  0007                     	;# 
    87  0008                     	;# 
    88  0009                     	;# 
    89  000A                     	;# 
    90  000B                     	;# 
    91  000C                     	;# 
    92  000D                     	;# 
    93  000E                     	;# 
    94  000E                     	;# 
    95  000F                     	;# 
    96  0010                     	;# 
    97  0011                     	;# 
    98  0012                     	;# 
    99  0013                     	;# 
   100  0014                     	;# 
   101  0015                     	;# 
   102  0015                     	;# 
   103  0016                     	;# 
   104  0017                     	;# 
   105  0018                     	;# 
   106  0019                     	;# 
   107  001A                     	;# 
   108  001B                     	;# 
   109  001B                     	;# 
   110  001C                     	;# 
   111  001D                     	;# 
   112  001E                     	;# 
   113  001F                     	;# 
   114  0081                     	;# 
   115  0085                     	;# 
   116  0086                     	;# 
   117  0087                     	;# 
   118  0088                     	;# 
   119  0089                     	;# 
   120  008C                     	;# 
   121  008D                     	;# 
   122  008E                     	;# 
   123  008F                     	;# 
   124  0090                     	;# 
   125  0091                     	;# 
   126  0092                     	;# 
   127  0093                     	;# 
   128  0093                     	;# 
   129  0093                     	;# 
   130  0094                     	;# 
   131  0095                     	;# 
   132  0096                     	;# 
   133  0097                     	;# 
   134  0098                     	;# 
   135  0099                     	;# 
   136  009A                     	;# 
   137  009B                     	;# 
   138  009C                     	;# 
   139  009D                     	;# 
   140  009E                     	;# 
   141  009F                     	;# 
   142  0105                     	;# 
   143  0107                     	;# 
   144  0108                     	;# 
   145  0109                     	;# 
   146  010C                     	;# 
   147  010C                     	;# 
   148  010D                     	;# 
   149  010E                     	;# 
   150  010F                     	;# 
   151  0185                     	;# 
   152  0187                     	;# 
   153  0188                     	;# 
   154  0189                     	;# 
   155  018C                     	;# 
   156  018D                     	;# 
   157  0000                     	;# 
   158  0001                     	;# 
   159  0002                     	;# 
   160  0003                     	;# 
   161  0004                     	;# 
   162  0005                     	;# 
   163  0006                     	;# 
   164  0007                     	;# 
   165  0008                     	;# 
   166  0009                     	;# 
   167  000A                     	;# 
   168  000B                     	;# 
   169  000C                     	;# 
   170  000D                     	;# 
   171  000E                     	;# 
   172  000E                     	;# 
   173  000F                     	;# 
   174  0010                     	;# 
   175  0011                     	;# 
   176  0012                     	;# 
   177  0013                     	;# 
   178  0014                     	;# 
   179  0015                     	;# 
   180  0015                     	;# 
   181  0016                     	;# 
   182  0017                     	;# 
   183  0018                     	;# 
   184  0019                     	;# 
   185  001A                     	;# 
   186  001B                     	;# 
   187  001B                     	;# 
   188  001C                     	;# 
   189  001D                     	;# 
   190  001E                     	;# 
   191  001F                     	;# 
   192  0081                     	;# 
   193  0085                     	;# 
   194  0086                     	;# 
   195  0087                     	;# 
   196  0088                     	;# 
   197  0089                     	;# 
   198  008C                     	;# 
   199  008D                     	;# 
   200  008E                     	;# 
   201  008F                     	;# 
   202  0090                     	;# 
   203  0091                     	;# 
   204  0092                     	;# 
   205  0093                     	;# 
   206  0093                     	;# 
   207  0093                     	;# 
   208  0094                     	;# 
   209  0095                     	;# 
   210  0096                     	;# 
   211  0097                     	;# 
   212  0098                     	;# 
   213  0099                     	;# 
   214  009A                     	;# 
   215  009B                     	;# 
   216  009C                     	;# 
   217  009D                     	;# 
   218  009E                     	;# 
   219  009F                     	;# 
   220  0105                     	;# 
   221  0107                     	;# 
   222  0108                     	;# 
   223  0109                     	;# 
   224  010C                     	;# 
   225  010C                     	;# 
   226  010D                     	;# 
   227  010E                     	;# 
   228  010F                     	;# 
   229  0185                     	;# 
   230  0187                     	;# 
   231  0188                     	;# 
   232  0189                     	;# 
   233  018C                     	;# 
   234  018D                     	;# 
   235                           
   236                           	psect	strings
   237  0000'                    __pstrings:
   238  0000'                    stringtab:
   239  0000'                    __stringtab:
   240  0000'                    stringcode:	
   241                           ;	String table - string pointers are 1 byte each
   242                           
   243  0000'                    stringdir:
   244  0000' 3000'              	movlw	high stringdir
   245  0001' 008A               	movwf	10
   246  0002' 0804               	movf	4,w
   247  0003' 0A84               	incf	4,f
   248  0004' 0782               	addwf	2,f
   249  0005'                    __stringbase:
   250  0005' 3400               	retlw	0
   251  0006'                    __end_of__stringtab:
   252  0006'                    __powers_:
   253  0006' 3400               	retlw	0
   254  0007' 3400               	retlw	0
   255  0008' 3480               	retlw	128
   256  0009' 343F               	retlw	63
   257  000A' 3400               	retlw	0
   258  000B' 3400               	retlw	0
   259  000C' 3420               	retlw	32
   260  000D' 3441               	retlw	65
   261  000E' 3400               	retlw	0
   262  000F' 3400               	retlw	0
   263  0010' 34C8               	retlw	200
   264  0011' 3442               	retlw	66
   265  0012' 3400               	retlw	0
   266  0013' 3400               	retlw	0
   267  0014' 347A               	retlw	122
   268  0015' 3444               	retlw	68
   269  0016' 3400               	retlw	0
   270  0017' 3440               	retlw	64
   271  0018' 341C               	retlw	28
   272  0019' 3446               	retlw	70
   273  001A' 3400               	retlw	0
   274  001B' 3450               	retlw	80
   275  001C' 34C3               	retlw	195
   276  001D' 3447               	retlw	71
   277  001E' 3400               	retlw	0
   278  001F' 3424               	retlw	36
   279  0020' 3474               	retlw	116
   280  0021' 3449               	retlw	73
   281  0022' 3480               	retlw	128
   282  0023' 3496               	retlw	150
   283  0024' 3418               	retlw	24
   284  0025' 344B               	retlw	75
   285  0026' 3420               	retlw	32
   286  0027' 34BC               	retlw	188
   287  0028' 34BE               	retlw	190
   288  0029' 344C               	retlw	76
   289  002A' 3428               	retlw	40
   290  002B' 346B               	retlw	107
   291  002C' 346E               	retlw	110
   292  002D' 344E               	retlw	78
   293  002E' 34F9               	retlw	249
   294  002F' 3402               	retlw	2
   295  0030' 3415               	retlw	21
   296  0031' 3450               	retlw	80
   297  0032' 34EC               	retlw	236
   298  0033' 3478               	retlw	120
   299  0034' 34AD               	retlw	173
   300  0035' 3460               	retlw	96
   301  0036' 34CA               	retlw	202
   302  0037' 34F2               	retlw	242
   303  0038' 3449               	retlw	73
   304  0039' 3471               	retlw	113
   305  003A'                    __end_of__powers_:
   306  003A'                    __npowers_:
   307  003A' 3400               	retlw	0
   308  003B' 3400               	retlw	0
   309  003C' 3480               	retlw	128
   310  003D' 343F               	retlw	63
   311  003E' 34CD               	retlw	205
   312  003F' 34CC               	retlw	204
   313  0040' 34CC               	retlw	204
   314  0041' 343D               	retlw	61
   315  0042' 340A               	retlw	10
   316  0043' 34D7               	retlw	215
   317  0044' 3423               	retlw	35
   318  0045' 343C               	retlw	60
   319  0046' 346F               	retlw	111
   320  0047' 3412               	retlw	18
   321  0048' 3483               	retlw	131
   322  0049' 343A               	retlw	58
   323  004A' 3417               	retlw	23
   324  004B' 34B7               	retlw	183
   325  004C' 34D1               	retlw	209
   326  004D' 3438               	retlw	56
   327  004E' 34AC               	retlw	172
   328  004F' 34C5               	retlw	197
   329  0050' 3427               	retlw	39
   330  0051' 3437               	retlw	55
   331  0052' 34BD               	retlw	189
   332  0053' 3437               	retlw	55
   333  0054' 3486               	retlw	134
   334  0055' 3435               	retlw	53
   335  0056' 3495               	retlw	149
   336  0057' 34BF               	retlw	191
   337  0058' 34D6               	retlw	214
   338  0059' 3433               	retlw	51
   339  005A' 3477               	retlw	119
   340  005B' 34CC               	retlw	204
   341  005C' 342B               	retlw	43
   342  005D' 3432               	retlw	50
   343  005E' 345F               	retlw	95
   344  005F' 3470               	retlw	112
   345  0060' 3489               	retlw	137
   346  0061' 3430               	retlw	48
   347  0062' 34FF               	retlw	255
   348  0063' 34E6               	retlw	230
   349  0064' 34DB               	retlw	219
   350  0065' 342E               	retlw	46
   351  0066' 3408               	retlw	8
   352  0067' 34E5               	retlw	229
   353  0068' 343C               	retlw	60
   354  0069' 341E               	retlw	30
   355  006A' 3460               	retlw	96
   356  006B' 3442               	retlw	66
   357  006C' 34A2               	retlw	162
   358  006D' 340D               	retlw	13
   359  006E'                    __end_of__npowers_:
   360  006E'                    _dpowers:
   361  006E' 3401               	retlw	1
   362  006F' 3400               	retlw	0
   363  0070' 3400               	retlw	0
   364  0071' 3400               	retlw	0
   365  0072' 340A               	retlw	10
   366  0073' 3400               	retlw	0
   367  0074' 3400               	retlw	0
   368  0075' 3400               	retlw	0
   369  0076' 3464               	retlw	100
   370  0077' 3400               	retlw	0
   371  0078' 3400               	retlw	0
   372  0079' 3400               	retlw	0
   373  007A' 34E8               	retlw	232
   374  007B' 3403               	retlw	3
   375  007C' 3400               	retlw	0
   376  007D' 3400               	retlw	0
   377  007E' 3410               	retlw	16
   378  007F' 3427               	retlw	39
   379  0080' 3400               	retlw	0
   380  0081' 3400               	retlw	0
   381  0082' 34A0               	retlw	160
   382  0083' 3486               	retlw	134
   383  0084' 3401               	retlw	1
   384  0085' 3400               	retlw	0
   385  0086' 3440               	retlw	64
   386  0087' 3442               	retlw	66
   387  0088' 340F               	retlw	15
   388  0089' 3400               	retlw	0
   389  008A' 3480               	retlw	128
   390  008B' 3496               	retlw	150
   391  008C' 3498               	retlw	152
   392  008D' 3400               	retlw	0
   393  008E' 3400               	retlw	0
   394  008F' 34E1               	retlw	225
   395  0090' 34F5               	retlw	245
   396  0091' 3405               	retlw	5
   397  0092' 3400               	retlw	0
   398  0093' 34CA               	retlw	202
   399  0094' 349A               	retlw	154
   400  0095' 343B               	retlw	59
   401  0096'                    __end_of_dpowers:
   402  001E                     _ADRESH	set	30
   403  001F                     _ADCON0bits	set	31
   404  0009                     _PORTE	set	9
   405  0008                     _PORTD	set	8
   406  0007                     _PORTC	set	7
   407  0005                     _PORTA	set	5
   408  0006                     _PORTB	set	6
   409  001A                     _RCREG	set	26
   410  0065                     _RCIF	set	101
   411  0089                     _TRISE	set	137
   412  0087                     _TRISCbits	set	135
   413  0086                     _TRISB	set	134
   414  0085                     _TRISA	set	133
   415  0088                     _TRISD	set	136
   416  0189                     _ANSELH	set	393
   417  0188                     _ANSEL	set	392
   418  0096'                    STR_5:
   419  0096' 3425               	retlw	37	;'%'
   420  0097' 3432               	retlw	50	;'2'
   421  0098' 342E               	retlw	46	;'.'
   422  0099' 3431               	retlw	49	;'1'
   423  009A' 3466               	retlw	102	;'f'
   424  009B' 3456               	retlw	86	;'V'
   425  009C' 3420               	retlw	32	;' '
   426  009D' 3420               	retlw	32	;' '
   427  009E' 3425               	retlw	37	;'%'
   428  009F' 3432               	retlw	50	;'2'
   429  00A0' 342E               	retlw	46	;'.'
   430  00A1' 3431               	retlw	49	;'1'
   431  00A2' 3466               	retlw	102	;'f'
   432  00A3' 3456               	retlw	86	;'V'
   433  00A4' 3420               	retlw	32	;' '
   434  00A5' 3420               	retlw	32	;' '
   435  00A6' 3420               	retlw	32	;' '
   436  00A7' 3420               	retlw	32	;' '
   437  00A8' 3425               	retlw	37	;'%'
   438  00A9' 3464               	retlw	100	;'d'
   439  00AA' 3400               	retlw	0
   440  00AB'                    STR_6:
   441  00AB' 3453               	retlw	83	;'S'
   442  00AC' 3431               	retlw	49	;'1'
   443  00AD' 343A               	retlw	58	;':'
   444  00AE' 3420               	retlw	32	;' '
   445  00AF' 3420               	retlw	32	;' '
   446  00B0' 3420               	retlw	32	;' '
   447  00B1' 3453               	retlw	83	;'S'
   448  00B2' 3432               	retlw	50	;'2'
   449  00B3' 343A               	retlw	58	;':'
   450  00B4' 3420               	retlw	32	;' '
   451  00B5' 3420               	retlw	32	;' '
   452  00B6' 3420               	retlw	32	;' '
   453  00B7' 3453               	retlw	83	;'S'
   454  00B8' 3433               	retlw	51	;'3'
   455  00B9' 343A               	retlw	58	;':'
   456  00BA' 3400               	retlw	0
   457  00BB'                    STR_4:
   458  00BB' 3453               	retlw	83	;'S'
   459  00BC' 3431               	retlw	49	;'1'
   460  00BD' 3420               	retlw	32	;' '
   461  00BE' 3420               	retlw	32	;' '
   462  00BF' 3420               	retlw	32	;' '
   463  00C0' 3453               	retlw	83	;'S'
   464  00C1' 3432               	retlw	50	;'2'
   465  00C2' 3420               	retlw	32	;' '
   466  00C3' 3420               	retlw	32	;' '
   467  00C4' 3420               	retlw	32	;' '
   468  00C5' 3453               	retlw	83	;'S'
   469  00C6' 3433               	retlw	51	;'3'
   470  00C7' 3420               	retlw	32	;' '
   471  00C8' 340A               	retlw	10
   472  00C9' 3400               	retlw	0
   473  00CA'                    STR_1:
   474  00CA' 3453               	retlw	83	;'S'
   475  00CB' 3431               	retlw	49	;'1'
   476  00CC' 343A               	retlw	58	;':'
   477  00CD' 3400               	retlw	0
   478  00CE'                    STR_2:
   479  00CE' 3453               	retlw	83	;'S'
   480  00CF' 3432               	retlw	50	;'2'
   481  00D0' 343A               	retlw	58	;':'
   482  00D1' 3400               	retlw	0
   483  00B7'                    
   484                           	psect	cinit
   485  0000'                    start_initialization:	
   486                           ; #config settings
   487                           
   488  0000'                    __initialization:
   489                           
   490                           ; Clear objects allocated to COMMON
   491  0000' 0180'              	clrf	__pbssCOMMON& (0+127)
   492                           
   493                           ; Clear objects allocated to BANK1
   494  0001' 1383               	bcf	3,7	;select IRP bank0
   495  0002' 3000'              	movlw	low __pbssBANK1
   496  0003' 0084               	movwf	4
   497  0004' 3000'              	movlw	low (__pbssBANK1+29)
   498  0005' 120A' 118A' 2000' 120A' 118A' 	fcall	clear_ram0
   499  000A'                    end_of_initialization:	
   500                           ;End of C runtime variable initialization code
   501                           
   502  000A'                    __end_of__initialization:
   503  000A' 0183               	clrf	3
   504  000B' 120A' 118A' 2800'  	ljmp	_main	;jump to C main() function
   505                           
   506                           	psect	bssCOMMON
   507  0000'                    __pbssCOMMON:
   508  0000'                    _data_recive:
   509  0000'                    	ds	1
   510                           
   511                           	psect	bssBANK1
   512  0000'                    __pbssBANK1:
   513  0000'                    _S2_val:
   514  0000'                    	ds	4
   515  0004'                    _S1_val:
   516  0004'                    	ds	4
   517  0008'                    _cont:
   518  0008'                    	ds	1
   519  0009'                    _data_total:
   520  0009'                    	ds	20
   521                           
   522                           	psect	clrtext
   523  0000'                    clear_ram0:	
   524                           ;	Called with FSR containing the base address, and
   525                           ;	W with the last address+1
   526                           
   527  0000' 0064               	clrwdt	;clear the watchdog before getting into this loop
   528  0001'                    clrloop0:
   529  0001' 0180               	clrf	0	;clear RAM location pointed to by FSR
   530  0002' 0A84               	incf	4,f	;increment pointer
   531  0003' 0604               	xorwf	4,w	;XOR with final address
   532  0004' 1903               	btfsc	3,2	;have we reached the end yet?
   533  0005' 3400               	retlw	0	;all done for this memory range, return
   534  0006' 0604               	xorwf	4,w	;XOR again to restore value
   535  0007' 2800'              	goto	clrloop0	;do the next byte
   536                           
   537                           	psect	cstackBANK1
   538  0000'                    __pcstackBANK1:
   539  0000'                    ?___flsub:
   540  0000'                    ___flsub@a:	
   541                           ; 4 bytes @ 0x0
   542                           
   543                           
   544                           ; 4 bytes @ 0x0
   545  0000'                    	ds	4
   546  0004'                    ___flsub@b:
   547                           
   548                           ; 4 bytes @ 0x4
   549  0004'                    	ds	4
   550  0008'                    ?_sprintf:
   551  0008'                    sprintf@f:	
   552                           ; 2 bytes @ 0x8
   553                           
   554                           
   555                           ; 1 bytes @ 0x8
   556  0008'                    	ds	11
   557  0013'                    ??_sprintf:
   558                           
   559                           ; 1 bytes @ 0x13
   560  0013'                    	ds	5
   561  0018'                    _sprintf$899:
   562                           
   563                           ; 4 bytes @ 0x18
   564  0018'                    	ds	4
   565  001C'                    sprintf@ap:
   566                           
   567                           ; 1 bytes @ 0x1C
   568  001C'                    	ds	1
   569  001D'                    sprintf@flag:
   570                           
   571                           ; 2 bytes @ 0x1D
   572  001D'                    	ds	2
   573  001F'                    sprintf@width:
   574                           
   575                           ; 2 bytes @ 0x1F
   576  001F'                    	ds	2
   577  0021'                    sprintf@tmpval:
   578                           
   579                           ; 4 bytes @ 0x21
   580  0021'                    	ds	4
   581  0025'                    sprintf@val:
   582                           
   583                           ; 4 bytes @ 0x25
   584  0025'                    	ds	4
   585  0029'                    sprintf@eexp:
   586                           
   587                           ; 2 bytes @ 0x29
   588  0029'                    	ds	2
   589  002B'                    sprintf@fval:
   590                           
   591                           ; 4 bytes @ 0x2B
   592  002B'                    	ds	4
   593  002F'                    sprintf@sp:
   594                           
   595                           ; 1 bytes @ 0x2F
   596  002F'                    	ds	1
   597  0030'                    sprintf@prec:
   598                           
   599                           ; 2 bytes @ 0x30
   600  0030'                    	ds	2
   601  0032'                    sprintf@c:
   602                           
   603                           ; 1 bytes @ 0x32
   604  0032'                    	ds	1
   605                           
   606                           	psect	cstackCOMMON
   607  0000'                    __pcstackCOMMON:
   608  0000'                    ?_isdigit:
   609  0000'                    ?_setup:	
   610                           ; 1 bit 
   611                           
   612  0000'                    ?_Lcd_Init:	
   613                           ; 1 bytes @ 0x0
   614                           
   615  0000'                    ??_Lcd_Init:	
   616                           ; 1 bytes @ 0x0
   617                           
   618  0000'                    ?_Lcd_Clear:	
   619                           ; 1 bytes @ 0x0
   620                           
   621  0000'                    ??_Lcd_Clear:	
   622                           ; 1 bytes @ 0x0
   623                           
   624  0000'                    ?_Lcd_Set_Cursor:	
   625                           ; 1 bytes @ 0x0
   626                           
   627  0000'                    ??_Lcd_Set_Cursor:	
   628                           ; 1 bytes @ 0x0
   629                           
   630  0000'                    ?_Lcd_Write_String:	
   631                           ; 1 bytes @ 0x0
   632                           
   633  0000'                    ??_Lcd_Write_String:	
   634                           ; 1 bytes @ 0x0
   635                           
   636  0000'                    ?_ADC_channel1:	
   637                           ; 1 bytes @ 0x0
   638                           
   639  0000'                    ?_ADC_channel2:	
   640                           ; 1 bytes @ 0x0
   641                           
   642  0000'                    ?_Write_USART_String:	
   643                           ; 1 bytes @ 0x0
   644                           
   645  0000'                    ??_Write_USART_String:	
   646                           ; 1 bytes @ 0x0
   647                           
   648  0000'                    ?_Write_USART:	
   649                           ; 1 bytes @ 0x0
   650                           
   651  0000'                    ??_Write_USART:	
   652                           ; 1 bytes @ 0x0
   653                           
   654  0000'                    ??_initOsc:	
   655                           ; 1 bytes @ 0x0
   656                           
   657  0000'                    ?_USART_Init_BaudRate:	
   658                           ; 1 bytes @ 0x0
   659                           
   660  0000'                    ??_USART_Init_BaudRate:	
   661                           ; 1 bytes @ 0x0
   662                           
   663  0000'                    ?_USART_Init:	
   664                           ; 1 bytes @ 0x0
   665                           
   666  0000'                    ??_USART_Init:	
   667                           ; 1 bytes @ 0x0
   668                           
   669  0000'                    ?_USART_INTERRUPT:	
   670                           ; 1 bytes @ 0x0
   671                           
   672  0000'                    ??_USART_INTERRUPT:	
   673                           ; 1 bytes @ 0x0
   674                           
   675  0000'                    ?_ADC_Config:	
   676                           ; 1 bytes @ 0x0
   677                           
   678  0000'                    ??_ADC_Config:	
   679                           ; 1 bytes @ 0x0
   680                           
   681  0000'                    ?_ISR:	
   682                           ; 1 bytes @ 0x0
   683                           
   684  0000'                    ??_ISR:	
   685                           ; 1 bytes @ 0x0
   686                           
   687  0000'                    ?_main:	
   688                           ; 1 bytes @ 0x0
   689                           
   690  0000'                    ?_initOsc:	
   691                           ; 1 bytes @ 0x0
   692                           
   693  0000'                    _Lcd_Set_Cursor$1:	
   694                           ; 2 bytes @ 0x0
   695                           
   696  0000'                    _Lcd_Write_String$0:	
   697                           ; 1 bytes @ 0x0
   698                           
   699  0000'                    _Write_USART_String$0:	
   700                           ; 2 bytes @ 0x0
   701                           
   702                           
   703                           ; 2 bytes @ 0x0
   704  0000'                    	ds	3
   705  0003'                    ??_setup:
   706  0003'                    ??_isdigit:	
   707                           ; 1 bytes @ 0x3
   708                           
   709  0003'                    ??__tdiv_to_l_:	
   710                           ; 1 bytes @ 0x3
   711                           
   712  0003'                    ??__div_to_l_:	
   713                           ; 1 bytes @ 0x3
   714                           
   715  0003'                    ??___lldiv:	
   716                           ; 1 bytes @ 0x3
   717                           
   718  0003'                    ??___fleq:	
   719                           ; 1 bytes @ 0x3
   720                           
   721  0003'                    ??___flge:	
   722                           ; 1 bytes @ 0x3
   723                           
   724  0003'                    ?__Umul8_16:	
   725                           ; 1 bytes @ 0x3
   726                           
   727  0003'                    ?___wmul:	
   728                           ; 2 bytes @ 0x3
   729                           
   730  0003'                    ?___awmod:	
   731                           ; 2 bytes @ 0x3
   732                           
   733  0003'                    ?___lwmod:	
   734                           ; 2 bytes @ 0x3
   735                           
   736  0003'                    ?___flneg:	
   737                           ; 2 bytes @ 0x3
   738                           
   739  0003'                    ?___xxtofl:	
   740                           ; 4 bytes @ 0x3
   741                           
   742  0003'                    __Umul8_16@multiplicand:	
   743                           ; 4 bytes @ 0x3
   744                           
   745  0003'                    _isdigit$727:	
   746                           ; 1 bytes @ 0x3
   747                           
   748  0003'                    ___wmul@multiplier:	
   749                           ; 1 bytes @ 0x3
   750                           
   751  0003'                    ___awmod@divisor:	
   752                           ; 2 bytes @ 0x3
   753                           
   754  0003'                    ___lwmod@divisor:	
   755                           ; 2 bytes @ 0x3
   756                           
   757  0003'                    ___flneg@f1:	
   758                           ; 2 bytes @ 0x3
   759                           
   760  0003'                    ___xxtofl@val:	
   761                           ; 4 bytes @ 0x3
   762                           
   763                           
   764                           ; 4 bytes @ 0x3
   765  0003'                    	ds	1
   766  0004'                    isdigit@c:
   767  0004'                    ___lldiv@quotient:	
   768                           ; 1 bytes @ 0x4
   769                           
   770  0004'                    __div_to_l_@quot:	
   771                           ; 4 bytes @ 0x4
   772                           
   773                           
   774                           ; 4 bytes @ 0x4
   775  0004'                    	ds	1
   776  0005'                    ??__Umul8_16:
   777  0005'                    ___wmul@multiplicand:	
   778                           ; 1 bytes @ 0x5
   779                           
   780  0005'                    ___awmod@dividend:	
   781                           ; 2 bytes @ 0x5
   782                           
   783  0005'                    ___lwmod@dividend:	
   784                           ; 2 bytes @ 0x5
   785                           
   786                           
   787                           ; 2 bytes @ 0x5
   788  0005'                    	ds	2
   789  0007'                    ??___wmul:
   790  0007'                    ??___awmod:	
   791                           ; 1 bytes @ 0x7
   792                           
   793  0007'                    ??___flneg:	
   794                           ; 1 bytes @ 0x7
   795                           
   796  0007'                    ??___lwmod:	
   797                           ; 1 bytes @ 0x7
   798                           
   799  0007'                    ___wmul@product:	
   800                           ; 1 bytes @ 0x7
   801                           
   802                           
   803                           ; 2 bytes @ 0x7
   804  0007'                    	ds	1
   805  0008'                    ___lldiv@counter:
   806  0008'                    ___awmod@counter:	
   807                           ; 1 bytes @ 0x8
   808                           
   809  0008'                    __div_to_l_@cntr:	
   810                           ; 1 bytes @ 0x8
   811                           
   812  0008'                    ___lwmod@counter:	
   813                           ; 1 bytes @ 0x8
   814                           
   815                           
   816                           ; 1 bytes @ 0x8
   817  0008'                    	ds	1
   818  0009'                    ??___llmod:
   819  0009'                    ??___lwdiv:	
   820                           ; 1 bytes @ 0x9
   821                           
   822  0009'                    ___awmod@sign:	
   823                           ; 1 bytes @ 0x9
   824                           
   825  0009'                    __div_to_l_@exp1:	
   826                           ; 1 bytes @ 0x9
   827                           
   828                           
   829                           ; 1 bytes @ 0x9
   830  0009'                    	ds	1
   831  000A'                    ??___flsub:
   832                           
   833                           	psect	cstackBANK0
   834  0000'                    __pcstackBANK0:	
   835                           ; 1 bytes @ 0xA
   836                           
   837  0000'                    ?___fleq:
   838  0000'                    ?___flge:	
   839                           ; 1 bit 
   840                           
   841  0000'                    ??___xxtofl:	
   842                           ; 1 bit 
   843                           
   844  0000'                    ?___awdiv:	
   845                           ; 1 bytes @ 0x0
   846                           
   847  0000'                    ?___lwdiv:	
   848                           ; 2 bytes @ 0x0
   849                           
   850  0000'                    ?__tdiv_to_l_:	
   851                           ; 2 bytes @ 0x0
   852                           
   853  0000'                    ?__div_to_l_:	
   854                           ; 4 bytes @ 0x0
   855                           
   856  0000'                    ?___lldiv:	
   857                           ; 4 bytes @ 0x0
   858                           
   859  0000'                    ___awdiv@divisor:	
   860                           ; 4 bytes @ 0x0
   861                           
   862  0000'                    ___lwdiv@divisor:	
   863                           ; 2 bytes @ 0x0
   864                           
   865  0000'                    __Umul8_16@product:	
   866                           ; 2 bytes @ 0x0
   867                           
   868  0000'                    ___lldiv@divisor:	
   869                           ; 2 bytes @ 0x0
   870                           
   871  0000'                    __div_to_l_@f1:	
   872                           ; 4 bytes @ 0x0
   873                           
   874  0000'                    ___fleq@ff1:	
   875                           ; 4 bytes @ 0x0
   876                           
   877  0000'                    ___flge@ff1:	
   878                           ; 4 bytes @ 0x0
   879                           
   880  0000'                    __tdiv_to_l_@f1:	
   881                           ; 4 bytes @ 0x0
   882                           
   883                           
   884                           ; 4 bytes @ 0x0
   885  0000'                    	ds	2
   886  0002'                    ___awdiv@dividend:
   887  0002'                    ___lwdiv@dividend:	
   888                           ; 2 bytes @ 0x2
   889                           
   890  0002'                    __Umul8_16@word_mpld:	
   891                           ; 2 bytes @ 0x2
   892                           
   893                           
   894                           ; 2 bytes @ 0x2
   895  0002'                    	ds	2
   896  0004'                    ??___awdiv:
   897  0004'                    __Umul8_16@multiplier:	
   898                           ; 1 bytes @ 0x4
   899                           
   900  0004'                    ___xxtofl@sign:	
   901                           ; 1 bytes @ 0x4
   902                           
   903  0004'                    ___lwdiv@quotient:	
   904                           ; 1 bytes @ 0x4
   905                           
   906  0004'                    ___lldiv@dividend:	
   907                           ; 2 bytes @ 0x4
   908                           
   909  0004'                    __div_to_l_@f2:	
   910                           ; 4 bytes @ 0x4
   911                           
   912  0004'                    ___fleq@ff2:	
   913                           ; 4 bytes @ 0x4
   914                           
   915  0004'                    ___flge@ff2:	
   916                           ; 4 bytes @ 0x4
   917                           
   918  0004'                    __tdiv_to_l_@f2:	
   919                           ; 4 bytes @ 0x4
   920                           
   921                           
   922                           ; 4 bytes @ 0x4
   923  0004'                    	ds	1
   924  0005'                    ___awdiv@counter:
   925  0005'                    ___xxtofl@exp:	
   926                           ; 1 bytes @ 0x5
   927                           
   928                           
   929                           ; 1 bytes @ 0x5
   930  0005'                    	ds	1
   931  0006'                    ___awdiv@sign:
   932  0006'                    ___lwdiv@counter:	
   933                           ; 1 bytes @ 0x6
   934                           
   935  0006'                    ___xxtofl@arg:	
   936                           ; 1 bytes @ 0x6
   937                           
   938                           
   939                           ; 4 bytes @ 0x6
   940  0006'                    	ds	1
   941  0007'                    ___awdiv@quotient:
   942                           
   943                           ; 2 bytes @ 0x7
   944  0007'                    	ds	1
   945  0008'                    ?___llmod:
   946  0008'                    __tdiv_to_l_@quot:	
   947                           ; 4 bytes @ 0x8
   948                           
   949  0008'                    ___llmod@divisor:	
   950                           ; 4 bytes @ 0x8
   951                           
   952                           
   953                           ; 4 bytes @ 0x8
   954  0008'                    	ds	2
   955  000A'                    ?___flmul:
   956  000A'                    ___flmul@b:	
   957                           ; 4 bytes @ 0xA
   958                           
   959                           
   960                           ; 4 bytes @ 0xA
   961  000A'                    	ds	2
   962  000C'                    __tdiv_to_l_@cntr:
   963  000C'                    ___llmod@dividend:	
   964                           ; 1 bytes @ 0xC
   965                           
   966                           
   967                           ; 4 bytes @ 0xC
   968  000C'                    	ds	1
   969  000D'                    __tdiv_to_l_@exp1:
   970                           
   971                           ; 1 bytes @ 0xD
   972  000D'                    	ds	1
   973  000E'                    ___flmul@a:
   974                           
   975                           ; 4 bytes @ 0xE
   976  000E'                    	ds	2
   977  0010'                    ___llmod@counter:
   978                           
   979                           ; 1 bytes @ 0x10
   980  0010'                    	ds	2
   981  0012'                    ??___flmul:
   982                           
   983                           ; 1 bytes @ 0x12
   984  0012'                    	ds	5
   985  0017'                    ___flmul@sign:
   986                           
   987                           ; 1 bytes @ 0x17
   988  0017'                    	ds	1
   989  0018'                    ___flmul@grs:
   990                           
   991                           ; 4 bytes @ 0x18
   992  0018'                    	ds	4
   993  001C'                    ___flmul@aexp:
   994                           
   995                           ; 1 bytes @ 0x1C
   996  001C'                    	ds	1
   997  001D'                    ___flmul@bexp:
   998                           
   999                           ; 1 bytes @ 0x1D
  1000  001D'                    	ds	1
  1001  001E'                    ___flmul@prod:
  1002                           
  1003                           ; 4 bytes @ 0x1E
  1004  001E'                    	ds	4
  1005  0022'                    ___flmul@temp:
  1006                           
  1007                           ; 2 bytes @ 0x22
  1008  0022'                    	ds	2
  1009  0024'                    ?_fround:
  1010  0024'                    ?_scale:	
  1011                           ; 4 bytes @ 0x24
  1012                           
  1013  0024'                    ?___fldiv:	
  1014                           ; 4 bytes @ 0x24
  1015                           
  1016  0024'                    ___fldiv@a:	
  1017                           ; 4 bytes @ 0x24
  1018                           
  1019                           
  1020                           ; 4 bytes @ 0x24
  1021  0024'                    	ds	4
  1022  0028'                    ??_fround:
  1023  0028'                    ??_scale:	
  1024                           ; 1 bytes @ 0x28
  1025                           
  1026  0028'                    ___fldiv@b:	
  1027                           ; 1 bytes @ 0x28
  1028                           
  1029                           
  1030                           ; 4 bytes @ 0x28
  1031  0028'                    	ds	4
  1032  002C'                    ??___fldiv:
  1033                           
  1034                           ; 1 bytes @ 0x2C
  1035  002C'                    	ds	3
  1036  002F'                    _fround$897:
  1037                           
  1038                           ; 4 bytes @ 0x2F
  1039  002F'                    	ds	2
  1040  0031'                    ___fldiv@rem:
  1041                           
  1042                           ; 4 bytes @ 0x31
  1043  0031'                    	ds	1
  1044  0032'                    _scale$898:
  1045                           
  1046                           ; 4 bytes @ 0x32
  1047  0032'                    	ds	1
  1048  0033'                    _fround$896:
  1049                           
  1050                           ; 4 bytes @ 0x33
  1051  0033'                    	ds	2
  1052  0035'                    ___fldiv@sign:
  1053                           
  1054                           ; 1 bytes @ 0x35
  1055  0035'                    	ds	1
  1056  0036'                    scale@scl:
  1057  0036'                    ___fldiv@new_exp:	
  1058                           ; 1 bytes @ 0x36
  1059                           
  1060                           
  1061                           ; 2 bytes @ 0x36
  1062  0036'                    	ds	1
  1063  0037'                    ?___fltol:
  1064  0037'                    fround@prec:	
  1065                           ; 4 bytes @ 0x37
  1066                           
  1067  0037'                    ___fltol@f1:	
  1068                           ; 1 bytes @ 0x37
  1069                           
  1070                           
  1071                           ; 4 bytes @ 0x37
  1072  0037'                    	ds	1
  1073  0038'                    ?___fladd:
  1074  0038'                    ___fladd@b:	
  1075                           ; 4 bytes @ 0x38
  1076                           
  1077  0038'                    ___fldiv@grs:	
  1078                           ; 4 bytes @ 0x38
  1079                           
  1080                           
  1081                           ; 4 bytes @ 0x38
  1082  0038'                    	ds	3
  1083  003B'                    ??___fltol:
  1084                           
  1085                           ; 1 bytes @ 0x3B
  1086  003B'                    	ds	1
  1087  003C'                    ___fldiv@bexp:
  1088  003C'                    ___fladd@a:	
  1089                           ; 1 bytes @ 0x3C
  1090                           
  1091                           
  1092                           ; 4 bytes @ 0x3C
  1093  003C'                    	ds	1
  1094  003D'                    ___fldiv@aexp:
  1095                           
  1096                           ; 1 bytes @ 0x3D
  1097  003D'                    	ds	1
  1098  003E'                    ??_ADC_channel1:
  1099  003E'                    ??_ADC_channel2:	
  1100                           ; 1 bytes @ 0x3E
  1101                           
  1102                           
  1103                           ; 1 bytes @ 0x3E
  1104  003E'                    	ds	2
  1105  0040'                    ??___fladd:
  1106  0040'                    ___fltol@sign1:	
  1107                           ; 1 bytes @ 0x40
  1108                           
  1109                           
  1110                           ; 1 bytes @ 0x40
  1111  0040'                    	ds	1
  1112  0041'                    ___fltol@exp1:
  1113                           
  1114                           ; 1 bytes @ 0x41
  1115  0041'                    	ds	7
  1116  0048'                    ___fladd@signs:
  1117                           
  1118                           ; 1 bytes @ 0x48
  1119  0048'                    	ds	1
  1120  0049'                    ___fladd@aexp:
  1121                           
  1122                           ; 1 bytes @ 0x49
  1123  0049'                    	ds	1
  1124  004A'                    ___fladd@bexp:
  1125                           
  1126                           ; 1 bytes @ 0x4A
  1127  004A'                    	ds	1
  1128  004B'                    ___fladd@grs:
  1129                           
  1130                           ; 1 bytes @ 0x4B
  1131  004B'                    	ds	1
  1132  004C'                    ??_main:
  1133                           
  1134                           ; 1 bytes @ 0x4C
  1135  004C'                    	ds	3
  1136                           
  1137                           	psect	maintext
  1138  0000'                    __pmaintext:	
  1139 ;;
  1140 ;;Main: autosize = 0, tempsize = 3, incstack = 0, save=0
  1141 ;;
  1142 ;; *************** function _main *****************
  1143 ;; Defined at:
  1144 ;;		line 96 in file "main_final_lab3.c"
  1145 ;; Parameters:    Size  Location     Type
  1146 ;;		None
  1147 ;; Auto vars:     Size  Location     Type
  1148 ;;		None
  1149 ;; Return value:  Size  Location     Type
  1150 ;;                  1    wreg      void 
  1151 ;; Registers used:
  1152 ;;		wreg, fsr0l, fsr0h, fsr1l, fsr1h, fsr1l, fsr1h, status,2, status,0, btemp+1, pclath, cstack
  1153 ;; Tracked objects:
  1154 ;;		On entry : B00/0
  1155 ;;		On exit  : 0/0
  1156 ;;		Unchanged: 0/0
  1157 ;; Data sizes:     COMMON   BANK0   BANK1   BANK3   BANK2
  1158 ;;      Params:         0       0       0       0       0
  1159 ;;      Locals:         0       0       0       0       0
  1160 ;;      Temps:          0       3       0       0       0
  1161 ;;      Totals:         0       3       0       0       0
  1162 ;;Total ram usage:        3 bytes
  1163 ;; Hardware stack levels required when called:    5
  1164 ;; This function calls:
  1165 ;;		_ADC_channel1
  1166 ;;		_ADC_channel2
  1167 ;;		_Lcd_Clear
  1168 ;;		_Lcd_Init
  1169 ;;		_Lcd_Set_Cursor
  1170 ;;		_Lcd_Write_String
  1171 ;;		_Write_USART
  1172 ;;		_Write_USART_String
  1173 ;;		_setup
  1174 ;;		_sprintf
  1175 ;; This function is called by:
  1176 ;;		Startup code after reset
  1177 ;; This function uses a non-reentrant model
  1178 ;;
  1179                           
  1180                           
  1181                           ;psect for function _main
  1182  0000'                    _main:
  1183  0000'                    l4358:	
  1184                           ;incstack = 0
  1185                           ; Regs used in _main: [allreg]
  1186                           
  1187                           
  1188                           ;main_final_lab3.c: 97:     setup();
  1189  0000' 120A' 118A' 2000' 120A' 118A' 	fcall	_setup
  1190  0005'                    l4360:
  1191                           
  1192                           ;main_final_lab3.c: 98:     TRISD = 0x00;
  1193  0005' 1683               	bsf	3,5	;RP0=1, select bank1
  1194  0006' 1303               	bcf	3,6	;RP1=0, select bank1
  1195  0007' 0188               	clrf	8	;volatile
  1196  0008'                    l4362:
  1197                           
  1198                           ;main_final_lab3.c: 99:     Lcd_Init();
  1199  0008' 120A' 118A' 2000' 120A' 118A' 	fcall	_Lcd_Init
  1200  000D'                    l4364:
  1201                           
  1202                           ;main_final_lab3.c: 101:     Lcd_Clear();
  1203  000D' 120A' 118A' 2000' 120A' 118A' 	fcall	_Lcd_Clear
  1204  0012'                    l4366:
  1205                           
  1206                           ;main_final_lab3.c: 102:     Lcd_Set_Cursor(1, 1);
  1207  0012' 0180'              	clrf	_Lcd_Set_Cursor$1
  1208  0013' 0A80'              	incf	_Lcd_Set_Cursor$1,f
  1209  0014' 3001               	movlw	1
  1210  0015' 120A' 118A' 2000' 120A' 118A' 	fcall	_Lcd_Set_Cursor
  1211  001A'                    l4368:
  1212                           
  1213                           ;main_final_lab3.c: 103:     Lcd_Write_String("S1:");
  1214  001A' 30C5               	movlw	(low ((STR_1-__stringbase)| (0+32768)))& (0+255)
  1215  001B' 0080'              	movwf	_Lcd_Write_String$0
  1216  001C' 3080               	movlw	128
  1217  001D' 0081'              	movwf	_Lcd_Write_String$0+1
  1218  001E' 120A' 118A' 2000' 120A' 118A' 	fcall	_Lcd_Write_String
  1219  0023'                    l4370:
  1220                           
  1221                           ;main_final_lab3.c: 104:     Lcd_Set_Cursor(1, 7);
  1222  0023' 3007               	movlw	7
  1223  0024' 1283               	bcf	3,5	;RP0=0, select bank0
  1224  0025' 1303               	bcf	3,6	;RP1=0, select bank0
  1225  0026' 00CC'              	movwf	??_main
  1226  0027' 084C'              	movf	??_main,w
  1227  0028' 0080'              	movwf	_Lcd_Set_Cursor$1
  1228  0029' 3001               	movlw	1
  1229  002A' 120A' 118A' 2000' 120A' 118A' 	fcall	_Lcd_Set_Cursor
  1230  002F'                    l4372:
  1231                           
  1232                           ;main_final_lab3.c: 105:     Lcd_Write_String("S2:");
  1233  002F' 30C9               	movlw	(low ((STR_2-__stringbase)| (0+32768)))& (0+255)
  1234  0030' 0080'              	movwf	_Lcd_Write_String$0
  1235  0031' 3080               	movlw	128
  1236  0032' 0081'              	movwf	_Lcd_Write_String$0+1
  1237  0033' 120A' 118A' 2000' 120A' 118A' 	fcall	_Lcd_Write_String
  1238  0038'                    l4374:
  1239                           
  1240                           ;main_final_lab3.c: 106:     Lcd_Set_Cursor(1, 14);
  1241  0038' 300E               	movlw	14
  1242  0039' 1283               	bcf	3,5	;RP0=0, select bank0
  1243  003A' 1303               	bcf	3,6	;RP1=0, select bank0
  1244  003B' 00CC'              	movwf	??_main
  1245  003C' 084C'              	movf	??_main,w
  1246  003D' 0080'              	movwf	_Lcd_Set_Cursor$1
  1247  003E' 3001               	movlw	1
  1248  003F' 120A' 118A' 2000' 120A' 118A' 	fcall	_Lcd_Set_Cursor
  1249  0044'                    l4376:
  1250                           
  1251                           ;main_final_lab3.c: 107:     Lcd_Write_String("S3:");
  1252  0044' 30B2               	movlw	(low (((STR_6+12)-__stringbase)| (0+32768)))& (0+255)
  1253  0045' 0080'              	movwf	_Lcd_Write_String$0
  1254  0046' 3080               	movlw	128
  1255  0047' 0081'              	movwf	_Lcd_Write_String$0+1
  1256  0048' 120A' 118A' 2000' 120A' 118A' 	fcall	_Lcd_Write_String
  1257  004D'                    l4378:
  1258                           
  1259                           ;main_final_lab3.c: 110:         ADC_channel1();
  1260  004D' 120A' 118A' 2000' 120A' 118A' 	fcall	_ADC_channel1
  1261  0052'                    l4380:
  1262                           
  1263                           ;main_final_lab3.c: 111:         _delay((unsigned long)((1)*(8000000/4000.0)));
  1264  0052' 3003               	movlw	3
  1265  0053' 1283               	bcf	3,5	;RP0=0, select bank0
  1266  0054' 1303               	bcf	3,6	;RP1=0, select bank0
  1267  0055' 00CD'              	movwf	??_main+1
  1268  0056' 3097               	movlw	151
  1269  0057' 00CC'              	movwf	??_main
  1270  0058'                    u7667:
  1271  0058' 0BCC'              	decfsz	??_main,f
  1272  0059' 2800'              	goto	u7667
  1273  005A' 0BCD'              	decfsz	??_main+1,f
  1274  005B' 2800'              	goto	u7667
  1275  005C'                    l4382:
  1276                           
  1277                           ;main_final_lab3.c: 112:         ADC_channel2();
  1278  005C' 120A' 118A' 2000' 120A' 118A' 	fcall	_ADC_channel2
  1279  0061'                    l4384:
  1280                           
  1281                           ;main_final_lab3.c: 114:         Write_USART_String("S1   S2   S3 \n");
  1282  0061' 30B6               	movlw	(low ((STR_4-__stringbase)| (0+32768)))& (0+255)
  1283  0062' 0080'              	movwf	_Write_USART_String$0
  1284  0063' 3080               	movlw	128
  1285  0064' 0081'              	movwf	_Write_USART_String$0+1
  1286  0065' 120A' 118A' 2000' 120A' 118A' 	fcall	_Write_USART_String
  1287  006A'                    l4386:
  1288                           
  1289                           ;main_final_lab3.c: 115:         sprintf(data_total, "%2.1fV  %2.1fV    %d", S2_val, S1_
      +                          val, cont);
  1290  006A' 3091               	movlw	(low ((STR_5-__stringbase)| (0+32768)))& (0+255)
  1291  006B' 1283               	bcf	3,5	;RP0=0, select bank0
  1292  006C' 1303               	bcf	3,6	;RP1=0, select bank0
  1293  006D' 00CC'              	movwf	??_main
  1294  006E' 084C'              	movf	??_main,w
  1295  006F' 1683               	bsf	3,5	;RP0=1, select bank1
  1296  0070' 1303               	bcf	3,6	;RP1=0, select bank1
  1297  0071' 0080'              	movwf	sprintf@f^(0+128)
  1298  0072' 0800'              	movf	(_S2_val+3)^(0+128),w
  1299  0073' 0081'              	movwf	((?_sprintf+3)^(0+128)+1)
  1300  0074' 0800'              	movf	(_S2_val+2)^(0+128),w
  1301  0075' 0081'              	movwf	((?_sprintf+2)^(0+128)+1)
  1302  0076' 0800'              	movf	(_S2_val+1)^(0+128),w
  1303  0077' 0081'              	movwf	((?_sprintf+1)^(0+128)+1)
  1304  0078' 0800'              	movf	_S2_val^(0+128),w
  1305  0079' 0081'              	movwf	(?_sprintf^(0+128)+1)
  1306  007A' 0800'              	movf	(_S1_val+3)^(0+128),w
  1307  007B' 0085'              	movwf	((?_sprintf+3)^(0+128)+5)
  1308  007C' 0800'              	movf	(_S1_val+2)^(0+128),w
  1309  007D' 0085'              	movwf	((?_sprintf+2)^(0+128)+5)
  1310  007E' 0800'              	movf	(_S1_val+1)^(0+128),w
  1311  007F' 0085'              	movwf	((?_sprintf+1)^(0+128)+5)
  1312  0080' 0800'              	movf	_S1_val^(0+128),w
  1313  0081' 0085'              	movwf	(?_sprintf^(0+128)+5)
  1314  0082' 0800'              	movf	_cont^(0+128),w
  1315  0083' 1283               	bcf	3,5	;RP0=0, select bank0
  1316  0084' 1303               	bcf	3,6	;RP1=0, select bank0
  1317  0085' 00CD'              	movwf	??_main+1
  1318  0086' 01CE'              	clrf	??_main+2
  1319  0087' 084D'              	movf	??_main+1,w
  1320  0088' 1683               	bsf	3,5	;RP0=1, select bank1
  1321  0089' 1303               	bcf	3,6	;RP1=0, select bank1
  1322  008A' 0089'              	movwf	(?_sprintf^(0+128)+9)
  1323  008B' 1283               	bcf	3,5	;RP0=0, select bank0
  1324  008C' 1303               	bcf	3,6	;RP1=0, select bank0
  1325  008D' 084E'              	movf	??_main+2,w
  1326  008E' 1683               	bsf	3,5	;RP0=1, select bank1
  1327  008F' 1303               	bcf	3,6	;RP1=0, select bank1
  1328  0090' 0089'              	movwf	((?_sprintf+1)^(0+128)+9)
  1329  0091' 3000'              	movlw	(low (_data_total| 0))& (0+255)
  1330  0092' 120A' 118A' 2000' 120A' 118A' 	fcall	_sprintf
  1331  0097'                    l4388:
  1332                           
  1333                           ;main_final_lab3.c: 116:         Write_USART_String(data_total);
  1334  0097' 3000'              	movlw	(low (_data_total| 0))& (0+255)
  1335  0098' 0080'              	movwf	_Write_USART_String$0
  1336  0099' 3000               	movlw	0
  1337  009A' 0081'              	movwf	_Write_USART_String$0+1
  1338  009B' 120A' 118A' 2000' 120A' 118A' 	fcall	_Write_USART_String
  1339  00A0'                    l4390:
  1340                           
  1341                           ;main_final_lab3.c: 117:         Write_USART(13);
  1342  00A0' 300D               	movlw	13
  1343  00A1' 120A' 118A' 2000' 120A' 118A' 	fcall	_Write_USART
  1344  00A6'                    l4392:
  1345                           
  1346                           ;main_final_lab3.c: 118:         Write_USART(10);
  1347  00A6' 300A               	movlw	10
  1348  00A7' 120A' 118A' 2000' 120A' 118A' 	fcall	_Write_USART
  1349  00AC'                    l4394:
  1350                           
  1351                           ;main_final_lab3.c: 121:         Lcd_Clear();
  1352  00AC' 120A' 118A' 2000' 120A' 118A' 	fcall	_Lcd_Clear
  1353  00B1'                    l4396:
  1354                           
  1355                           ;main_final_lab3.c: 122:         Lcd_Set_Cursor(1,2);
  1356  00B1' 3002               	movlw	2
  1357  00B2' 1283               	bcf	3,5	;RP0=0, select bank0
  1358  00B3' 1303               	bcf	3,6	;RP1=0, select bank0
  1359  00B4' 00CC'              	movwf	??_main
  1360  00B5' 084C'              	movf	??_main,w
  1361  00B6' 0080'              	movwf	_Lcd_Set_Cursor$1
  1362  00B7' 3001               	movlw	1
  1363  00B8' 120A' 118A' 2000' 120A' 118A' 	fcall	_Lcd_Set_Cursor
  1364  00BD'                    l4398:
  1365                           
  1366                           ;main_final_lab3.c: 123:         Lcd_Write_String("S1:   S2:   S3:");
  1367  00BD' 30A6               	movlw	(low ((STR_6-__stringbase)| (0+32768)))& (0+255)
  1368  00BE' 0080'              	movwf	_Lcd_Write_String$0
  1369  00BF' 3080               	movlw	128
  1370  00C0' 0081'              	movwf	_Lcd_Write_String$0+1
  1371  00C1' 120A' 118A' 2000' 120A' 118A' 	fcall	_Lcd_Write_String
  1372  00C6'                    l4400:
  1373                           
  1374                           ;main_final_lab3.c: 124:         Lcd_Set_Cursor(2,1);
  1375  00C6' 0180'              	clrf	_Lcd_Set_Cursor$1
  1376  00C7' 0A80'              	incf	_Lcd_Set_Cursor$1,f
  1377  00C8' 3002               	movlw	2
  1378  00C9' 120A' 118A' 2000' 120A' 118A' 	fcall	_Lcd_Set_Cursor
  1379  00CE'                    l4402:
  1380                           
  1381                           ;main_final_lab3.c: 125:         Lcd_Write_String(data_total);
  1382  00CE' 3000'              	movlw	(low (_data_total| 0))& (0+255)
  1383  00CF' 0080'              	movwf	_Lcd_Write_String$0
  1384  00D0' 3000               	movlw	0
  1385  00D1' 0081'              	movwf	_Lcd_Write_String$0+1
  1386  00D2' 120A' 118A' 2000' 120A' 118A' 	fcall	_Lcd_Write_String
  1387  00D7' 2800'              	goto	l4378
  1388  00D8' 120A' 118A' 2800'  	ljmp	start
  1389  00DB'                    __end_of_main:
  1390                           
  1391                           	psect	text1
  1392  0000'                    __ptext1:	
  1393 ;; *************** function _sprintf *****************
  1394 ;; Defined at:
  1395 ;;		line 505 in file "C:\Program Files\Microchip\xc8\v2.31\pic\sources\c90\common\doprnt.c"
  1396 ;; Parameters:    Size  Location     Type
  1397 ;;  sp              1    wreg     PTR unsigned char 
  1398 ;;		 -> data_total(20), 
  1399 ;;  f               1    8[BANK1 ] PTR const unsigned char 
  1400 ;;		 -> STR_5(21), 
  1401 ;; Auto vars:     Size  Location     Type
  1402 ;;  sp              1   47[BANK1 ] PTR unsigned char 
  1403 ;;		 -> data_total(20), 
  1404 ;;  fval            4   43[BANK1 ] PTR unsigned char 
  1405 ;;  val             4   37[BANK1 ] unsigned long 
  1406 ;;  tmpval          4   33[BANK1 ] struct .
  1407 ;;  prec            2   48[BANK1 ] int 
  1408 ;;  eexp            2   41[BANK1 ] int 
  1409 ;;  width           2   31[BANK1 ] int 
  1410 ;;  flag            2   29[BANK1 ] unsigned short 
  1411 ;;  cp              2    0        PTR const unsigned char 
  1412 ;;  len             2    0        unsigned int 
  1413 ;;  c               1   50[BANK1 ] unsigned char 
  1414 ;;  ap              1   28[BANK1 ] PTR void [1]
  1415 ;;		 -> ?_sprintf(2), 
  1416 ;;  d               1    0        unsigned char 
  1417 ;; Return value:  Size  Location     Type
  1418 ;;                  2    8[BANK1 ] int 
  1419 ;; Registers used:
  1420 ;;		wreg, fsr0l, fsr0h, status,2, status,0, btemp+1, pclath, cstack
  1421 ;; Tracked objects:
  1422 ;;		On entry : 0/0
  1423 ;;		On exit  : 0/0
  1424 ;;		Unchanged: 0/0
  1425 ;; Data sizes:     COMMON   BANK0   BANK1   BANK3   BANK2
  1426 ;;      Params:         0       0      11       0       0
  1427 ;;      Locals:         0       0      27       0       0
  1428 ;;      Temps:          0       0       5       0       0
  1429 ;;      Totals:         0       0      43       0       0
  1430 ;;Total ram usage:       43 bytes
  1431 ;; Hardware stack levels used:    1
  1432 ;; Hardware stack levels required when called:    4
  1433 ;; This function calls:
  1434 ;;		___awdiv
  1435 ;;		___fladd
  1436 ;;		___fleq
  1437 ;;		___flge
  1438 ;;		___flmul
  1439 ;;		___flneg
  1440 ;;		___flsub
  1441 ;;		___fltol
  1442 ;;		___lldiv
  1443 ;;		___llmod
  1444 ;;		___wmul
  1445 ;;		___xxtofl
  1446 ;;		__div_to_l_
  1447 ;;		__tdiv_to_l_
  1448 ;;		_fround
  1449 ;;		_isdigit
  1450 ;;		_scale
  1451 ;; This function is called by:
  1452 ;;		_main
  1453 ;; This function uses a non-reentrant model
  1454 ;;
  1455                           
  1456                           
  1457                           ;psect for function _sprintf
  1458  0000'                    _sprintf:
  1459                           
  1460                           ;incstack = 0
  1461                           ; Regs used in _sprintf: [wreg-fsr0h+status,2+status,0+btemp+1+pclath+cstack]
  1462                           ;sprintf@sp stored from wreg
  1463  0000' 1683               	bsf	3,5	;RP0=1, select bank1
  1464  0001' 1303               	bcf	3,6	;RP1=0, select bank1
  1465  0002' 0080'              	movwf	sprintf@sp^(0+128)
  1466  0003'                    l4064:
  1467                           
  1468                           ;C:\Program Files\Microchip\xc8\v2.31\pic\sources\c90\common\doprnt.c: 505: sprintf(char
      +                           * sp, const char * f, ...);C:\Program Files\Microchip\xc8\v2.31\pic\sources\c90\common\
      +                          doprnt.c: 506: {;C:\Program Files\Microchip\xc8\v2.31\pic\sources\c90\common\doprnt.c: 5
      +                          07:  va_list ap;;C:\Program Files\Microchip\xc8\v2.31\pic\sources\c90\common\doprnt.c: 5
      +                          12:  char c;;C:\Program Files\Microchip\xc8\v2.31\pic\sources\c90\common\doprnt.c: 514: 
      +                           int width;;C:\Program Files\Microchip\xc8\v2.31\pic\sources\c90\common\doprnt.c: 517:  
      +                          int prec;
  1469  0003' 3000'              	movlw	(low ((?_sprintf| 0+1)))& (0+255)
  1470  0004' 0080'              	movwf	??_sprintf^(0+128)
  1471  0005' 0800'              	movf	??_sprintf^(0+128),w
  1472  0006' 0080'              	movwf	sprintf@ap^(0+128)
  1473  0007'                    L1:
  1474                           
  1475                           ;C:\Program Files\Microchip\xc8\v2.31\pic\sources\c90\common\doprnt.c: 553:  while((c = 
      +                          *f++)) {
  1476  0007' 120A' 118A' 2800'  	goto	l4346
  1477  000A'                    l4066:
  1478                           
  1479                           ;C:\Program Files\Microchip\xc8\v2.31\pic\sources\c90\common\doprnt.c: 555:   if(c != '%
      +                          ')
  1480  000A' 3025               	movlw	37
  1481  000B' 0600'              	xorwf	sprintf@c^(0+128),w
  1482  000C' 1903               	btfsc	3,2
  1483  000D' 2800'              	goto	u7131
  1484  000E' 2800'              	goto	u7130
  1485  000F'                    u7131:
  1486  000F' 2800'              	goto	l4072
  1487  0010'                    u7130:
  1488  0010'                    l4068:
  1489                           
  1490                           ;C:\Program Files\Microchip\xc8\v2.31\pic\sources\c90\common\doprnt.c: 557:   {;C:\Progr
      +                          am Files\Microchip\xc8\v2.31\pic\sources\c90\common\doprnt.c: 558:    ((*sp++ = (c)));
  1491  0010' 0800'              	movf	sprintf@c^(0+128),w
  1492  0011' 0080'              	movwf	??_sprintf^(0+128)
  1493  0012' 0800'              	movf	sprintf@sp^(0+128),w
  1494  0013' 0084               	movwf	4
  1495  0014' 0800'              	movf	??_sprintf^(0+128),w
  1496  0015' 1383               	bcf	3,7	;select IRP bank0
  1497  0016' 0080               	movwf	0
  1498  0017'                    l4070:
  1499  0017' 3001               	movlw	1
  1500  0018' 0080'              	movwf	??_sprintf^(0+128)
  1501  0019' 0800'              	movf	??_sprintf^(0+128),w
  1502  001A' 0780'              	addwf	sprintf@sp^(0+128),f
  1503                           
  1504                           ;C:\Program Files\Microchip\xc8\v2.31\pic\sources\c90\common\doprnt.c: 559:    continue;
  1505  001B' 2800'              	goto	L1
  1506  001C'                    l4072:
  1507                           
  1508                           ;C:\Program Files\Microchip\xc8\v2.31\pic\sources\c90\common\doprnt.c: 563:   width = 0;
  1509  001C' 0180'              	clrf	sprintf@width^(0+128)
  1510  001D' 0180'              	clrf	(sprintf@width+1)^(0+128)
  1511                           
  1512                           ;C:\Program Files\Microchip\xc8\v2.31\pic\sources\c90\common\doprnt.c: 565:   flag = 0;
  1513  001E' 0180'              	clrf	sprintf@flag^(0+128)
  1514  001F' 0180'              	clrf	(sprintf@flag+1)^(0+128)
  1515  0020'                    l4074:
  1516                           
  1517                           ;C:\Program Files\Microchip\xc8\v2.31\pic\sources\c90\common\doprnt.c: 614:   if(isdigit
      +                          ((unsigned)*f)) {
  1518  0020' 0800'              	movf	sprintf@f^(0+128),w
  1519  0021' 0084               	movwf	4
  1520  0022' 120A' 118A' 2000' 120A' 118A' 	fcall	stringdir
  1521  0027' 120A' 118A' 2000' 120A' 118A' 	fcall	_isdigit
  1522  002C' 1C03               	btfss	3,0
  1523  002D' 2800'              	goto	u7141
  1524  002E' 2800'              	goto	u7140
  1525  002F'                    u7141:
  1526  002F' 2800'              	goto	l4086
  1527  0030'                    u7140:
  1528  0030'                    l4076:
  1529                           
  1530                           ;C:\Program Files\Microchip\xc8\v2.31\pic\sources\c90\common\doprnt.c: 615:    width = 0
      +                          ;
  1531  0030' 1683               	bsf	3,5	;RP0=1, select bank1
  1532  0031' 1303               	bcf	3,6	;RP1=0, select bank1
  1533  0032' 0180'              	clrf	sprintf@width^(0+128)
  1534  0033' 0180'              	clrf	(sprintf@width+1)^(0+128)
  1535  0034'                    l4078:
  1536                           
  1537                           ;C:\Program Files\Microchip\xc8\v2.31\pic\sources\c90\common\doprnt.c: 617:     width *=
      +                           10;
  1538  0034' 300A               	movlw	10
  1539  0035' 0083'              	movwf	___wmul@multiplier
  1540  0036' 3000               	movlw	0
  1541  0037' 0084'              	movwf	___wmul@multiplier+1
  1542  0038' 1683               	bsf	3,5	;RP0=1, select bank1
  1543  0039' 1303               	bcf	3,6	;RP1=0, select bank1
  1544  003A' 0800'              	movf	(sprintf@width+1)^(0+128),w
  1545  003B' 0086'              	movwf	___wmul@multiplicand+1
  1546  003C' 0800'              	movf	sprintf@width^(0+128),w
  1547  003D' 0085'              	movwf	___wmul@multiplicand
  1548  003E' 120A' 118A' 2000' 120A' 118A' 	fcall	___wmul
  1549  0043' 0804'              	movf	?___wmul+1,w
  1550  0044' 1683               	bsf	3,5	;RP0=1, select bank1
  1551  0045' 1303               	bcf	3,6	;RP1=0, select bank1
  1552  0046' 0080'              	movwf	(sprintf@width+1)^(0+128)
  1553  0047' 0803'              	movf	?___wmul,w
  1554  0048' 0080'              	movwf	sprintf@width^(0+128)
  1555  0049'                    l4080:
  1556                           
  1557                           ;C:\Program Files\Microchip\xc8\v2.31\pic\sources\c90\common\doprnt.c: 618:        width
      +                           += *f++ - '0';
  1558  0049' 0800'              	movf	sprintf@f^(0+128),w
  1559  004A' 0084               	movwf	4
  1560  004B' 120A' 118A' 2000' 120A' 118A' 	fcall	stringdir
  1561  0050' 3ED0               	addlw	208
  1562  0051' 0080'              	movwf	??_sprintf^(0+128)
  1563  0052' 30FF               	movlw	255
  1564  0053' 1803               	skipnc
  1565  0054' 3000               	movlw	0
  1566  0055' 0081'              	movwf	(??_sprintf^(0+128)+1)
  1567  0056' 0800'              	movf	??_sprintf^(0+128),w
  1568  0057' 0780'              	addwf	sprintf@width^(0+128),f
  1569  0058' 1803               	skipnc
  1570  0059' 0A80'              	incf	(sprintf@width+1)^(0+128),f
  1571  005A' 0800'              	movf	(??_sprintf+1)^(0+128),w
  1572  005B' 0780'              	addwf	(sprintf@width+1)^(0+128),f
  1573  005C'                    l4082:
  1574  005C' 3001               	movlw	1
  1575  005D' 0080'              	movwf	??_sprintf^(0+128)
  1576  005E' 0800'              	movf	??_sprintf^(0+128),w
  1577  005F' 0780'              	addwf	sprintf@f^(0+128),f
  1578  0060'                    l4084:
  1579                           
  1580                           ;C:\Program Files\Microchip\xc8\v2.31\pic\sources\c90\common\doprnt.c: 619:    } while(i
      +                          sdigit((unsigned)*f));
  1581  0060' 0800'              	movf	sprintf@f^(0+128),w
  1582  0061' 0084               	movwf	4
  1583  0062' 120A' 118A' 2000' 120A' 118A' 	fcall	stringdir
  1584  0067' 120A' 118A' 2000' 120A' 118A' 	fcall	_isdigit
  1585  006C' 1803               	btfsc	3,0
  1586  006D' 2800'              	goto	u7151
  1587  006E' 2800'              	goto	u7150
  1588  006F'                    u7151:
  1589  006F' 2800'              	goto	l4078
  1590  0070'                    u7150:
  1591  0070'                    l4086:
  1592                           
  1593                           ;C:\Program Files\Microchip\xc8\v2.31\pic\sources\c90\common\doprnt.c: 628:   if(*f == '
      +                          .') {
  1594  0070' 1683               	bsf	3,5	;RP0=1, select bank1
  1595  0071' 1303               	bcf	3,6	;RP1=0, select bank1
  1596  0072' 0800'              	movf	sprintf@f^(0+128),w
  1597  0073' 0084               	movwf	4
  1598  0074' 120A' 118A' 2000' 120A' 118A' 	fcall	stringdir
  1599  0079' 3A2E               	xorlw	46
  1600  007A' 1D03               	skipz
  1601  007B' 2800'              	goto	u7161
  1602  007C' 2800'              	goto	u7160
  1603  007D'                    u7161:
  1604  007D' 2800'              	goto	l4102
  1605  007E'                    u7160:
  1606  007E'                    l4088:
  1607                           
  1608                           ;C:\Program Files\Microchip\xc8\v2.31\pic\sources\c90\common\doprnt.c: 629:    flag |= 0
      +                          x4000;
  1609  007E' 1701'              	bsf	(sprintf@flag^(0+128)+1),6
  1610  007F'                    l4090:
  1611                           
  1612                           ;C:\Program Files\Microchip\xc8\v2.31\pic\sources\c90\common\doprnt.c: 630:    f++;
  1613  007F' 3001               	movlw	1
  1614  0080' 0080'              	movwf	??_sprintf^(0+128)
  1615  0081' 0800'              	movf	??_sprintf^(0+128),w
  1616  0082' 0780'              	addwf	sprintf@f^(0+128),f
  1617  0083'                    l4092:
  1618                           
  1619                           ;C:\Program Files\Microchip\xc8\v2.31\pic\sources\c90\common\doprnt.c: 644:    {;C:\Prog
      +                          ram Files\Microchip\xc8\v2.31\pic\sources\c90\common\doprnt.c: 645:     prec = 0;
  1620  0083' 0180'              	clrf	sprintf@prec^(0+128)
  1621  0084' 0180'              	clrf	(sprintf@prec+1)^(0+128)
  1622                           
  1623                           ;C:\Program Files\Microchip\xc8\v2.31\pic\sources\c90\common\doprnt.c: 646:     while(is
      +                          digit((unsigned)*f)) {
  1624  0085' 2800'              	goto	l4100
  1625  0086'                    l4094:
  1626                           
  1627                           ;C:\Program Files\Microchip\xc8\v2.31\pic\sources\c90\common\doprnt.c: 647:      prec *=
      +                           10;
  1628  0086' 300A               	movlw	10
  1629  0087' 0083'              	movwf	___wmul@multiplier
  1630  0088' 3000               	movlw	0
  1631  0089' 0084'              	movwf	___wmul@multiplier+1
  1632  008A' 1683               	bsf	3,5	;RP0=1, select bank1
  1633  008B' 1303               	bcf	3,6	;RP1=0, select bank1
  1634  008C' 0800'              	movf	(sprintf@prec+1)^(0+128),w
  1635  008D' 0086'              	movwf	___wmul@multiplicand+1
  1636  008E' 0800'              	movf	sprintf@prec^(0+128),w
  1637  008F' 0085'              	movwf	___wmul@multiplicand
  1638  0090' 120A' 118A' 2000' 120A' 118A' 	fcall	___wmul
  1639  0095' 0804'              	movf	?___wmul+1,w
  1640  0096' 1683               	bsf	3,5	;RP0=1, select bank1
  1641  0097' 1303               	bcf	3,6	;RP1=0, select bank1
  1642  0098' 0080'              	movwf	(sprintf@prec+1)^(0+128)
  1643  0099' 0803'              	movf	?___wmul,w
  1644  009A' 0080'              	movwf	sprintf@prec^(0+128)
  1645  009B'                    l4096:
  1646                           
  1647                           ;C:\Program Files\Microchip\xc8\v2.31\pic\sources\c90\common\doprnt.c: 648:         prec
      +                           += *f++ - '0';
  1648  009B' 0800'              	movf	sprintf@f^(0+128),w
  1649  009C' 0084               	movwf	4
  1650  009D' 120A' 118A' 2000' 120A' 118A' 	fcall	stringdir
  1651  00A2' 3ED0               	addlw	208
  1652  00A3' 0080'              	movwf	??_sprintf^(0+128)
  1653  00A4' 30FF               	movlw	255
  1654  00A5' 1803               	skipnc
  1655  00A6' 3000               	movlw	0
  1656  00A7' 0081'              	movwf	(??_sprintf^(0+128)+1)
  1657  00A8' 0800'              	movf	??_sprintf^(0+128),w
  1658  00A9' 0780'              	addwf	sprintf@prec^(0+128),f
  1659  00AA' 1803               	skipnc
  1660  00AB' 0A80'              	incf	(sprintf@prec+1)^(0+128),f
  1661  00AC' 0800'              	movf	(??_sprintf+1)^(0+128),w
  1662  00AD' 0780'              	addwf	(sprintf@prec+1)^(0+128),f
  1663  00AE'                    l4098:
  1664  00AE' 3001               	movlw	1
  1665  00AF' 0080'              	movwf	??_sprintf^(0+128)
  1666  00B0' 0800'              	movf	??_sprintf^(0+128),w
  1667  00B1' 0780'              	addwf	sprintf@f^(0+128),f
  1668  00B2'                    l4100:
  1669                           
  1670                           ;C:\Program Files\Microchip\xc8\v2.31\pic\sources\c90\common\doprnt.c: 646:     while(is
      +                          digit((unsigned)*f)) {
  1671  00B2' 0800'              	movf	sprintf@f^(0+128),w
  1672  00B3' 0084               	movwf	4
  1673  00B4' 120A' 118A' 2000' 120A' 118A' 	fcall	stringdir
  1674  00B9' 120A' 118A' 2000' 120A' 118A' 	fcall	_isdigit
  1675  00BE' 1803               	btfsc	3,0
  1676  00BF' 2800'              	goto	u7171
  1677  00C0' 2800'              	goto	u7170
  1678  00C1'                    u7171:
  1679  00C1' 2800'              	goto	l4094
  1680  00C2'                    u7170:
  1681  00C2' 2800'              	goto	l4108
  1682  00C3'                    l4102:
  1683                           
  1684                           ;C:\Program Files\Microchip\xc8\v2.31\pic\sources\c90\common\doprnt.c: 652:    prec = 0;
  1685  00C3' 0180'              	clrf	sprintf@prec^(0+128)
  1686  00C4' 0180'              	clrf	(sprintf@prec+1)^(0+128)
  1687  00C5'                    l4104:
  1688                           
  1689                           ;C:\Program Files\Microchip\xc8\v2.31\pic\sources\c90\common\doprnt.c: 654:    flag |= 0
      +                          x1000;
  1690  00C5' 1601'              	bsf	(sprintf@flag^(0+128)+1),4
  1691  00C6' 2800'              	goto	l4108
  1692  00C7'                    l237:	
  1693                           ;C:\Program Files\Microchip\xc8\v2.31\pic\sources\c90\common\doprnt.c: 688:   case 'f':
  1694                           
  1695                           
  1696                           ;C:\Program Files\Microchip\xc8\v2.31\pic\sources\c90\common\doprnt.c: 689:    flag |= 0
      +                          x400;
  1697  00C7' 1501'              	bsf	(sprintf@flag^(0+128)+1),2
  1698                           
  1699                           ;C:\Program Files\Microchip\xc8\v2.31\pic\sources\c90\common\doprnt.c: 690:    break;
  1700  00C8' 2800'              	goto	l4110
  1701  00C9'                    l4108:
  1702  00C9' 3001               	movlw	1
  1703  00CA' 1683               	bsf	3,5	;RP0=1, select bank1
  1704  00CB' 1303               	bcf	3,6	;RP1=0, select bank1
  1705  00CC' 0780'              	addwf	sprintf@f^(0+128),f
  1706  00CD' 30FF               	movlw	-1
  1707  00CE' 0700'              	addwf	sprintf@f^(0+128),w
  1708  00CF' 0084               	movwf	4
  1709  00D0' 120A' 118A' 2000' 120A' 118A' 	fcall	stringdir
  1710  00D5' 0080'              	movwf	sprintf@c^(0+128)
  1711  00D6' 0080'              	movwf	??_sprintf^(0+128)
  1712  00D7' 0181'              	clrf	(??_sprintf^(0+128)+1)
  1713                           
  1714                           ; Switch on 2 bytes has been partitioned into a top level switch of size 1, and 1 sub-sw
      +                          itches
  1715                           ; Switch size 1, requested type "simple"
  1716                           ; Number of cases is 1, Range of values is 0 to 0
  1717                           ; switch strategies available:
  1718                           ; Name         Instructions Cycles
  1719                           ; simple_byte            4     3 (average)
  1720                           ; direct_byte           11     8 (fixed)
  1721                           ; jumptable            260     6 (fixed)
  1722                           ;	Chosen strategy is simple_byte
  1723  00D8' 0800'              	movf	(??_sprintf+1)^(0+128),w
  1724  00D9' 3A00               	xorlw	0	; case 0
  1725  00DA' 1903               	skipnz
  1726  00DB' 2800'              	goto	l4434
  1727  00DC' 2800'              	goto	L1
  1728  00DD'                    l4434:
  1729                           
  1730                           ; Switch size 1, requested type "simple"
  1731                           ; Number of cases is 4, Range of values is 0 to 105
  1732                           ; switch strategies available:
  1733                           ; Name         Instructions Cycles
  1734                           ; simple_byte           13     7 (average)
  1735                           ; jumptable            260     6 (fixed)
  1736                           ;	Chosen strategy is simple_byte
  1737  00DD' 0800'              	movf	??_sprintf^(0+128),w
  1738  00DE' 3A00               	xorlw	0	; case 0
  1739  00DF' 1903               	skipnz
  1740  00E0' 2800'              	goto	L3
  1741  00E1' 3A64               	xorlw	100	; case 100
  1742  00E2' 1903               	skipnz
  1743  00E3' 2800'              	goto	l4110
  1744  00E4' 3A02               	xorlw	2	; case 102
  1745  00E5' 1903               	skipnz
  1746  00E6' 2800'              	goto	l237
  1747  00E7' 3A0F               	xorlw	15	; case 105
  1748  00E8' 1903               	skipnz
  1749  00E9' 2800'              	goto	l4110
  1750  00EA' 2800'              	goto	L1
  1751  00EB'                    l4110:
  1752                           
  1753                           ;C:\Program Files\Microchip\xc8\v2.31\pic\sources\c90\common\doprnt.c: 851:   if(flag & 
      +                          (0x700)) {
  1754  00EB' 3000               	movlw	0
  1755  00EC' 0500'              	andwf	sprintf@flag^(0+128),w
  1756  00ED' 0080'              	movwf	??_sprintf^(0+128)
  1757  00EE' 3007               	movlw	7
  1758  00EF' 0500'              	andwf	(sprintf@flag+1)^(0+128),w
  1759  00F0' 0080'              	movwf	(??_sprintf+1)^(0+128)
  1760  00F1' 0800'              	movf	??_sprintf^(0+128),w
  1761  00F2' 0401'              	iorwf	(??_sprintf^(0+128)+1),w
  1762  00F3' 1903               	btfsc	3,2
  1763  00F4' 2800'              	goto	u7181
  1764  00F5' 2800'              	goto	u7180
  1765  00F6'                    u7181:
  1766  00F6' 120A' 118A' 2800'  	goto	l4268
  1767  00F9'                    u7180:
  1768  00F9'                    l4112:
  1769                           
  1770                           ;C:\Program Files\Microchip\xc8\v2.31\pic\sources\c90\common\doprnt.c: 853:    if(flag &
      +                           0x1000)
  1771  00F9' 1E00'              	btfss	(sprintf@flag+1)^(0+128),4
  1772  00FA' 2800'              	goto	u7191
  1773  00FB' 2800'              	goto	u7190
  1774  00FC'                    u7191:
  1775  00FC' 2800'              	goto	l4116
  1776  00FD'                    u7190:
  1777  00FD'                    l4114:
  1778                           
  1779                           ;C:\Program Files\Microchip\xc8\v2.31\pic\sources\c90\common\doprnt.c: 855:     prec = 6
      +                          ;
  1780  00FD' 3006               	movlw	6
  1781  00FE' 0080'              	movwf	sprintf@prec^(0+128)
  1782  00FF' 3000               	movlw	0
  1783  0100' 0081'              	movwf	(sprintf@prec^(0+128)+1)
  1784  0101'                    l4116:
  1785                           
  1786                           ;C:\Program Files\Microchip\xc8\v2.31\pic\sources\c90\common\doprnt.c: 856:    fval = (*
      +                          (double *)__va_arg((*(double **)ap), (double)0));
  1787  0101' 0800'              	movf	sprintf@ap^(0+128),w
  1788  0102' 0084               	movwf	4
  1789  0103' 1383               	bcf	3,7	;select IRP bank0
  1790  0104' 0800               	movf	0,w
  1791  0105' 0080'              	movwf	sprintf@fval^(0+128)
  1792  0106' 0A84               	incf	4,f
  1793  0107' 0800               	movf	0,w
  1794  0108' 0080'              	movwf	(sprintf@fval+1)^(0+128)
  1795  0109' 0A84               	incf	4,f
  1796  010A' 0800               	movf	0,w
  1797  010B' 0080'              	movwf	(sprintf@fval+2)^(0+128)
  1798  010C' 0A84               	incf	4,f
  1799  010D' 0800               	movf	0,w
  1800  010E' 0080'              	movwf	(sprintf@fval+3)^(0+128)
  1801  010F'                    l4118:
  1802  010F' 3004               	movlw	4
  1803  0110' 0080'              	movwf	??_sprintf^(0+128)
  1804  0111' 0800'              	movf	??_sprintf^(0+128),w
  1805  0112' 0780'              	addwf	sprintf@ap^(0+128),f
  1806  0113'                    l4120:
  1807                           
  1808                           ;C:\Program Files\Microchip\xc8\v2.31\pic\sources\c90\common\doprnt.c: 857:    if(fval <
      +                           0.0) {
  1809  0113' 0800'              	movf	(sprintf@fval+3)^(0+128),w
  1810  0114' 1283               	bcf	3,5	;RP0=0, select bank0
  1811  0115' 1303               	bcf	3,6	;RP1=0, select bank0
  1812  0116' 0083'              	movwf	___flge@ff1+3
  1813  0117' 1683               	bsf	3,5	;RP0=1, select bank1
  1814  0118' 1303               	bcf	3,6	;RP1=0, select bank1
  1815  0119' 0800'              	movf	(sprintf@fval+2)^(0+128),w
  1816  011A' 1283               	bcf	3,5	;RP0=0, select bank0
  1817  011B' 1303               	bcf	3,6	;RP1=0, select bank0
  1818  011C' 0082'              	movwf	___flge@ff1+2
  1819  011D' 1683               	bsf	3,5	;RP0=1, select bank1
  1820  011E' 1303               	bcf	3,6	;RP1=0, select bank1
  1821  011F' 0800'              	movf	(sprintf@fval+1)^(0+128),w
  1822  0120' 1283               	bcf	3,5	;RP0=0, select bank0
  1823  0121' 1303               	bcf	3,6	;RP1=0, select bank0
  1824  0122' 0081'              	movwf	___flge@ff1+1
  1825  0123' 1683               	bsf	3,5	;RP0=1, select bank1
  1826  0124' 1303               	bcf	3,6	;RP1=0, select bank1
  1827  0125' 0800'              	movf	sprintf@fval^(0+128),w
  1828  0126' 1283               	bcf	3,5	;RP0=0, select bank0
  1829  0127' 1303               	bcf	3,6	;RP1=0, select bank0
  1830  0128' 0080'              	movwf	___flge@ff1
  1831  0129' 3000               	movlw	0
  1832  012A' 0087'              	movwf	___flge@ff2+3
  1833  012B' 3000               	movlw	0
  1834  012C' 0086'              	movwf	___flge@ff2+2
  1835  012D' 3000               	movlw	0
  1836  012E' 0085'              	movwf	___flge@ff2+1
  1837  012F' 3000               	movlw	0
  1838  0130' 0084'              	movwf	___flge@ff2
  1839  0131' 120A' 118A' 2000' 120A' 118A' 	fcall	___flge
  1840  0136' 1803               	btfsc	3,0
  1841  0137' 2800'              	goto	u7201
  1842  0138' 2800'              	goto	u7200
  1843  0139'                    u7201:
  1844  0139' 2800'              	goto	l4126
  1845  013A'                    u7200:
  1846  013A'                    l4122:
  1847                           
  1848                           ;C:\Program Files\Microchip\xc8\v2.31\pic\sources\c90\common\doprnt.c: 858:     fval = -
      +                          fval;
  1849  013A' 1683               	bsf	3,5	;RP0=1, select bank1
  1850  013B' 1303               	bcf	3,6	;RP1=0, select bank1
  1851  013C' 0800'              	movf	(sprintf@fval+3)^(0+128),w
  1852  013D' 0086'              	movwf	___flneg@f1+3
  1853  013E' 0800'              	movf	(sprintf@fval+2)^(0+128),w
  1854  013F' 0085'              	movwf	___flneg@f1+2
  1855  0140' 0800'              	movf	(sprintf@fval+1)^(0+128),w
  1856  0141' 0084'              	movwf	___flneg@f1+1
  1857  0142' 0800'              	movf	sprintf@fval^(0+128),w
  1858  0143' 0083'              	movwf	___flneg@f1
  1859  0144' 120A' 118A' 2000' 120A' 118A' 	fcall	___flneg
  1860  0149' 0806'              	movf	?___flneg+3,w
  1861  014A' 1683               	bsf	3,5	;RP0=1, select bank1
  1862  014B' 1303               	bcf	3,6	;RP1=0, select bank1
  1863  014C' 0080'              	movwf	(sprintf@fval+3)^(0+128)
  1864  014D' 0805'              	movf	?___flneg+2,w
  1865  014E' 0080'              	movwf	(sprintf@fval+2)^(0+128)
  1866  014F' 0804'              	movf	?___flneg+1,w
  1867  0150' 0080'              	movwf	(sprintf@fval+1)^(0+128)
  1868  0151' 0803'              	movf	?___flneg,w
  1869  0152' 0080'              	movwf	sprintf@fval^(0+128)
  1870  0153'                    l4124:
  1871                           
  1872                           ;C:\Program Files\Microchip\xc8\v2.31\pic\sources\c90\common\doprnt.c: 859:     flag |= 
      +                          0x03;
  1873  0153' 3003               	movlw	3
  1874  0154' 0480'              	iorwf	sprintf@flag^(0+128),f
  1875  0155' 3000               	movlw	0
  1876  0156' 0480'              	iorwf	(sprintf@flag+1)^(0+128),f
  1877  0157'                    l4126:
  1878                           
  1879                           ;C:\Program Files\Microchip\xc8\v2.31\pic\sources\c90\common\doprnt.c: 861:    eexp = 0;
  1880  0157' 1683               	bsf	3,5	;RP0=1, select bank1
  1881  0158' 1303               	bcf	3,6	;RP1=0, select bank1
  1882  0159' 0180'              	clrf	sprintf@eexp^(0+128)
  1883  015A' 0180'              	clrf	(sprintf@eexp+1)^(0+128)
  1884  015B'                    l4128:
  1885                           
  1886                           ;C:\Program Files\Microchip\xc8\v2.31\pic\sources\c90\common\doprnt.c: 862:    if( fval!
      +                          =0) {
  1887  015B' 0800'              	movf	(sprintf@fval+3)^(0+128),w
  1888  015C' 1283               	bcf	3,5	;RP0=0, select bank0
  1889  015D' 1303               	bcf	3,6	;RP1=0, select bank0
  1890  015E' 0083'              	movwf	___fleq@ff1+3
  1891  015F' 1683               	bsf	3,5	;RP0=1, select bank1
  1892  0160' 1303               	bcf	3,6	;RP1=0, select bank1
  1893  0161' 0800'              	movf	(sprintf@fval+2)^(0+128),w
  1894  0162' 1283               	bcf	3,5	;RP0=0, select bank0
  1895  0163' 1303               	bcf	3,6	;RP1=0, select bank0
  1896  0164' 0082'              	movwf	___fleq@ff1+2
  1897  0165' 1683               	bsf	3,5	;RP0=1, select bank1
  1898  0166' 1303               	bcf	3,6	;RP1=0, select bank1
  1899  0167' 0800'              	movf	(sprintf@fval+1)^(0+128),w
  1900  0168' 1283               	bcf	3,5	;RP0=0, select bank0
  1901  0169' 1303               	bcf	3,6	;RP1=0, select bank0
  1902  016A' 0081'              	movwf	___fleq@ff1+1
  1903  016B' 1683               	bsf	3,5	;RP0=1, select bank1
  1904  016C' 1303               	bcf	3,6	;RP1=0, select bank1
  1905  016D' 0800'              	movf	sprintf@fval^(0+128),w
  1906  016E' 1283               	bcf	3,5	;RP0=0, select bank0
  1907  016F' 1303               	bcf	3,6	;RP1=0, select bank0
  1908  0170' 0080'              	movwf	___fleq@ff1
  1909  0171' 3000               	movlw	0
  1910  0172' 0087'              	movwf	___fleq@ff2+3
  1911  0173' 3000               	movlw	0
  1912  0174' 0086'              	movwf	___fleq@ff2+2
  1913  0175' 3000               	movlw	0
  1914  0176' 0085'              	movwf	___fleq@ff2+1
  1915  0177' 3000               	movlw	0
  1916  0178' 0084'              	movwf	___fleq@ff2
  1917  0179' 120A' 118A' 2000' 120A' 118A' 	fcall	___fleq
  1918  017E' 1803               	btfsc	3,0
  1919  017F' 2800'              	goto	u7211
  1920  0180' 2800'              	goto	u7210
  1921  0181'                    u7211:
  1922  0181' 2800'              	goto	l4154
  1923  0182'                    u7210:
  1924  0182'                    l4130:
  1925                           
  1926                           ;C:\Program Files\Microchip\xc8\v2.31\pic\sources\c90\common\doprnt.c: 863:     (void)(*
      +                          (&eexp) = (unsigned char)((*(unsigned long *)&fval >> 23) & 255) - 126);
  1927  0182' 1003               	clrc
  1928  0183' 1683               	bsf	3,5	;RP0=1, select bank1
  1929  0184' 1303               	bcf	3,6	;RP1=0, select bank1
  1930  0185' 0D00'              	rlf	(sprintf@fval+2)^(0+128),w
  1931  0186' 0D00'              	rlf	(sprintf@fval+3)^(0+128),w
  1932  0187' 3E82               	addlw	130
  1933  0188' 0080'              	movwf	sprintf@eexp^(0+128)
  1934  0189' 30FF               	movlw	255
  1935  018A' 1803               	skipnc
  1936  018B' 3000               	movlw	0
  1937  018C' 0081'              	movwf	(sprintf@eexp^(0+128)+1)
  1938  018D'                    l4132:
  1939                           
  1940                           ;C:\Program Files\Microchip\xc8\v2.31\pic\sources\c90\common\doprnt.c: 864:     eexp--;
  1941  018D' 30FF               	movlw	255
  1942  018E' 0780'              	addwf	sprintf@eexp^(0+128),f
  1943  018F' 1803               	skipnc
  1944  0190' 0A80'              	incf	(sprintf@eexp+1)^(0+128),f
  1945  0191' 30FF               	movlw	255
  1946  0192' 0780'              	addwf	(sprintf@eexp+1)^(0+128),f
  1947  0193'                    l4134:
  1948                           
  1949                           ;C:\Program Files\Microchip\xc8\v2.31\pic\sources\c90\common\doprnt.c: 865:     eexp *= 
      +                          3;
  1950  0193' 3003               	movlw	3
  1951  0194' 0083'              	movwf	___wmul@multiplier
  1952  0195' 3000               	movlw	0
  1953  0196' 0084'              	movwf	___wmul@multiplier+1
  1954  0197' 0800'              	movf	(sprintf@eexp+1)^(0+128),w
  1955  0198' 0086'              	movwf	___wmul@multiplicand+1
  1956  0199' 0800'              	movf	sprintf@eexp^(0+128),w
  1957  019A' 0085'              	movwf	___wmul@multiplicand
  1958  019B' 120A' 118A' 2000' 120A' 118A' 	fcall	___wmul
  1959  01A0' 0804'              	movf	?___wmul+1,w
  1960  01A1' 1683               	bsf	3,5	;RP0=1, select bank1
  1961  01A2' 1303               	bcf	3,6	;RP1=0, select bank1
  1962  01A3' 0080'              	movwf	(sprintf@eexp+1)^(0+128)
  1963  01A4' 0803'              	movf	?___wmul,w
  1964  01A5' 0080'              	movwf	sprintf@eexp^(0+128)
  1965  01A6'                    l4136:
  1966                           
  1967                           ;C:\Program Files\Microchip\xc8\v2.31\pic\sources\c90\common\doprnt.c: 866:     eexp /= 
      +                          10;
  1968  01A6' 300A               	movlw	10
  1969  01A7' 1283               	bcf	3,5	;RP0=0, select bank0
  1970  01A8' 1303               	bcf	3,6	;RP1=0, select bank0
  1971  01A9' 0080'              	movwf	___awdiv@divisor
  1972  01AA' 3000               	movlw	0
  1973  01AB' 0081'              	movwf	___awdiv@divisor+1
  1974  01AC' 1683               	bsf	3,5	;RP0=1, select bank1
  1975  01AD' 1303               	bcf	3,6	;RP1=0, select bank1
  1976  01AE' 0800'              	movf	(sprintf@eexp+1)^(0+128),w
  1977  01AF' 1283               	bcf	3,5	;RP0=0, select bank0
  1978  01B0' 1303               	bcf	3,6	;RP1=0, select bank0
  1979  01B1' 0083'              	movwf	___awdiv@dividend+1
  1980  01B2' 1683               	bsf	3,5	;RP0=1, select bank1
  1981  01B3' 1303               	bcf	3,6	;RP1=0, select bank1
  1982  01B4' 0800'              	movf	sprintf@eexp^(0+128),w
  1983  01B5' 1283               	bcf	3,5	;RP0=0, select bank0
  1984  01B6' 1303               	bcf	3,6	;RP1=0, select bank0
  1985  01B7' 0082'              	movwf	___awdiv@dividend
  1986  01B8' 120A' 118A' 2000' 120A' 118A' 	fcall	___awdiv
  1987  01BD' 1283               	bcf	3,5	;RP0=0, select bank0
  1988  01BE' 1303               	bcf	3,6	;RP1=0, select bank0
  1989  01BF' 0801'              	movf	?___awdiv+1,w
  1990  01C0' 1683               	bsf	3,5	;RP0=1, select bank1
  1991  01C1' 1303               	bcf	3,6	;RP1=0, select bank1
  1992  01C2' 0080'              	movwf	(sprintf@eexp+1)^(0+128)
  1993  01C3' 1283               	bcf	3,5	;RP0=0, select bank0
  1994  01C4' 1303               	bcf	3,6	;RP1=0, select bank0
  1995  01C5' 0800'              	movf	?___awdiv,w
  1996  01C6' 1683               	bsf	3,5	;RP0=1, select bank1
  1997  01C7' 1303               	bcf	3,6	;RP1=0, select bank1
  1998  01C8' 0080'              	movwf	sprintf@eexp^(0+128)
  1999  01C9'                    l4138:
  2000                           
  2001                           ;C:\Program Files\Microchip\xc8\v2.31\pic\sources\c90\common\doprnt.c: 867:     if(eexp 
      +                          < 0)
  2002  01C9' 1F80'              	btfss	(sprintf@eexp+1)^(0+128),7
  2003  01CA' 2800'              	goto	u7221
  2004  01CB' 2800'              	goto	u7220
  2005  01CC'                    u7221:
  2006  01CC' 2800'              	goto	l4142
  2007  01CD'                    u7220:
  2008  01CD'                    l4140:
  2009                           
  2010                           ;C:\Program Files\Microchip\xc8\v2.31\pic\sources\c90\common\doprnt.c: 868:      eexp--;
  2011  01CD' 30FF               	movlw	255
  2012  01CE' 0780'              	addwf	sprintf@eexp^(0+128),f
  2013  01CF' 1803               	skipnc
  2014  01D0' 0A80'              	incf	(sprintf@eexp+1)^(0+128),f
  2015  01D1' 30FF               	movlw	255
  2016  01D2' 0780'              	addwf	(sprintf@eexp+1)^(0+128),f
  2017  01D3'                    l4142:
  2018                           
  2019                           ;C:\Program Files\Microchip\xc8\v2.31\pic\sources\c90\common\doprnt.c: 872:     tmpval.i
      +                          nteg = scale(-eexp);
  2020  01D3' 0300'              	decf	sprintf@eexp^(0+128),w
  2021  01D4' 3AFF               	xorlw	255
  2022  01D5' 120A' 118A' 2000' 120A' 118A' 	fcall	_scale
  2023  01DA' 1283               	bcf	3,5	;RP0=0, select bank0
  2024  01DB' 1303               	bcf	3,6	;RP1=0, select bank0
  2025  01DC' 0827'              	movf	?_scale+3,w
  2026  01DD' 1683               	bsf	3,5	;RP0=1, select bank1
  2027  01DE' 1303               	bcf	3,6	;RP1=0, select bank1
  2028  01DF' 0080'              	movwf	(sprintf@tmpval+3)^(0+128)
  2029  01E0' 1283               	bcf	3,5	;RP0=0, select bank0
  2030  01E1' 1303               	bcf	3,6	;RP1=0, select bank0
  2031  01E2' 0826'              	movf	?_scale+2,w
  2032  01E3' 1683               	bsf	3,5	;RP0=1, select bank1
  2033  01E4' 1303               	bcf	3,6	;RP1=0, select bank1
  2034  01E5' 0080'              	movwf	(sprintf@tmpval+2)^(0+128)
  2035  01E6' 1283               	bcf	3,5	;RP0=0, select bank0
  2036  01E7' 1303               	bcf	3,6	;RP1=0, select bank0
  2037  01E8' 0825'              	movf	?_scale+1,w
  2038  01E9' 1683               	bsf	3,5	;RP0=1, select bank1
  2039  01EA' 1303               	bcf	3,6	;RP1=0, select bank1
  2040  01EB' 0080'              	movwf	(sprintf@tmpval+1)^(0+128)
  2041  01EC' 1283               	bcf	3,5	;RP0=0, select bank0
  2042  01ED' 1303               	bcf	3,6	;RP1=0, select bank0
  2043  01EE' 0824'              	movf	?_scale,w
  2044  01EF' 1683               	bsf	3,5	;RP0=1, select bank1
  2045  01F0' 1303               	bcf	3,6	;RP1=0, select bank1
  2046  01F1' 0080'              	movwf	sprintf@tmpval^(0+128)
  2047  01F2'                    l4144:
  2048                           
  2049                           ;C:\Program Files\Microchip\xc8\v2.31\pic\sources\c90\common\doprnt.c: 873:     tmpval.i
      +                          nteg *= fval;
  2050  01F2' 0800'              	movf	(sprintf@fval+3)^(0+128),w
  2051  01F3' 1283               	bcf	3,5	;RP0=0, select bank0
  2052  01F4' 1303               	bcf	3,6	;RP1=0, select bank0
  2053  01F5' 008D'              	movwf	___flmul@b+3
  2054  01F6' 1683               	bsf	3,5	;RP0=1, select bank1
  2055  01F7' 1303               	bcf	3,6	;RP1=0, select bank1
  2056  01F8' 0800'              	movf	(sprintf@fval+2)^(0+128),w
  2057  01F9' 1283               	bcf	3,5	;RP0=0, select bank0
  2058  01FA' 1303               	bcf	3,6	;RP1=0, select bank0
  2059  01FB' 008C'              	movwf	___flmul@b+2
  2060  01FC' 1683               	bsf	3,5	;RP0=1, select bank1
  2061  01FD' 1303               	bcf	3,6	;RP1=0, select bank1
  2062  01FE' 0800'              	movf	(sprintf@fval+1)^(0+128),w
  2063  01FF' 1283               	bcf	3,5	;RP0=0, select bank0
  2064  0200' 1303               	bcf	3,6	;RP1=0, select bank0
  2065  0201' 008B'              	movwf	___flmul@b+1
  2066  0202' 1683               	bsf	3,5	;RP0=1, select bank1
  2067  0203' 1303               	bcf	3,6	;RP1=0, select bank1
  2068  0204' 0800'              	movf	sprintf@fval^(0+128),w
  2069  0205' 1283               	bcf	3,5	;RP0=0, select bank0
  2070  0206' 1303               	bcf	3,6	;RP1=0, select bank0
  2071  0207' 008A'              	movwf	___flmul@b
  2072  0208' 1683               	bsf	3,5	;RP0=1, select bank1
  2073  0209' 1303               	bcf	3,6	;RP1=0, select bank1
  2074  020A' 0800'              	movf	(sprintf@tmpval+3)^(0+128),w
  2075  020B' 1283               	bcf	3,5	;RP0=0, select bank0
  2076  020C' 1303               	bcf	3,6	;RP1=0, select bank0
  2077  020D' 0091'              	movwf	___flmul@a+3
  2078  020E' 1683               	bsf	3,5	;RP0=1, select bank1
  2079  020F' 1303               	bcf	3,6	;RP1=0, select bank1
  2080  0210' 0800'              	movf	(sprintf@tmpval+2)^(0+128),w
  2081  0211' 1283               	bcf	3,5	;RP0=0, select bank0
  2082  0212' 1303               	bcf	3,6	;RP1=0, select bank0
  2083  0213' 0090'              	movwf	___flmul@a+2
  2084  0214' 1683               	bsf	3,5	;RP0=1, select bank1
  2085  0215' 1303               	bcf	3,6	;RP1=0, select bank1
  2086  0216' 0800'              	movf	(sprintf@tmpval+1)^(0+128),w
  2087  0217' 1283               	bcf	3,5	;RP0=0, select bank0
  2088  0218' 1303               	bcf	3,6	;RP1=0, select bank0
  2089  0219' 008F'              	movwf	___flmul@a+1
  2090  021A' 1683               	bsf	3,5	;RP0=1, select bank1
  2091  021B' 1303               	bcf	3,6	;RP1=0, select bank1
  2092  021C' 0800'              	movf	sprintf@tmpval^(0+128),w
  2093  021D' 1283               	bcf	3,5	;RP0=0, select bank0
  2094  021E' 1303               	bcf	3,6	;RP1=0, select bank0
  2095  021F' 008E'              	movwf	___flmul@a
  2096  0220' 120A' 118A' 2000' 120A' 118A' 	fcall	___flmul
  2097  0225' 1283               	bcf	3,5	;RP0=0, select bank0
  2098  0226' 1303               	bcf	3,6	;RP1=0, select bank0
  2099  0227' 080D'              	movf	?___flmul+3,w
  2100  0228' 1683               	bsf	3,5	;RP0=1, select bank1
  2101  0229' 1303               	bcf	3,6	;RP1=0, select bank1
  2102  022A' 0080'              	movwf	(sprintf@tmpval+3)^(0+128)
  2103  022B' 1283               	bcf	3,5	;RP0=0, select bank0
  2104  022C' 1303               	bcf	3,6	;RP1=0, select bank0
  2105  022D' 080C'              	movf	?___flmul+2,w
  2106  022E' 1683               	bsf	3,5	;RP0=1, select bank1
  2107  022F' 1303               	bcf	3,6	;RP1=0, select bank1
  2108  0230' 0080'              	movwf	(sprintf@tmpval+2)^(0+128)
  2109  0231' 1283               	bcf	3,5	;RP0=0, select bank0
  2110  0232' 1303               	bcf	3,6	;RP1=0, select bank0
  2111  0233' 080B'              	movf	?___flmul+1,w
  2112  0234' 1683               	bsf	3,5	;RP0=1, select bank1
  2113  0235' 1303               	bcf	3,6	;RP1=0, select bank1
  2114  0236' 0080'              	movwf	(sprintf@tmpval+1)^(0+128)
  2115  0237' 1283               	bcf	3,5	;RP0=0, select bank0
  2116  0238' 1303               	bcf	3,6	;RP1=0, select bank0
  2117  0239' 080A'              	movf	?___flmul,w
  2118  023A' 1683               	bsf	3,5	;RP0=1, select bank1
  2119  023B' 1303               	bcf	3,6	;RP1=0, select bank1
  2120  023C' 0080'              	movwf	sprintf@tmpval^(0+128)
  2121  023D'                    l4146:
  2122                           
  2123                           ;C:\Program Files\Microchip\xc8\v2.31\pic\sources\c90\common\doprnt.c: 874:     if(tmpva
      +                          l.integ < 1.0)
  2124  023D' 0800'              	movf	(sprintf@tmpval+3)^(0+128),w
  2125  023E' 1283               	bcf	3,5	;RP0=0, select bank0
  2126  023F' 1303               	bcf	3,6	;RP1=0, select bank0
  2127  0240' 0083'              	movwf	___flge@ff1+3
  2128  0241' 1683               	bsf	3,5	;RP0=1, select bank1
  2129  0242' 1303               	bcf	3,6	;RP1=0, select bank1
  2130  0243' 0800'              	movf	(sprintf@tmpval+2)^(0+128),w
  2131  0244' 1283               	bcf	3,5	;RP0=0, select bank0
  2132  0245' 1303               	bcf	3,6	;RP1=0, select bank0
  2133  0246' 0082'              	movwf	___flge@ff1+2
  2134  0247' 1683               	bsf	3,5	;RP0=1, select bank1
  2135  0248' 1303               	bcf	3,6	;RP1=0, select bank1
  2136  0249' 0800'              	movf	(sprintf@tmpval+1)^(0+128),w
  2137  024A' 1283               	bcf	3,5	;RP0=0, select bank0
  2138  024B' 1303               	bcf	3,6	;RP1=0, select bank0
  2139  024C' 0081'              	movwf	___flge@ff1+1
  2140  024D' 1683               	bsf	3,5	;RP0=1, select bank1
  2141  024E' 1303               	bcf	3,6	;RP1=0, select bank1
  2142  024F' 0800'              	movf	sprintf@tmpval^(0+128),w
  2143  0250' 1283               	bcf	3,5	;RP0=0, select bank0
  2144  0251' 1303               	bcf	3,6	;RP1=0, select bank0
  2145  0252' 0080'              	movwf	___flge@ff1
  2146  0253' 303F               	movlw	63
  2147  0254' 0087'              	movwf	___flge@ff2+3
  2148  0255' 3080               	movlw	128
  2149  0256' 0086'              	movwf	___flge@ff2+2
  2150  0257' 3000               	movlw	0
  2151  0258' 0085'              	movwf	___flge@ff2+1
  2152  0259' 3000               	movlw	0
  2153  025A' 0084'              	movwf	___flge@ff2
  2154  025B' 120A' 118A' 2000' 120A' 118A' 	fcall	___flge
  2155  0260' 1803               	btfsc	3,0
  2156  0261' 2800'              	goto	u7231
  2157  0262' 2800'              	goto	u7230
  2158  0263'                    u7231:
  2159  0263' 2800'              	goto	l4150
  2160  0264'                    u7230:
  2161  0264'                    l4148:
  2162                           
  2163                           ;C:\Program Files\Microchip\xc8\v2.31\pic\sources\c90\common\doprnt.c: 875:      eexp--;
  2164  0264' 30FF               	movlw	255
  2165  0265' 1683               	bsf	3,5	;RP0=1, select bank1
  2166  0266' 1303               	bcf	3,6	;RP1=0, select bank1
  2167  0267' 0780'              	addwf	sprintf@eexp^(0+128),f
  2168  0268' 1803               	skipnc
  2169  0269' 0A80'              	incf	(sprintf@eexp+1)^(0+128),f
  2170  026A' 30FF               	movlw	255
  2171  026B' 0780'              	addwf	(sprintf@eexp+1)^(0+128),f
  2172  026C' 2800'              	goto	l4154
  2173  026D'                    l4150:
  2174  026D' 1683               	bsf	3,5	;RP0=1, select bank1
  2175  026E' 1303               	bcf	3,6	;RP1=0, select bank1
  2176  026F' 0800'              	movf	(sprintf@tmpval+3)^(0+128),w
  2177  0270' 1283               	bcf	3,5	;RP0=0, select bank0
  2178  0271' 1303               	bcf	3,6	;RP1=0, select bank0
  2179  0272' 0083'              	movwf	___flge@ff1+3
  2180  0273' 1683               	bsf	3,5	;RP0=1, select bank1
  2181  0274' 1303               	bcf	3,6	;RP1=0, select bank1
  2182  0275' 0800'              	movf	(sprintf@tmpval+2)^(0+128),w
  2183  0276' 1283               	bcf	3,5	;RP0=0, select bank0
  2184  0277' 1303               	bcf	3,6	;RP1=0, select bank0
  2185  0278' 0082'              	movwf	___flge@ff1+2
  2186  0279' 1683               	bsf	3,5	;RP0=1, select bank1
  2187  027A' 1303               	bcf	3,6	;RP1=0, select bank1
  2188  027B' 0800'              	movf	(sprintf@tmpval+1)^(0+128),w
  2189  027C' 1283               	bcf	3,5	;RP0=0, select bank0
  2190  027D' 1303               	bcf	3,6	;RP1=0, select bank0
  2191  027E' 0081'              	movwf	___flge@ff1+1
  2192  027F' 1683               	bsf	3,5	;RP0=1, select bank1
  2193  0280' 1303               	bcf	3,6	;RP1=0, select bank1
  2194  0281' 0800'              	movf	sprintf@tmpval^(0+128),w
  2195  0282' 1283               	bcf	3,5	;RP0=0, select bank0
  2196  0283' 1303               	bcf	3,6	;RP1=0, select bank0
  2197  0284' 0080'              	movwf	___flge@ff1
  2198  0285' 3041               	movlw	65
  2199  0286' 0087'              	movwf	___flge@ff2+3
  2200  0287' 3020               	movlw	32
  2201  0288' 0086'              	movwf	___flge@ff2+2
  2202  0289' 3000               	movlw	0
  2203  028A' 0085'              	movwf	___flge@ff2+1
  2204  028B' 3000               	movlw	0
  2205  028C' 0084'              	movwf	___flge@ff2
  2206  028D' 120A' 118A' 2000' 120A' 118A' 	fcall	___flge
  2207  0292' 1C03               	btfss	3,0
  2208  0293' 2800'              	goto	u7241
  2209  0294' 2800'              	goto	u7240
  2210  0295'                    u7241:
  2211  0295' 2800'              	goto	l4154
  2212  0296'                    u7240:
  2213  0296'                    l4152:
  2214                           
  2215                           ;C:\Program Files\Microchip\xc8\v2.31\pic\sources\c90\common\doprnt.c: 877:      eexp++;
  2216  0296' 3001               	movlw	1
  2217  0297' 1683               	bsf	3,5	;RP0=1, select bank1
  2218  0298' 1303               	bcf	3,6	;RP1=0, select bank1
  2219  0299' 0780'              	addwf	sprintf@eexp^(0+128),f
  2220  029A' 1803               	skipnc
  2221  029B' 0A80'              	incf	(sprintf@eexp+1)^(0+128),f
  2222  029C' 3000               	movlw	0
  2223  029D' 0780'              	addwf	(sprintf@eexp+1)^(0+128),f
  2224  029E'                    l4154:
  2225                           
  2226                           ;C:\Program Files\Microchip\xc8\v2.31\pic\sources\c90\common\doprnt.c: 1138:      if(pre
      +                          c <= 12)
  2227  029E' 1683               	bsf	3,5	;RP0=1, select bank1
  2228  029F' 1303               	bcf	3,6	;RP1=0, select bank1
  2229  02A0' 0800'              	movf	(sprintf@prec+1)^(0+128),w
  2230  02A1' 3A80               	xorlw	128
  2231  02A2' 00FF               	movwf	btemp+1
  2232  02A3' 3080               	movlw	128
  2233  02A4' 027F               	subwf	btemp+1,w
  2234  02A5' 1D03               	skipz
  2235  02A6' 2800'              	goto	u7255
  2236  02A7' 300D               	movlw	13
  2237  02A8' 0200'              	subwf	sprintf@prec^(0+128),w
  2238  02A9'                    u7255:
  2239  02A9' 1803               	skipnc
  2240  02AA' 2800'              	goto	u7251
  2241  02AB' 2800'              	goto	u7250
  2242  02AC'                    u7251:
  2243  02AC' 2800'              	goto	l4158
  2244  02AD'                    u7250:
  2245  02AD'                    l4156:
  2246                           
  2247                           ;C:\Program Files\Microchip\xc8\v2.31\pic\sources\c90\common\doprnt.c: 1139:       fval 
      +                          += fround((unsigned int)prec);
  2248  02AD' 1683               	bsf	3,5	;RP0=1, select bank1
  2249  02AE' 1303               	bcf	3,6	;RP1=0, select bank1
  2250  02AF' 0800'              	movf	sprintf@prec^(0+128),w
  2251  02B0' 120A' 118A' 2000' 120A' 118A' 	fcall	_fround
  2252  02B5' 1283               	bcf	3,5	;RP0=0, select bank0
  2253  02B6' 1303               	bcf	3,6	;RP1=0, select bank0
  2254  02B7' 0827'              	movf	?_fround+3,w
  2255  02B8' 00BB'              	movwf	___fladd@b+3
  2256  02B9' 0826'              	movf	?_fround+2,w
  2257  02BA' 00BA'              	movwf	___fladd@b+2
  2258  02BB' 0825'              	movf	?_fround+1,w
  2259  02BC' 00B9'              	movwf	___fladd@b+1
  2260  02BD' 0824'              	movf	?_fround,w
  2261  02BE' 00B8'              	movwf	___fladd@b
  2262  02BF' 1683               	bsf	3,5	;RP0=1, select bank1
  2263  02C0' 1303               	bcf	3,6	;RP1=0, select bank1
  2264  02C1' 0800'              	movf	(sprintf@fval+3)^(0+128),w
  2265  02C2' 1283               	bcf	3,5	;RP0=0, select bank0
  2266  02C3' 1303               	bcf	3,6	;RP1=0, select bank0
  2267  02C4' 00BF'              	movwf	___fladd@a+3
  2268  02C5' 1683               	bsf	3,5	;RP0=1, select bank1
  2269  02C6' 1303               	bcf	3,6	;RP1=0, select bank1
  2270  02C7' 0800'              	movf	(sprintf@fval+2)^(0+128),w
  2271  02C8' 1283               	bcf	3,5	;RP0=0, select bank0
  2272  02C9' 1303               	bcf	3,6	;RP1=0, select bank0
  2273  02CA' 00BE'              	movwf	___fladd@a+2
  2274  02CB' 1683               	bsf	3,5	;RP0=1, select bank1
  2275  02CC' 1303               	bcf	3,6	;RP1=0, select bank1
  2276  02CD' 0800'              	movf	(sprintf@fval+1)^(0+128),w
  2277  02CE' 1283               	bcf	3,5	;RP0=0, select bank0
  2278  02CF' 1303               	bcf	3,6	;RP1=0, select bank0
  2279  02D0' 00BD'              	movwf	___fladd@a+1
  2280  02D1' 1683               	bsf	3,5	;RP0=1, select bank1
  2281  02D2' 1303               	bcf	3,6	;RP1=0, select bank1
  2282  02D3' 0800'              	movf	sprintf@fval^(0+128),w
  2283  02D4' 1283               	bcf	3,5	;RP0=0, select bank0
  2284  02D5' 1303               	bcf	3,6	;RP1=0, select bank0
  2285  02D6' 00BC'              	movwf	___fladd@a
  2286  02D7' 120A' 118A' 2000' 120A' 118A' 	fcall	___fladd
  2287  02DC' 1283               	bcf	3,5	;RP0=0, select bank0
  2288  02DD' 1303               	bcf	3,6	;RP1=0, select bank0
  2289  02DE' 083B'              	movf	?___fladd+3,w
  2290  02DF' 1683               	bsf	3,5	;RP0=1, select bank1
  2291  02E0' 1303               	bcf	3,6	;RP1=0, select bank1
  2292  02E1' 0080'              	movwf	(sprintf@fval+3)^(0+128)
  2293  02E2' 1283               	bcf	3,5	;RP0=0, select bank0
  2294  02E3' 1303               	bcf	3,6	;RP1=0, select bank0
  2295  02E4' 083A'              	movf	?___fladd+2,w
  2296  02E5' 1683               	bsf	3,5	;RP0=1, select bank1
  2297  02E6' 1303               	bcf	3,6	;RP1=0, select bank1
  2298  02E7' 0080'              	movwf	(sprintf@fval+2)^(0+128)
  2299  02E8' 1283               	bcf	3,5	;RP0=0, select bank0
  2300  02E9' 1303               	bcf	3,6	;RP1=0, select bank0
  2301  02EA' 0839'              	movf	?___fladd+1,w
  2302  02EB' 1683               	bsf	3,5	;RP0=1, select bank1
  2303  02EC' 1303               	bcf	3,6	;RP1=0, select bank1
  2304  02ED' 0080'              	movwf	(sprintf@fval+1)^(0+128)
  2305  02EE' 1283               	bcf	3,5	;RP0=0, select bank0
  2306  02EF' 1303               	bcf	3,6	;RP1=0, select bank0
  2307  02F0' 0838'              	movf	?___fladd,w
  2308  02F1' 1683               	bsf	3,5	;RP0=1, select bank1
  2309  02F2' 1303               	bcf	3,6	;RP1=0, select bank1
  2310  02F3' 0080'              	movwf	sprintf@fval^(0+128)
  2311  02F4'                    l4158:
  2312                           
  2313                           ;C:\Program Files\Microchip\xc8\v2.31\pic\sources\c90\common\doprnt.c: 1142:     if((eex
      +                          p > 9)||(fval != 0 && (unsigned long)fval == 0 && eexp > 1)) {
  2314  02F4' 1683               	bsf	3,5	;RP0=1, select bank1
  2315  02F5' 1303               	bcf	3,6	;RP1=0, select bank1
  2316  02F6' 0800'              	movf	(sprintf@eexp+1)^(0+128),w
  2317  02F7' 3A80               	xorlw	128
  2318  02F8' 00FF               	movwf	btemp+1
  2319  02F9' 3080               	movlw	128
  2320  02FA' 027F               	subwf	btemp+1,w
  2321  02FB' 1D03               	skipz
  2322  02FC' 2800'              	goto	u7265
  2323  02FD' 300A               	movlw	10
  2324  02FE' 0200'              	subwf	sprintf@eexp^(0+128),w
  2325  02FF'                    u7265:
  2326  02FF' 1803               	skipnc
  2327  0300' 2800'              	goto	u7261
  2328  0301' 120A' 118A' 2800'  	goto	u7260
  2329  0304'                    u7261:
  2330  0304' 120A' 118A' 2800'  	goto	l4166
  2331  0307'                    L3:
  2332  0307'                    L2:
  2333  0307' 120A' 118A' 2800'  	ljmp	l4348
  2334                           
  2335                           	psect	text2
  2336  0000'                    __ptext2:	
  2337 ;; *************** function _scale *****************
  2338 ;; Defined at:
  2339 ;;		line 433 in file "C:\Program Files\Microchip\xc8\v2.31\pic\sources\c90\common\doprnt.c"
  2340 ;; Parameters:    Size  Location     Type
  2341 ;;  scl             1    wreg     char 
  2342 ;; Auto vars:     Size  Location     Type
  2343 ;;  scl             1   54[BANK0 ] char 
  2344 ;; Return value:  Size  Location     Type
  2345 ;;                  4   36[BANK0 ] char 
  2346 ;; Registers used:
  2347 ;;		wreg, fsr0l, fsr0h, status,2, status,0, btemp+1, pclath, cstack
  2348 ;; Tracked objects:
  2349 ;;		On entry : 0/0
  2350 ;;		On exit  : 0/0
  2351 ;;		Unchanged: 0/0
  2352 ;; Data sizes:     COMMON   BANK0   BANK1   BANK3   BANK2
  2353 ;;      Params:         0       4       0       0       0
  2354 ;;      Locals:         0       5       0       0       0
  2355 ;;      Temps:          0      10       0       0       0
  2356 ;;      Totals:         0      19       0       0       0
  2357 ;;Total ram usage:       19 bytes
  2358 ;; Hardware stack levels used:    1
  2359 ;; Hardware stack levels required when called:    3
  2360 ;; This function calls:
  2361 ;;		___awdiv
  2362 ;;		___awmod
  2363 ;;		___flmul
  2364 ;; This function is called by:
  2365 ;;		_sprintf
  2366 ;; This function uses a non-reentrant model
  2367 ;;
  2368                           
  2369                           
  2370                           ;psect for function _scale
  2371  0000'                    _scale:
  2372                           
  2373                           ;incstack = 0
  2374                           ; Regs used in _scale: [wreg-fsr0h+status,2+status,0+btemp+1+pclath+cstack]
  2375                           ;scale@scl stored from wreg
  2376  0000' 1283               	bcf	3,5	;RP0=0, select bank0
  2377  0001' 1303               	bcf	3,6	;RP1=0, select bank0
  2378  0002' 00B6'              	movwf	scale@scl
  2379  0003'                    l3780:
  2380                           
  2381                           ;C:\Program Files\Microchip\xc8\v2.31\pic\sources\c90\common\doprnt.c: 433: scale(signed
      +                           char scl);C:\Program Files\Microchip\xc8\v2.31\pic\sources\c90\common\doprnt.c: 434: {;
      +                          C:\Program Files\Microchip\xc8\v2.31\pic\sources\c90\common\doprnt.c: 436:  if(scl < 0) 
      +                          {
  2382  0003' 1FB6'              	btfss	scale@scl,7
  2383  0004' 2800'              	goto	u6311
  2384  0005' 2800'              	goto	u6310
  2385  0006'                    u6311:
  2386  0006' 2800'              	goto	l3802
  2387  0007'                    u6310:
  2388  0007'                    l3782:
  2389                           
  2390                           ;C:\Program Files\Microchip\xc8\v2.31\pic\sources\c90\common\doprnt.c: 437:   scl = -scl
      +                          ;
  2391  0007' 09B6'              	comf	scale@scl,f
  2392  0008' 0AB6'              	incf	scale@scl,f
  2393  0009'                    l3784:
  2394                           
  2395                           ;C:\Program Files\Microchip\xc8\v2.31\pic\sources\c90\common\doprnt.c: 438:   if(scl>=11
      +                          0)
  2396  0009' 0836'              	movf	scale@scl,w
  2397  000A' 3A80               	xorlw	128
  2398  000B' 3E12               	addlw	-238
  2399  000C' 1C03               	skipc
  2400  000D' 2800'              	goto	u6321
  2401  000E' 2800'              	goto	u6320
  2402  000F'                    u6321:
  2403  000F' 2800'              	goto	l3792
  2404  0010'                    u6320:
  2405  0010'                    l3786:
  2406                           
  2407                           ;C:\Program Files\Microchip\xc8\v2.31\pic\sources\c90\common\doprnt.c: 439:    return _n
      +                          powers_[(unsigned char)(scl/100+18)] * _npowers_[(unsigned char)((scl%100)/10+9)] * _npo
      +                          wers_[(unsigned char)(scl%10)];
  2408  0010' 300A               	movlw	10
  2409  0011' 0080'              	movwf	___awdiv@divisor
  2410  0012' 3000               	movlw	0
  2411  0013' 0081'              	movwf	___awdiv@divisor+1
  2412  0014' 0836'              	movf	scale@scl,w
  2413  0015' 0085'              	movwf	___awmod@dividend
  2414  0016' 0186'              	clrf	___awmod@dividend+1
  2415  0017' 1B85'              	btfsc	___awmod@dividend,7
  2416  0018' 0386'              	decf	___awmod@dividend+1,f
  2417  0019' 3064               	movlw	100
  2418  001A' 0083'              	movwf	___awmod@divisor
  2419  001B' 3000               	movlw	0
  2420  001C' 0084'              	movwf	___awmod@divisor+1
  2421  001D' 120A' 118A' 2000' 120A' 118A' 	fcall	___awmod
  2422  0022' 0804'              	movf	?___awmod+1,w
  2423  0023' 1283               	bcf	3,5	;RP0=0, select bank0
  2424  0024' 1303               	bcf	3,6	;RP1=0, select bank0
  2425  0025' 0083'              	movwf	___awdiv@dividend+1
  2426  0026' 0803'              	movf	?___awmod,w
  2427  0027' 0082'              	movwf	___awdiv@dividend
  2428  0028' 120A' 118A' 2000' 120A' 118A' 	fcall	___awdiv
  2429  002D' 1283               	bcf	3,5	;RP0=0, select bank0
  2430  002E' 1303               	bcf	3,6	;RP1=0, select bank0
  2431  002F' 0800'              	movf	?___awdiv,w
  2432  0030' 00A8'              	movwf	??_scale
  2433  0031' 3001               	movlw	1
  2434  0032'                    u6335:
  2435  0032' 1003               	clrc
  2436  0033' 0DA8'              	rlf	??_scale,f
  2437  0034' 3EFF               	addlw	-1
  2438  0035' 1D03               	skipz
  2439  0036' 2800'              	goto	u6335
  2440  0037' 1003               	clrc
  2441  0038' 0D28'              	rlf	??_scale,w
  2442  0039' 3E59               	addlw	low (((__npowers_-__stringbase)| (0+32768)+36))
  2443  003A' 0084               	movwf	4
  2444  003B' 120A' 118A' 2000' 120A' 118A' 	fcall	stringdir
  2445  0040' 00A9'              	movwf	??_scale+1
  2446  0041' 120A' 118A' 2000' 120A' 118A' 	fcall	stringdir
  2447  0046' 00AA'              	movwf	??_scale+2
  2448  0047' 120A' 118A' 2000' 120A' 118A' 	fcall	stringdir
  2449  004C' 00AB'              	movwf	??_scale+3
  2450  004D' 120A' 118A' 2000' 120A' 118A' 	fcall	stringdir
  2451  0052' 00AC'              	movwf	??_scale+4
  2452  0053' 082C'              	movf	??_scale+4,w
  2453  0054' 008D'              	movwf	___flmul@b+3
  2454  0055' 082B'              	movf	??_scale+3,w
  2455  0056' 008C'              	movwf	___flmul@b+2
  2456  0057' 082A'              	movf	??_scale+2,w
  2457  0058' 008B'              	movwf	___flmul@b+1
  2458  0059' 0829'              	movf	??_scale+1,w
  2459  005A' 008A'              	movwf	___flmul@b
  2460  005B' 3064               	movlw	100
  2461  005C' 0080'              	movwf	___awdiv@divisor
  2462  005D' 3000               	movlw	0
  2463  005E' 0081'              	movwf	___awdiv@divisor+1
  2464  005F' 0836'              	movf	scale@scl,w
  2465  0060' 0082'              	movwf	___awdiv@dividend
  2466  0061' 0183'              	clrf	___awdiv@dividend+1
  2467  0062' 1B82'              	btfsc	___awdiv@dividend,7
  2468  0063' 0383'              	decf	___awdiv@dividend+1,f
  2469  0064' 120A' 118A' 2000' 120A' 118A' 	fcall	___awdiv
  2470  0069' 1283               	bcf	3,5	;RP0=0, select bank0
  2471  006A' 1303               	bcf	3,6	;RP1=0, select bank0
  2472  006B' 0800'              	movf	?___awdiv,w
  2473  006C' 00AD'              	movwf	??_scale+5
  2474  006D' 3001               	movlw	1
  2475  006E'                    u6345:
  2476  006E' 1003               	clrc
  2477  006F' 0DAD'              	rlf	??_scale+5,f
  2478  0070' 3EFF               	addlw	-1
  2479  0071' 1D03               	skipz
  2480  0072' 2800'              	goto	u6345
  2481  0073' 1003               	clrc
  2482  0074' 0D2D'              	rlf	??_scale+5,w
  2483  0075' 3E7D               	addlw	low (((__npowers_-__stringbase)| (0+32768)+72))
  2484  0076' 0084               	movwf	4
  2485  0077' 120A' 118A' 2000' 120A' 118A' 	fcall	stringdir
  2486  007C' 00AE'              	movwf	??_scale+6
  2487  007D' 120A' 118A' 2000' 120A' 118A' 	fcall	stringdir
  2488  0082' 00AF'              	movwf	??_scale+7
  2489  0083' 120A' 118A' 2000' 120A' 118A' 	fcall	stringdir
  2490  0088' 00B0'              	movwf	??_scale+8
  2491  0089' 120A' 118A' 2000' 120A' 118A' 	fcall	stringdir
  2492  008E' 00B1'              	movwf	??_scale+9
  2493  008F' 0831'              	movf	??_scale+9,w
  2494  0090' 0091'              	movwf	___flmul@a+3
  2495  0091' 0830'              	movf	??_scale+8,w
  2496  0092' 0090'              	movwf	___flmul@a+2
  2497  0093' 082F'              	movf	??_scale+7,w
  2498  0094' 008F'              	movwf	___flmul@a+1
  2499  0095' 082E'              	movf	??_scale+6,w
  2500  0096' 008E'              	movwf	___flmul@a
  2501  0097' 120A' 118A' 2000' 120A' 118A' 	fcall	___flmul
  2502  009C' 1283               	bcf	3,5	;RP0=0, select bank0
  2503  009D' 1303               	bcf	3,6	;RP1=0, select bank0
  2504  009E' 080D'              	movf	?___flmul+3,w
  2505  009F' 00B5'              	movwf	_scale$898+3
  2506  00A0' 080C'              	movf	?___flmul+2,w
  2507  00A1' 00B4'              	movwf	_scale$898+2
  2508  00A2' 080B'              	movf	?___flmul+1,w
  2509  00A3' 00B3'              	movwf	_scale$898+1
  2510  00A4' 080A'              	movf	?___flmul,w
  2511  00A5' 00B2'              	movwf	_scale$898
  2512                           
  2513                           ;C:\Program Files\Microchip\xc8\v2.31\pic\sources\c90\common\doprnt.c: 439:    return _n
      +                          powers_[(unsigned char)(scl/100+18)] * _npowers_[(unsigned char)((scl%100)/10+9)] * _npo
      +                          wers_[(unsigned char)(scl%10)];
  2514  00A6' 300A               	movlw	10
  2515  00A7' 0083'              	movwf	___awmod@divisor
  2516  00A8' 3000               	movlw	0
  2517  00A9' 0084'              	movwf	___awmod@divisor+1
  2518  00AA' 0836'              	movf	scale@scl,w
  2519  00AB' 0085'              	movwf	___awmod@dividend
  2520  00AC' 0186'              	clrf	___awmod@dividend+1
  2521  00AD' 1B85'              	btfsc	___awmod@dividend,7
  2522  00AE' 0386'              	decf	___awmod@dividend+1,f
  2523  00AF' 120A' 118A' 2000' 120A' 118A' 	fcall	___awmod
  2524  00B4' 0803'              	movf	?___awmod,w
  2525  00B5' 1283               	bcf	3,5	;RP0=0, select bank0
  2526  00B6' 1303               	bcf	3,6	;RP1=0, select bank0
  2527  00B7' 00A8'              	movwf	??_scale
  2528  00B8' 3001               	movlw	1
  2529  00B9'                    u6355:
  2530  00B9' 1003               	clrc
  2531  00BA' 0DA8'              	rlf	??_scale,f
  2532  00BB' 3EFF               	addlw	-1
  2533  00BC' 1D03               	skipz
  2534  00BD' 2800'              	goto	u6355
  2535  00BE' 1003               	clrc
  2536  00BF' 0D28'              	rlf	??_scale,w
  2537  00C0' 3E35               	addlw	low ((__npowers_-__stringbase)| (0+32768))
  2538  00C1' 0084               	movwf	4
  2539  00C2' 120A' 118A' 2000' 120A' 118A' 	fcall	stringdir
  2540  00C7' 00A9'              	movwf	??_scale+1
  2541  00C8' 120A' 118A' 2000' 120A' 118A' 	fcall	stringdir
  2542  00CD' 00AA'              	movwf	??_scale+2
  2543  00CE' 120A' 118A' 2000' 120A' 118A' 	fcall	stringdir
  2544  00D3' 00AB'              	movwf	??_scale+3
  2545  00D4' 120A' 118A' 2000' 120A' 118A' 	fcall	stringdir
  2546  00D9' 00AC'              	movwf	??_scale+4
  2547  00DA' 082C'              	movf	??_scale+4,w
  2548  00DB' 008D'              	movwf	___flmul@b+3
  2549  00DC' 082B'              	movf	??_scale+3,w
  2550  00DD' 008C'              	movwf	___flmul@b+2
  2551  00DE' 082A'              	movf	??_scale+2,w
  2552  00DF' 008B'              	movwf	___flmul@b+1
  2553  00E0' 0829'              	movf	??_scale+1,w
  2554  00E1' 008A'              	movwf	___flmul@b
  2555  00E2' 0835'              	movf	_scale$898+3,w
  2556  00E3' 0091'              	movwf	___flmul@a+3
  2557  00E4' 0834'              	movf	_scale$898+2,w
  2558  00E5' 0090'              	movwf	___flmul@a+2
  2559  00E6' 0833'              	movf	_scale$898+1,w
  2560  00E7' 008F'              	movwf	___flmul@a+1
  2561  00E8' 0832'              	movf	_scale$898,w
  2562  00E9' 008E'              	movwf	___flmul@a
  2563  00EA' 120A' 118A' 2000' 120A' 118A' 	fcall	___flmul
  2564  00EF' 1283               	bcf	3,5	;RP0=0, select bank0
  2565  00F0' 1303               	bcf	3,6	;RP1=0, select bank0
  2566  00F1' 080D'              	movf	?___flmul+3,w
  2567  00F2' 00A7'              	movwf	?_scale+3
  2568  00F3' 080C'              	movf	?___flmul+2,w
  2569  00F4' 00A6'              	movwf	?_scale+2
  2570  00F5' 080B'              	movf	?___flmul+1,w
  2571  00F6' 00A5'              	movwf	?_scale+1
  2572  00F7' 080A'              	movf	?___flmul,w
  2573  00F8' 00A4'              	movwf	?_scale
  2574  00F9' 2800'              	goto	l215
  2575  00FA'                    l3792:
  2576  00FA' 0836'              	movf	scale@scl,w
  2577  00FB' 3A80               	xorlw	128
  2578  00FC' 3E75               	addlw	-139
  2579  00FD' 1C03               	skipc
  2580  00FE' 2800'              	goto	u6361
  2581  00FF' 2800'              	goto	u6360
  2582  0100'                    u6361:
  2583  0100' 2800'              	goto	l3798
  2584  0101'                    u6360:
  2585  0101'                    l3794:
  2586                           
  2587                           ;C:\Program Files\Microchip\xc8\v2.31\pic\sources\c90\common\doprnt.c: 441:    return _n
      +                          powers_[(unsigned char)(scl/10+9)] * _npowers_[(unsigned char)(scl%10)];
  2588  0101' 300A               	movlw	10
  2589  0102' 0083'              	movwf	___awmod@divisor
  2590  0103' 3000               	movlw	0
  2591  0104' 0084'              	movwf	___awmod@divisor+1
  2592  0105' 0836'              	movf	scale@scl,w
  2593  0106' 0085'              	movwf	___awmod@dividend
  2594  0107' 0186'              	clrf	___awmod@dividend+1
  2595  0108' 1B85'              	btfsc	___awmod@dividend,7
  2596  0109' 0386'              	decf	___awmod@dividend+1,f
  2597  010A' 120A' 118A' 2000' 120A' 118A' 	fcall	___awmod
  2598  010F' 0803'              	movf	?___awmod,w
  2599  0110' 1283               	bcf	3,5	;RP0=0, select bank0
  2600  0111' 1303               	bcf	3,6	;RP1=0, select bank0
  2601  0112' 00A8'              	movwf	??_scale
  2602  0113' 3001               	movlw	1
  2603  0114'                    u6375:
  2604  0114' 1003               	clrc
  2605  0115' 0DA8'              	rlf	??_scale,f
  2606  0116' 3EFF               	addlw	-1
  2607  0117' 1D03               	skipz
  2608  0118' 2800'              	goto	u6375
  2609  0119' 1003               	clrc
  2610  011A' 0D28'              	rlf	??_scale,w
  2611  011B' 3E35               	addlw	low ((__npowers_-__stringbase)| (0+32768))
  2612  011C' 0084               	movwf	4
  2613  011D' 120A' 118A' 2000' 120A' 118A' 	fcall	stringdir
  2614  0122' 00A9'              	movwf	??_scale+1
  2615  0123' 120A' 118A' 2000' 120A' 118A' 	fcall	stringdir
  2616  0128' 00AA'              	movwf	??_scale+2
  2617  0129' 120A' 118A' 2000' 120A' 118A' 	fcall	stringdir
  2618  012E' 00AB'              	movwf	??_scale+3
  2619  012F' 120A' 118A' 2000' 120A' 118A' 	fcall	stringdir
  2620  0134' 00AC'              	movwf	??_scale+4
  2621  0135' 082C'              	movf	??_scale+4,w
  2622  0136' 008D'              	movwf	___flmul@b+3
  2623  0137' 082B'              	movf	??_scale+3,w
  2624  0138' 008C'              	movwf	___flmul@b+2
  2625  0139' 082A'              	movf	??_scale+2,w
  2626  013A' 008B'              	movwf	___flmul@b+1
  2627  013B' 0829'              	movf	??_scale+1,w
  2628  013C' 008A'              	movwf	___flmul@b
  2629  013D' 300A               	movlw	10
  2630  013E' 0080'              	movwf	___awdiv@divisor
  2631  013F' 3000               	movlw	0
  2632  0140' 0081'              	movwf	___awdiv@divisor+1
  2633  0141' 0836'              	movf	scale@scl,w
  2634  0142' 0082'              	movwf	___awdiv@dividend
  2635  0143' 0183'              	clrf	___awdiv@dividend+1
  2636  0144' 1B82'              	btfsc	___awdiv@dividend,7
  2637  0145' 0383'              	decf	___awdiv@dividend+1,f
  2638  0146' 120A' 118A' 2000' 120A' 118A' 	fcall	___awdiv
  2639  014B' 1283               	bcf	3,5	;RP0=0, select bank0
  2640  014C' 1303               	bcf	3,6	;RP1=0, select bank0
  2641  014D' 0800'              	movf	?___awdiv,w
  2642  014E' 00AD'              	movwf	??_scale+5
  2643  014F' 3001               	movlw	1
  2644  0150'                    u6385:
  2645  0150' 1003               	clrc
  2646  0151' 0DAD'              	rlf	??_scale+5,f
  2647  0152' 3EFF               	addlw	-1
  2648  0153' 1D03               	skipz
  2649  0154' 2800'              	goto	u6385
  2650  0155' 1003               	clrc
  2651  0156' 0D2D'              	rlf	??_scale+5,w
  2652  0157' 3E59               	addlw	low (((__npowers_-__stringbase)| (0+32768)+36))
  2653  0158' 0084               	movwf	4
  2654  0159' 120A' 118A' 2000' 120A' 118A' 	fcall	stringdir
  2655  015E' 00AE'              	movwf	??_scale+6
  2656  015F' 120A' 118A' 2000' 120A' 118A' 	fcall	stringdir
  2657  0164' 00AF'              	movwf	??_scale+7
  2658  0165' 120A' 118A' 2000' 120A' 118A' 	fcall	stringdir
  2659  016A' 00B0'              	movwf	??_scale+8
  2660  016B' 120A' 118A' 2000' 120A' 118A' 	fcall	stringdir
  2661  0170' 00B1'              	movwf	??_scale+9
  2662  0171' 0831'              	movf	??_scale+9,w
  2663  0172' 0091'              	movwf	___flmul@a+3
  2664  0173' 0830'              	movf	??_scale+8,w
  2665  0174' 0090'              	movwf	___flmul@a+2
  2666  0175' 082F'              	movf	??_scale+7,w
  2667  0176' 008F'              	movwf	___flmul@a+1
  2668  0177' 082E'              	movf	??_scale+6,w
  2669  0178' 008E'              	movwf	___flmul@a
  2670  0179' 120A' 118A' 2000' 120A' 118A' 	fcall	___flmul
  2671  017E' 1283               	bcf	3,5	;RP0=0, select bank0
  2672  017F' 1303               	bcf	3,6	;RP1=0, select bank0
  2673  0180' 080D'              	movf	?___flmul+3,w
  2674  0181' 00A7'              	movwf	?_scale+3
  2675  0182' 080C'              	movf	?___flmul+2,w
  2676  0183' 00A6'              	movwf	?_scale+2
  2677  0184' 080B'              	movf	?___flmul+1,w
  2678  0185' 00A5'              	movwf	?_scale+1
  2679  0186' 080A'              	movf	?___flmul,w
  2680  0187' 00A4'              	movwf	?_scale
  2681  0188' 2800'              	goto	l215
  2682  0189'                    l3798:
  2683                           
  2684                           ;C:\Program Files\Microchip\xc8\v2.31\pic\sources\c90\common\doprnt.c: 442:   return _np
      +                          owers_[(unsigned char)scl];
  2685  0189' 0836'              	movf	scale@scl,w
  2686  018A' 00A8'              	movwf	??_scale
  2687  018B' 3001               	movlw	1
  2688  018C'                    u6395:
  2689  018C' 1003               	clrc
  2690  018D' 0DA8'              	rlf	??_scale,f
  2691  018E' 3EFF               	addlw	-1
  2692  018F' 1D03               	skipz
  2693  0190' 2800'              	goto	u6395
  2694  0191' 1003               	clrc
  2695  0192' 0D28'              	rlf	??_scale,w
  2696  0193' 3E35               	addlw	low ((__npowers_-__stringbase)| (0+32768))
  2697  0194' 0084               	movwf	4
  2698  0195' 120A' 118A' 2000' 120A' 118A' 	fcall	stringdir
  2699  019A' 00A9'              	movwf	??_scale+1
  2700  019B' 120A' 118A' 2000' 120A' 118A' 	fcall	stringdir
  2701  01A0' 00AA'              	movwf	??_scale+2
  2702  01A1' 120A' 118A' 2000' 120A' 118A' 	fcall	stringdir
  2703  01A6' 00AB'              	movwf	??_scale+3
  2704  01A7' 120A' 118A' 2000' 120A' 118A' 	fcall	stringdir
  2705  01AC' 00AC'              	movwf	??_scale+4
  2706  01AD' 082C'              	movf	??_scale+4,w
  2707  01AE' 00A7'              	movwf	?_scale+3
  2708  01AF' 082B'              	movf	??_scale+3,w
  2709  01B0' 00A6'              	movwf	?_scale+2
  2710  01B1' 082A'              	movf	??_scale+2,w
  2711  01B2' 00A5'              	movwf	?_scale+1
  2712  01B3' 0829'              	movf	??_scale+1,w
  2713  01B4' 00A4'              	movwf	?_scale
  2714  01B5' 2800'              	goto	l215
  2715  01B6'                    l3802:
  2716                           
  2717                           ;C:\Program Files\Microchip\xc8\v2.31\pic\sources\c90\common\doprnt.c: 444:  if(scl>=110
      +                          )
  2718  01B6' 0836'              	movf	scale@scl,w
  2719  01B7' 3A80               	xorlw	128
  2720  01B8' 3E12               	addlw	-238
  2721  01B9' 1C03               	skipc
  2722  01BA' 2800'              	goto	u6401
  2723  01BB' 2800'              	goto	u6400
  2724  01BC'                    u6401:
  2725  01BC' 2800'              	goto	l3810
  2726  01BD'                    u6400:
  2727  01BD'                    l3804:
  2728                           
  2729                           ;C:\Program Files\Microchip\xc8\v2.31\pic\sources\c90\common\doprnt.c: 445:   return _po
      +                          wers_[(unsigned char)(scl/100+18)] * _powers_[(unsigned char)((scl%100)/10+9)] * _powers
      +                          _[(unsigned char)(scl%10)];
  2730  01BD' 300A               	movlw	10
  2731  01BE' 0080'              	movwf	___awdiv@divisor
  2732  01BF' 3000               	movlw	0
  2733  01C0' 0081'              	movwf	___awdiv@divisor+1
  2734  01C1' 0836'              	movf	scale@scl,w
  2735  01C2' 0085'              	movwf	___awmod@dividend
  2736  01C3' 0186'              	clrf	___awmod@dividend+1
  2737  01C4' 1B85'              	btfsc	___awmod@dividend,7
  2738  01C5' 0386'              	decf	___awmod@dividend+1,f
  2739  01C6' 3064               	movlw	100
  2740  01C7' 0083'              	movwf	___awmod@divisor
  2741  01C8' 3000               	movlw	0
  2742  01C9' 0084'              	movwf	___awmod@divisor+1
  2743  01CA' 120A' 118A' 2000' 120A' 118A' 	fcall	___awmod
  2744  01CF' 0804'              	movf	?___awmod+1,w
  2745  01D0' 1283               	bcf	3,5	;RP0=0, select bank0
  2746  01D1' 1303               	bcf	3,6	;RP1=0, select bank0
  2747  01D2' 0083'              	movwf	___awdiv@dividend+1
  2748  01D3' 0803'              	movf	?___awmod,w
  2749  01D4' 0082'              	movwf	___awdiv@dividend
  2750  01D5' 120A' 118A' 2000' 120A' 118A' 	fcall	___awdiv
  2751  01DA' 1283               	bcf	3,5	;RP0=0, select bank0
  2752  01DB' 1303               	bcf	3,6	;RP1=0, select bank0
  2753  01DC' 0800'              	movf	?___awdiv,w
  2754  01DD' 00A8'              	movwf	??_scale
  2755  01DE' 3001               	movlw	1
  2756  01DF'                    u6415:
  2757  01DF' 1003               	clrc
  2758  01E0' 0DA8'              	rlf	??_scale,f
  2759  01E1' 3EFF               	addlw	-1
  2760  01E2' 1D03               	skipz
  2761  01E3' 2800'              	goto	u6415
  2762  01E4' 1003               	clrc
  2763  01E5' 0D28'              	rlf	??_scale,w
  2764  01E6' 3E25               	addlw	low (((__powers_-__stringbase)| (0+32768)+36))
  2765  01E7' 0084               	movwf	4
  2766  01E8' 120A' 118A' 2000' 120A' 118A' 	fcall	stringdir
  2767  01ED' 00A9'              	movwf	??_scale+1
  2768  01EE' 120A' 118A' 2000' 120A' 118A' 	fcall	stringdir
  2769  01F3' 00AA'              	movwf	??_scale+2
  2770  01F4' 120A' 118A' 2000' 120A' 118A' 	fcall	stringdir
  2771  01F9' 00AB'              	movwf	??_scale+3
  2772  01FA' 120A' 118A' 2000' 120A' 118A' 	fcall	stringdir
  2773  01FF' 00AC'              	movwf	??_scale+4
  2774  0200' 082C'              	movf	??_scale+4,w
  2775  0201' 008D'              	movwf	___flmul@b+3
  2776  0202' 082B'              	movf	??_scale+3,w
  2777  0203' 008C'              	movwf	___flmul@b+2
  2778  0204' 082A'              	movf	??_scale+2,w
  2779  0205' 008B'              	movwf	___flmul@b+1
  2780  0206' 0829'              	movf	??_scale+1,w
  2781  0207' 008A'              	movwf	___flmul@b
  2782  0208' 3064               	movlw	100
  2783  0209' 0080'              	movwf	___awdiv@divisor
  2784  020A' 3000               	movlw	0
  2785  020B' 0081'              	movwf	___awdiv@divisor+1
  2786  020C' 0836'              	movf	scale@scl,w
  2787  020D' 0082'              	movwf	___awdiv@dividend
  2788  020E' 0183'              	clrf	___awdiv@dividend+1
  2789  020F' 1B82'              	btfsc	___awdiv@dividend,7
  2790  0210' 0383'              	decf	___awdiv@dividend+1,f
  2791  0211' 120A' 118A' 2000' 120A' 118A' 	fcall	___awdiv
  2792  0216' 1283               	bcf	3,5	;RP0=0, select bank0
  2793  0217' 1303               	bcf	3,6	;RP1=0, select bank0
  2794  0218' 0800'              	movf	?___awdiv,w
  2795  0219' 00AD'              	movwf	??_scale+5
  2796  021A' 3001               	movlw	1
  2797  021B'                    u6425:
  2798  021B' 1003               	clrc
  2799  021C' 0DAD'              	rlf	??_scale+5,f
  2800  021D' 3EFF               	addlw	-1
  2801  021E' 1D03               	skipz
  2802  021F' 2800'              	goto	u6425
  2803  0220' 1003               	clrc
  2804  0221' 0D2D'              	rlf	??_scale+5,w
  2805  0222' 3E49               	addlw	low (((__powers_-__stringbase)| (0+32768)+72))
  2806  0223' 0084               	movwf	4
  2807  0224' 120A' 118A' 2000' 120A' 118A' 	fcall	stringdir
  2808  0229' 00AE'              	movwf	??_scale+6
  2809  022A' 120A' 118A' 2000' 120A' 118A' 	fcall	stringdir
  2810  022F' 00AF'              	movwf	??_scale+7
  2811  0230' 120A' 118A' 2000' 120A' 118A' 	fcall	stringdir
  2812  0235' 00B0'              	movwf	??_scale+8
  2813  0236' 120A' 118A' 2000' 120A' 118A' 	fcall	stringdir
  2814  023B' 00B1'              	movwf	??_scale+9
  2815  023C' 0831'              	movf	??_scale+9,w
  2816  023D' 0091'              	movwf	___flmul@a+3
  2817  023E' 0830'              	movf	??_scale+8,w
  2818  023F' 0090'              	movwf	___flmul@a+2
  2819  0240' 082F'              	movf	??_scale+7,w
  2820  0241' 008F'              	movwf	___flmul@a+1
  2821  0242' 082E'              	movf	??_scale+6,w
  2822  0243' 008E'              	movwf	___flmul@a
  2823  0244' 120A' 118A' 2000' 120A' 118A' 	fcall	___flmul
  2824  0249' 1283               	bcf	3,5	;RP0=0, select bank0
  2825  024A' 1303               	bcf	3,6	;RP1=0, select bank0
  2826  024B' 080D'              	movf	?___flmul+3,w
  2827  024C' 00B5'              	movwf	_scale$898+3
  2828  024D' 080C'              	movf	?___flmul+2,w
  2829  024E' 00B4'              	movwf	_scale$898+2
  2830  024F' 080B'              	movf	?___flmul+1,w
  2831  0250' 00B3'              	movwf	_scale$898+1
  2832  0251' 080A'              	movf	?___flmul,w
  2833  0252' 00B2'              	movwf	_scale$898
  2834                           
  2835                           ;C:\Program Files\Microchip\xc8\v2.31\pic\sources\c90\common\doprnt.c: 445:   return _po
      +                          wers_[(unsigned char)(scl/100+18)] * _powers_[(unsigned char)((scl%100)/10+9)] * _powers
      +                          _[(unsigned char)(scl%10)];
  2836  0253' 300A               	movlw	10
  2837  0254' 0083'              	movwf	___awmod@divisor
  2838  0255' 3000               	movlw	0
  2839  0256' 0084'              	movwf	___awmod@divisor+1
  2840  0257' 0836'              	movf	scale@scl,w
  2841  0258' 0085'              	movwf	___awmod@dividend
  2842  0259' 0186'              	clrf	___awmod@dividend+1
  2843  025A' 1B85'              	btfsc	___awmod@dividend,7
  2844  025B' 0386'              	decf	___awmod@dividend+1,f
  2845  025C' 120A' 118A' 2000' 120A' 118A' 	fcall	___awmod
  2846  0261' 0803'              	movf	?___awmod,w
  2847  0262' 1283               	bcf	3,5	;RP0=0, select bank0
  2848  0263' 1303               	bcf	3,6	;RP1=0, select bank0
  2849  0264' 00A8'              	movwf	??_scale
  2850  0265' 3001               	movlw	1
  2851  0266'                    u6435:
  2852  0266' 1003               	clrc
  2853  0267' 0DA8'              	rlf	??_scale,f
  2854  0268' 3EFF               	addlw	-1
  2855  0269' 1D03               	skipz
  2856  026A' 2800'              	goto	u6435
  2857  026B' 1003               	clrc
  2858  026C' 0D28'              	rlf	??_scale,w
  2859  026D' 3E01               	addlw	low ((__powers_-__stringbase)| (0+32768))
  2860  026E' 0084               	movwf	4
  2861  026F' 120A' 118A' 2000' 120A' 118A' 	fcall	stringdir
  2862  0274' 00A9'              	movwf	??_scale+1
  2863  0275' 120A' 118A' 2000' 120A' 118A' 	fcall	stringdir
  2864  027A' 00AA'              	movwf	??_scale+2
  2865  027B' 120A' 118A' 2000' 120A' 118A' 	fcall	stringdir
  2866  0280' 00AB'              	movwf	??_scale+3
  2867  0281' 120A' 118A' 2000' 120A' 118A' 	fcall	stringdir
  2868  0286' 00AC'              	movwf	??_scale+4
  2869  0287' 082C'              	movf	??_scale+4,w
  2870  0288' 008D'              	movwf	___flmul@b+3
  2871  0289' 082B'              	movf	??_scale+3,w
  2872  028A' 008C'              	movwf	___flmul@b+2
  2873  028B' 082A'              	movf	??_scale+2,w
  2874  028C' 008B'              	movwf	___flmul@b+1
  2875  028D' 0829'              	movf	??_scale+1,w
  2876  028E' 008A'              	movwf	___flmul@b
  2877  028F' 0835'              	movf	_scale$898+3,w
  2878  0290' 0091'              	movwf	___flmul@a+3
  2879  0291' 0834'              	movf	_scale$898+2,w
  2880  0292' 0090'              	movwf	___flmul@a+2
  2881  0293' 0833'              	movf	_scale$898+1,w
  2882  0294' 008F'              	movwf	___flmul@a+1
  2883  0295' 0832'              	movf	_scale$898,w
  2884  0296' 008E'              	movwf	___flmul@a
  2885  0297' 120A' 118A' 2000' 120A' 118A' 	fcall	___flmul
  2886  029C' 1283               	bcf	3,5	;RP0=0, select bank0
  2887  029D' 1303               	bcf	3,6	;RP1=0, select bank0
  2888  029E' 080D'              	movf	?___flmul+3,w
  2889  029F' 00A7'              	movwf	?_scale+3
  2890  02A0' 080C'              	movf	?___flmul+2,w
  2891  02A1' 00A6'              	movwf	?_scale+2
  2892  02A2' 080B'              	movf	?___flmul+1,w
  2893  02A3' 00A5'              	movwf	?_scale+1
  2894  02A4' 080A'              	movf	?___flmul,w
  2895  02A5' 00A4'              	movwf	?_scale
  2896  02A6' 2800'              	goto	l215
  2897  02A7'                    l3810:
  2898  02A7' 0836'              	movf	scale@scl,w
  2899  02A8' 3A80               	xorlw	128
  2900  02A9' 3E75               	addlw	-139
  2901  02AA' 1C03               	skipc
  2902  02AB' 2800'              	goto	u6441
  2903  02AC' 2800'              	goto	u6440
  2904  02AD'                    u6441:
  2905  02AD' 2800'              	goto	l3816
  2906  02AE'                    u6440:
  2907  02AE'                    l3812:
  2908                           
  2909                           ;C:\Program Files\Microchip\xc8\v2.31\pic\sources\c90\common\doprnt.c: 447:   return _po
      +                          wers_[(unsigned char)(scl/10+9)] * _powers_[(unsigned char)(scl%10)];
  2910  02AE' 300A               	movlw	10
  2911  02AF' 0083'              	movwf	___awmod@divisor
  2912  02B0' 3000               	movlw	0
  2913  02B1' 0084'              	movwf	___awmod@divisor+1
  2914  02B2' 0836'              	movf	scale@scl,w
  2915  02B3' 0085'              	movwf	___awmod@dividend
  2916  02B4' 0186'              	clrf	___awmod@dividend+1
  2917  02B5' 1B85'              	btfsc	___awmod@dividend,7
  2918  02B6' 0386'              	decf	___awmod@dividend+1,f
  2919  02B7' 120A' 118A' 2000' 120A' 118A' 	fcall	___awmod
  2920  02BC' 0803'              	movf	?___awmod,w
  2921  02BD' 1283               	bcf	3,5	;RP0=0, select bank0
  2922  02BE' 1303               	bcf	3,6	;RP1=0, select bank0
  2923  02BF' 00A8'              	movwf	??_scale
  2924  02C0' 3001               	movlw	1
  2925  02C1'                    u6455:
  2926  02C1' 1003               	clrc
  2927  02C2' 0DA8'              	rlf	??_scale,f
  2928  02C3' 3EFF               	addlw	-1
  2929  02C4' 1D03               	skipz
  2930  02C5' 2800'              	goto	u6455
  2931  02C6' 1003               	clrc
  2932  02C7' 0D28'              	rlf	??_scale,w
  2933  02C8' 3E01               	addlw	low ((__powers_-__stringbase)| (0+32768))
  2934  02C9' 0084               	movwf	4
  2935  02CA' 120A' 118A' 2000' 120A' 118A' 	fcall	stringdir
  2936  02CF' 00A9'              	movwf	??_scale+1
  2937  02D0' 120A' 118A' 2000' 120A' 118A' 	fcall	stringdir
  2938  02D5' 00AA'              	movwf	??_scale+2
  2939  02D6' 120A' 118A' 2000' 120A' 118A' 	fcall	stringdir
  2940  02DB' 00AB'              	movwf	??_scale+3
  2941  02DC' 120A' 118A' 2000' 120A' 118A' 	fcall	stringdir
  2942  02E1' 00AC'              	movwf	??_scale+4
  2943  02E2' 082C'              	movf	??_scale+4,w
  2944  02E3' 008D'              	movwf	___flmul@b+3
  2945  02E4' 082B'              	movf	??_scale+3,w
  2946  02E5' 008C'              	movwf	___flmul@b+2
  2947  02E6' 082A'              	movf	??_scale+2,w
  2948  02E7' 008B'              	movwf	___flmul@b+1
  2949  02E8' 0829'              	movf	??_scale+1,w
  2950  02E9' 008A'              	movwf	___flmul@b
  2951  02EA' 300A               	movlw	10
  2952  02EB' 0080'              	movwf	___awdiv@divisor
  2953  02EC' 3000               	movlw	0
  2954  02ED' 0081'              	movwf	___awdiv@divisor+1
  2955  02EE' 0836'              	movf	scale@scl,w
  2956  02EF' 0082'              	movwf	___awdiv@dividend
  2957  02F0' 0183'              	clrf	___awdiv@dividend+1
  2958  02F1' 1B82'              	btfsc	___awdiv@dividend,7
  2959  02F2' 0383'              	decf	___awdiv@dividend+1,f
  2960  02F3' 120A' 118A' 2000' 120A' 118A' 	fcall	___awdiv
  2961  02F8' 1283               	bcf	3,5	;RP0=0, select bank0
  2962  02F9' 1303               	bcf	3,6	;RP1=0, select bank0
  2963  02FA' 0800'              	movf	?___awdiv,w
  2964  02FB' 00AD'              	movwf	??_scale+5
  2965  02FC' 3001               	movlw	1
  2966  02FD'                    u6465:
  2967  02FD' 1003               	clrc
  2968  02FE' 0DAD'              	rlf	??_scale+5,f
  2969  02FF' 3EFF               	addlw	-1
  2970  0300' 1D03               	skipz
  2971  0301' 2800'              	goto	u6465
  2972  0302' 1003               	clrc
  2973  0303' 0D2D'              	rlf	??_scale+5,w
  2974  0304' 3E25               	addlw	low (((__powers_-__stringbase)| (0+32768)+36))
  2975  0305' 0084               	movwf	4
  2976  0306' 120A' 118A' 2000' 120A' 118A' 	fcall	stringdir
  2977  030B' 00AE'              	movwf	??_scale+6
  2978  030C' 120A' 118A' 2000' 120A' 118A' 	fcall	stringdir
  2979  0311' 00AF'              	movwf	??_scale+7
  2980  0312' 120A' 118A' 2000' 120A' 118A' 	fcall	stringdir
  2981  0317' 00B0'              	movwf	??_scale+8
  2982  0318' 120A' 118A' 2000' 120A' 118A' 	fcall	stringdir
  2983  031D' 00B1'              	movwf	??_scale+9
  2984  031E' 0831'              	movf	??_scale+9,w
  2985  031F' 0091'              	movwf	___flmul@a+3
  2986  0320' 0830'              	movf	??_scale+8,w
  2987  0321' 0090'              	movwf	___flmul@a+2
  2988  0322' 082F'              	movf	??_scale+7,w
  2989  0323' 008F'              	movwf	___flmul@a+1
  2990  0324' 082E'              	movf	??_scale+6,w
  2991  0325' 008E'              	movwf	___flmul@a
  2992  0326' 120A' 118A' 2000' 120A' 118A' 	fcall	___flmul
  2993  032B' 1283               	bcf	3,5	;RP0=0, select bank0
  2994  032C' 1303               	bcf	3,6	;RP1=0, select bank0
  2995  032D' 080D'              	movf	?___flmul+3,w
  2996  032E' 00A7'              	movwf	?_scale+3
  2997  032F' 080C'              	movf	?___flmul+2,w
  2998  0330' 00A6'              	movwf	?_scale+2
  2999  0331' 080B'              	movf	?___flmul+1,w
  3000  0332' 00A5'              	movwf	?_scale+1
  3001  0333' 080A'              	movf	?___flmul,w
  3002  0334' 00A4'              	movwf	?_scale
  3003  0335' 2800'              	goto	l215
  3004  0336'                    l3816:
  3005                           
  3006                           ;C:\Program Files\Microchip\xc8\v2.31\pic\sources\c90\common\doprnt.c: 448:  return _pow
      +                          ers_[(unsigned char)scl];
  3007  0336' 0836'              	movf	scale@scl,w
  3008  0337' 00A8'              	movwf	??_scale
  3009  0338' 3001               	movlw	1
  3010  0339'                    u6475:
  3011  0339' 1003               	clrc
  3012  033A' 0DA8'              	rlf	??_scale,f
  3013  033B' 3EFF               	addlw	-1
  3014  033C' 1D03               	skipz
  3015  033D' 2800'              	goto	u6475
  3016  033E' 1003               	clrc
  3017  033F' 0D28'              	rlf	??_scale,w
  3018  0340' 3E01               	addlw	low ((__powers_-__stringbase)| (0+32768))
  3019  0341' 0084               	movwf	4
  3020  0342' 120A' 118A' 2000' 120A' 118A' 	fcall	stringdir
  3021  0347' 00A9'              	movwf	??_scale+1
  3022  0348' 120A' 118A' 2000' 120A' 118A' 	fcall	stringdir
  3023  034D' 00AA'              	movwf	??_scale+2
  3024  034E' 120A' 118A' 2000' 120A' 118A' 	fcall	stringdir
  3025  0353' 00AB'              	movwf	??_scale+3
  3026  0354' 120A' 118A' 2000' 120A' 118A' 	fcall	stringdir
  3027  0359' 00AC'              	movwf	??_scale+4
  3028  035A' 082C'              	movf	??_scale+4,w
  3029  035B' 00A7'              	movwf	?_scale+3
  3030  035C' 082B'              	movf	??_scale+3,w
  3031  035D' 00A6'              	movwf	?_scale+2
  3032  035E' 082A'              	movf	??_scale+2,w
  3033  035F' 00A5'              	movwf	?_scale+1
  3034  0360' 0829'              	movf	??_scale+1,w
  3035  0361' 00A4'              	movwf	?_scale
  3036  0362'                    l215:
  3037  0362' 0008               	return
  3038  0363'                    __end_of_scale:
  3039                           
  3040                           	psect	text3
  3041  0000'                    __ptext3:	
  3042 ;; *************** function ___awmod *****************
  3043 ;; Defined at:
  3044 ;;		line 5 in file "C:\Program Files\Microchip\xc8\v2.31\pic\sources\c90\common\awmod.c"
  3045 ;; Parameters:    Size  Location     Type
  3046 ;;  divisor         2    3[COMMON] int 
  3047 ;;  dividend        2    5[COMMON] int 
  3048 ;; Auto vars:     Size  Location     Type
  3049 ;;  sign            1    9[COMMON] unsigned char 
  3050 ;;  counter         1    8[COMMON] unsigned char 
  3051 ;; Return value:  Size  Location     Type
  3052 ;;                  2    3[COMMON] int 
  3053 ;; Registers used:
  3054 ;;		wreg, status,2, status,0
  3055 ;; Tracked objects:
  3056 ;;		On entry : 0/0
  3057 ;;		On exit  : 0/0
  3058 ;;		Unchanged: 0/0
  3059 ;; Data sizes:     COMMON   BANK0   BANK1   BANK3   BANK2
  3060 ;;      Params:         4       0       0       0       0
  3061 ;;      Locals:         2       0       0       0       0
  3062 ;;      Temps:          1       0       0       0       0
  3063 ;;      Totals:         7       0       0       0       0
  3064 ;;Total ram usage:        7 bytes
  3065 ;; Hardware stack levels used:    1
  3066 ;; Hardware stack levels required when called:    1
  3067 ;; This function calls:
  3068 ;;		Nothing
  3069 ;; This function is called by:
  3070 ;;		_scale
  3071 ;; This function uses a non-reentrant model
  3072 ;;
  3073                           
  3074                           
  3075                           ;psect for function ___awmod
  3076  0000'                    ___awmod:
  3077  0000'                    l2368:	
  3078                           ;incstack = 0
  3079                           ; Regs used in ___awmod: [wreg+status,2+status,0]
  3080                           
  3081  0000' 0189'              	clrf	___awmod@sign
  3082  0001'                    l2370:
  3083  0001' 1F86'              	btfss	___awmod@dividend+1,7
  3084  0002' 2800'              	goto	u3241
  3085  0003' 2800'              	goto	u3240
  3086  0004'                    u3241:
  3087  0004' 2800'              	goto	l2376
  3088  0005'                    u3240:
  3089  0005'                    l2372:
  3090  0005' 0985'              	comf	___awmod@dividend,f
  3091  0006' 0986'              	comf	___awmod@dividend+1,f
  3092  0007' 0A85'              	incf	___awmod@dividend,f
  3093  0008' 1903               	skipnz
  3094  0009' 0A86'              	incf	___awmod@dividend+1,f
  3095  000A'                    l2374:
  3096  000A' 0189'              	clrf	___awmod@sign
  3097  000B' 0A89'              	incf	___awmod@sign,f
  3098  000C'                    l2376:
  3099  000C' 1F84'              	btfss	___awmod@divisor+1,7
  3100  000D' 2800'              	goto	u3251
  3101  000E' 2800'              	goto	u3250
  3102  000F'                    u3251:
  3103  000F' 2800'              	goto	l2380
  3104  0010'                    u3250:
  3105  0010'                    l2378:
  3106  0010' 0983'              	comf	___awmod@divisor,f
  3107  0011' 0984'              	comf	___awmod@divisor+1,f
  3108  0012' 0A83'              	incf	___awmod@divisor,f
  3109  0013' 1903               	skipnz
  3110  0014' 0A84'              	incf	___awmod@divisor+1,f
  3111  0015'                    l2380:
  3112  0015' 0803'              	movf	___awmod@divisor,w
  3113  0016' 0404'              	iorwf	___awmod@divisor+1,w
  3114  0017' 1903               	btfsc	3,2
  3115  0018' 2800'              	goto	u3261
  3116  0019' 2800'              	goto	u3260
  3117  001A'                    u3261:
  3118  001A' 2800'              	goto	l2398
  3119  001B'                    u3260:
  3120  001B'                    l2382:
  3121  001B' 0188'              	clrf	___awmod@counter
  3122  001C' 0A88'              	incf	___awmod@counter,f
  3123  001D' 2800'              	goto	l2388
  3124  001E'                    l2384:
  3125  001E' 3001               	movlw	1
  3126  001F'                    u3275:
  3127  001F' 1003               	clrc
  3128  0020' 0D83'              	rlf	___awmod@divisor,f
  3129  0021' 0D84'              	rlf	___awmod@divisor+1,f
  3130  0022' 3EFF               	addlw	-1
  3131  0023' 1D03               	skipz
  3132  0024' 2800'              	goto	u3275
  3133  0025'                    l2386:
  3134  0025' 3001               	movlw	1
  3135  0026' 0087'              	movwf	??___awmod
  3136  0027' 0807'              	movf	??___awmod,w
  3137  0028' 0788'              	addwf	___awmod@counter,f
  3138  0029'                    l2388:
  3139  0029' 1F84'              	btfss	___awmod@divisor+1,7
  3140  002A' 2800'              	goto	u3281
  3141  002B' 2800'              	goto	u3280
  3142  002C'                    u3281:
  3143  002C' 2800'              	goto	l2384
  3144  002D'                    u3280:
  3145  002D'                    l2390:
  3146  002D' 0804'              	movf	___awmod@divisor+1,w
  3147  002E' 0206'              	subwf	___awmod@dividend+1,w
  3148  002F' 1D03               	skipz
  3149  0030' 2800'              	goto	u3295
  3150  0031' 0803'              	movf	___awmod@divisor,w
  3151  0032' 0205'              	subwf	___awmod@dividend,w
  3152  0033'                    u3295:
  3153  0033' 1C03               	skipc
  3154  0034' 2800'              	goto	u3291
  3155  0035' 2800'              	goto	u3290
  3156  0036'                    u3291:
  3157  0036' 2800'              	goto	l2394
  3158  0037'                    u3290:
  3159  0037'                    l2392:
  3160  0037' 0803'              	movf	___awmod@divisor,w
  3161  0038' 0285'              	subwf	___awmod@dividend,f
  3162  0039' 0804'              	movf	___awmod@divisor+1,w
  3163  003A' 1C03               	skipc
  3164  003B' 0386'              	decf	___awmod@dividend+1,f
  3165  003C' 0286'              	subwf	___awmod@dividend+1,f
  3166  003D'                    l2394:
  3167  003D' 3001               	movlw	1
  3168  003E'                    u3305:
  3169  003E' 1003               	clrc
  3170  003F' 0C84'              	rrf	___awmod@divisor+1,f
  3171  0040' 0C83'              	rrf	___awmod@divisor,f
  3172  0041' 3EFF               	addlw	-1
  3173  0042' 1D03               	skipz
  3174  0043' 2800'              	goto	u3305
  3175  0044'                    l2396:
  3176  0044' 3001               	movlw	1
  3177  0045' 0288'              	subwf	___awmod@counter,f
  3178  0046' 1D03               	btfss	3,2
  3179  0047' 2800'              	goto	u3311
  3180  0048' 2800'              	goto	u3310
  3181  0049'                    u3311:
  3182  0049' 2800'              	goto	l2390
  3183  004A'                    u3310:
  3184  004A'                    l2398:
  3185  004A' 0809'              	movf	___awmod@sign,w
  3186  004B' 1903               	btfsc	3,2
  3187  004C' 2800'              	goto	u3321
  3188  004D' 2800'              	goto	u3320
  3189  004E'                    u3321:
  3190  004E' 2800'              	goto	l2402
  3191  004F'                    u3320:
  3192  004F'                    l2400:
  3193  004F' 0985'              	comf	___awmod@dividend,f
  3194  0050' 0986'              	comf	___awmod@dividend+1,f
  3195  0051' 0A85'              	incf	___awmod@dividend,f
  3196  0052' 1903               	skipnz
  3197  0053' 0A86'              	incf	___awmod@dividend+1,f
  3198  0054'                    l2402:
  3199  0054' 0806'              	movf	___awmod@dividend+1,w
  3200  0055' 0084'              	movwf	?___awmod+1
  3201  0056' 0805'              	movf	___awmod@dividend,w
  3202  0057' 0083'              	movwf	?___awmod
  3203  0058'                    l477:
  3204  0058' 0008               	return
  3205  0059'                    __end_of___awmod:
  3206                           
  3207                           	psect	text4
  3208  0000'                    __ptext4:	
  3209 ;; *************** function ___awdiv *****************
  3210 ;; Defined at:
  3211 ;;		line 5 in file "C:\Program Files\Microchip\xc8\v2.31\pic\sources\c90\common\awdiv.c"
  3212 ;; Parameters:    Size  Location     Type
  3213 ;;  divisor         2    0[BANK0 ] int 
  3214 ;;  dividend        2    2[BANK0 ] int 
  3215 ;; Auto vars:     Size  Location     Type
  3216 ;;  quotient        2    7[BANK0 ] int 
  3217 ;;  sign            1    6[BANK0 ] unsigned char 
  3218 ;;  counter         1    5[BANK0 ] unsigned char 
  3219 ;; Return value:  Size  Location     Type
  3220 ;;                  2    0[BANK0 ] int 
  3221 ;; Registers used:
  3222 ;;		wreg, status,2, status,0
  3223 ;; Tracked objects:
  3224 ;;		On entry : 0/0
  3225 ;;		On exit  : 0/0
  3226 ;;		Unchanged: 0/0
  3227 ;; Data sizes:     COMMON   BANK0   BANK1   BANK3   BANK2
  3228 ;;      Params:         0       4       0       0       0
  3229 ;;      Locals:         0       4       0       0       0
  3230 ;;      Temps:          0       1       0       0       0
  3231 ;;      Totals:         0       9       0       0       0
  3232 ;;Total ram usage:        9 bytes
  3233 ;; Hardware stack levels used:    1
  3234 ;; Hardware stack levels required when called:    1
  3235 ;; This function calls:
  3236 ;;		Nothing
  3237 ;; This function is called by:
  3238 ;;		_scale
  3239 ;;		_sprintf
  3240 ;; This function uses a non-reentrant model
  3241 ;;
  3242                           
  3243                           
  3244                           ;psect for function ___awdiv
  3245  0000'                    ___awdiv:
  3246  0000'                    l3736:	
  3247                           ;incstack = 0
  3248                           ; Regs used in ___awdiv: [wreg+status,2+status,0]
  3249                           
  3250  0000' 1283               	bcf	3,5	;RP0=0, select bank0
  3251  0001' 1303               	bcf	3,6	;RP1=0, select bank0
  3252  0002' 0186'              	clrf	___awdiv@sign
  3253  0003'                    l3738:
  3254  0003' 1F81'              	btfss	___awdiv@divisor+1,7
  3255  0004' 2800'              	goto	u6211
  3256  0005' 2800'              	goto	u6210
  3257  0006'                    u6211:
  3258  0006' 2800'              	goto	l3744
  3259  0007'                    u6210:
  3260  0007'                    l3740:
  3261  0007' 0980'              	comf	___awdiv@divisor,f
  3262  0008' 0981'              	comf	___awdiv@divisor+1,f
  3263  0009' 0A80'              	incf	___awdiv@divisor,f
  3264  000A' 1903               	skipnz
  3265  000B' 0A81'              	incf	___awdiv@divisor+1,f
  3266  000C'                    l3742:
  3267  000C' 0186'              	clrf	___awdiv@sign
  3268  000D' 0A86'              	incf	___awdiv@sign,f
  3269  000E'                    l3744:
  3270  000E' 1F83'              	btfss	___awdiv@dividend+1,7
  3271  000F' 2800'              	goto	u6221
  3272  0010' 2800'              	goto	u6220
  3273  0011'                    u6221:
  3274  0011' 2800'              	goto	l3750
  3275  0012'                    u6220:
  3276  0012'                    l3746:
  3277  0012' 0982'              	comf	___awdiv@dividend,f
  3278  0013' 0983'              	comf	___awdiv@dividend+1,f
  3279  0014' 0A82'              	incf	___awdiv@dividend,f
  3280  0015' 1903               	skipnz
  3281  0016' 0A83'              	incf	___awdiv@dividend+1,f
  3282  0017'                    l3748:
  3283  0017' 3001               	movlw	1
  3284  0018' 0084'              	movwf	??___awdiv
  3285  0019' 0804'              	movf	??___awdiv,w
  3286  001A' 0686'              	xorwf	___awdiv@sign,f
  3287  001B'                    l3750:
  3288  001B' 0187'              	clrf	___awdiv@quotient
  3289  001C' 0188'              	clrf	___awdiv@quotient+1
  3290  001D'                    l3752:
  3291  001D' 0800'              	movf	___awdiv@divisor,w
  3292  001E' 0401'              	iorwf	___awdiv@divisor+1,w
  3293  001F' 1903               	btfsc	3,2
  3294  0020' 2800'              	goto	u6231
  3295  0021' 2800'              	goto	u6230
  3296  0022'                    u6231:
  3297  0022' 2800'              	goto	l3772
  3298  0023'                    u6230:
  3299  0023'                    l3754:
  3300  0023' 0185'              	clrf	___awdiv@counter
  3301  0024' 0A85'              	incf	___awdiv@counter,f
  3302  0025' 2800'              	goto	l3760
  3303  0026'                    l3756:
  3304  0026' 3001               	movlw	1
  3305  0027'                    u6245:
  3306  0027' 1003               	clrc
  3307  0028' 0D80'              	rlf	___awdiv@divisor,f
  3308  0029' 0D81'              	rlf	___awdiv@divisor+1,f
  3309  002A' 3EFF               	addlw	-1
  3310  002B' 1D03               	skipz
  3311  002C' 2800'              	goto	u6245
  3312  002D'                    l3758:
  3313  002D' 3001               	movlw	1
  3314  002E' 0084'              	movwf	??___awdiv
  3315  002F' 0804'              	movf	??___awdiv,w
  3316  0030' 0785'              	addwf	___awdiv@counter,f
  3317  0031'                    l3760:
  3318  0031' 1F81'              	btfss	___awdiv@divisor+1,7
  3319  0032' 2800'              	goto	u6251
  3320  0033' 2800'              	goto	u6250
  3321  0034'                    u6251:
  3322  0034' 2800'              	goto	l3756
  3323  0035'                    u6250:
  3324  0035'                    l3762:
  3325  0035' 3001               	movlw	1
  3326  0036'                    u6265:
  3327  0036' 1003               	clrc
  3328  0037' 0D87'              	rlf	___awdiv@quotient,f
  3329  0038' 0D88'              	rlf	___awdiv@quotient+1,f
  3330  0039' 3EFF               	addlw	-1
  3331  003A' 1D03               	skipz
  3332  003B' 2800'              	goto	u6265
  3333  003C' 0801'              	movf	___awdiv@divisor+1,w
  3334  003D' 0203'              	subwf	___awdiv@dividend+1,w
  3335  003E' 1D03               	skipz
  3336  003F' 2800'              	goto	u6275
  3337  0040' 0800'              	movf	___awdiv@divisor,w
  3338  0041' 0202'              	subwf	___awdiv@dividend,w
  3339  0042'                    u6275:
  3340  0042' 1C03               	skipc
  3341  0043' 2800'              	goto	u6271
  3342  0044' 2800'              	goto	u6270
  3343  0045'                    u6271:
  3344  0045' 2800'              	goto	l3768
  3345  0046'                    u6270:
  3346  0046'                    l3764:
  3347  0046' 0800'              	movf	___awdiv@divisor,w
  3348  0047' 0282'              	subwf	___awdiv@dividend,f
  3349  0048' 0801'              	movf	___awdiv@divisor+1,w
  3350  0049' 1C03               	skipc
  3351  004A' 0383'              	decf	___awdiv@dividend+1,f
  3352  004B' 0283'              	subwf	___awdiv@dividend+1,f
  3353  004C'                    l3766:
  3354  004C' 1407'              	bsf	___awdiv@quotient,0
  3355  004D'                    l3768:
  3356  004D' 3001               	movlw	1
  3357  004E'                    u6285:
  3358  004E' 1003               	clrc
  3359  004F' 0C81'              	rrf	___awdiv@divisor+1,f
  3360  0050' 0C80'              	rrf	___awdiv@divisor,f
  3361  0051' 3EFF               	addlw	-1
  3362  0052' 1D03               	skipz
  3363  0053' 2800'              	goto	u6285
  3364  0054'                    l3770:
  3365  0054' 3001               	movlw	1
  3366  0055' 0285'              	subwf	___awdiv@counter,f
  3367  0056' 1D03               	btfss	3,2
  3368  0057' 2800'              	goto	u6291
  3369  0058' 2800'              	goto	u6290
  3370  0059'                    u6291:
  3371  0059' 2800'              	goto	l3762
  3372  005A'                    u6290:
  3373  005A'                    l3772:
  3374  005A' 0806'              	movf	___awdiv@sign,w
  3375  005B' 1903               	btfsc	3,2
  3376  005C' 2800'              	goto	u6301
  3377  005D' 2800'              	goto	u6300
  3378  005E'                    u6301:
  3379  005E' 2800'              	goto	l3776
  3380  005F'                    u6300:
  3381  005F'                    l3774:
  3382  005F' 0987'              	comf	___awdiv@quotient,f
  3383  0060' 0988'              	comf	___awdiv@quotient+1,f
  3384  0061' 0A87'              	incf	___awdiv@quotient,f
  3385  0062' 1903               	skipnz
  3386  0063' 0A88'              	incf	___awdiv@quotient+1,f
  3387  0064'                    l3776:
  3388  0064' 0808'              	movf	___awdiv@quotient+1,w
  3389  0065' 0081'              	movwf	?___awdiv+1
  3390  0066' 0807'              	movf	___awdiv@quotient,w
  3391  0067' 0080'              	movwf	?___awdiv
  3392  0068'                    l464:
  3393  0068' 0008               	return
  3394  0069'                    __end_of___awdiv:
  3395                           
  3396                           	psect	text5
  3397  0000'                    __ptext5:	
  3398 ;; *************** function _isdigit *****************
  3399 ;; Defined at:
  3400 ;;		line 8 in file "C:\Program Files\Microchip\xc8\v2.31\pic\sources\c90\common\isdigit.c"
  3401 ;; Parameters:    Size  Location     Type
  3402 ;;  c               1    wreg     unsigned char 
  3403 ;; Auto vars:     Size  Location     Type
  3404 ;;  c               1    4[COMMON] unsigned char 
  3405 ;; Return value:  Size  Location     Type
  3406 ;;		None               void
  3407 ;; Registers used:
  3408 ;;		wreg, status,2, status,0
  3409 ;; Tracked objects:
  3410 ;;		On entry : 0/0
  3411 ;;		On exit  : 0/0
  3412 ;;		Unchanged: 0/0
  3413 ;; Data sizes:     COMMON   BANK0   BANK1   BANK3   BANK2
  3414 ;;      Params:         0       0       0       0       0
  3415 ;;      Locals:         2       0       0       0       0
  3416 ;;      Temps:          0       0       0       0       0
  3417 ;;      Totals:         2       0       0       0       0
  3418 ;;Total ram usage:        2 bytes
  3419 ;; Hardware stack levels used:    1
  3420 ;; Hardware stack levels required when called:    1
  3421 ;; This function calls:
  3422 ;;		Nothing
  3423 ;; This function is called by:
  3424 ;;		_sprintf
  3425 ;; This function uses a non-reentrant model
  3426 ;;
  3427                           
  3428                           
  3429                           ;psect for function _isdigit
  3430  0000'                    _isdigit:
  3431                           
  3432                           ;incstack = 0
  3433                           ; Regs used in _isdigit: [wreg+status,2+status,0]
  3434                           ;isdigit@c stored from wreg
  3435  0000' 0084'              	movwf	isdigit@c
  3436  0001'                    l2846:
  3437  0001' 0183'              	clrf	_isdigit$727
  3438  0002'                    l2848:
  3439  0002' 303A               	movlw	58
  3440  0003' 0204'              	subwf	isdigit@c,w
  3441  0004' 1803               	skipnc
  3442  0005' 2800'              	goto	u4541
  3443  0006' 2800'              	goto	u4540
  3444  0007'                    u4541:
  3445  0007' 2800'              	goto	l2854
  3446  0008'                    u4540:
  3447  0008'                    l2850:
  3448  0008' 3030               	movlw	48
  3449  0009' 0204'              	subwf	isdigit@c,w
  3450  000A' 1C03               	skipc
  3451  000B' 2800'              	goto	u4551
  3452  000C' 2800'              	goto	u4550
  3453  000D'                    u4551:
  3454  000D' 2800'              	goto	l2854
  3455  000E'                    u4550:
  3456  000E'                    l2852:
  3457  000E' 0183'              	clrf	_isdigit$727
  3458  000F' 0A83'              	incf	_isdigit$727,f
  3459  0010'                    l2854:
  3460  0010' 0C03'              	rrf	_isdigit$727,w
  3461  0011'                    l798:
  3462  0011' 0008               	return
  3463  0012'                    __end_of_isdigit:
  3464                           
  3465                           	psect	text6
  3466  0000'                    __ptext6:	
  3467 ;; *************** function _fround *****************
  3468 ;; Defined at:
  3469 ;;		line 417 in file "C:\Program Files\Microchip\xc8\v2.31\pic\sources\c90\common\doprnt.c"
  3470 ;; Parameters:    Size  Location     Type
  3471 ;;  prec            1    wreg     unsigned char 
  3472 ;; Auto vars:     Size  Location     Type
  3473 ;;  prec            1   55[BANK0 ] unsigned char 
  3474 ;; Return value:  Size  Location     Type
  3475 ;;                  4   36[BANK0 ] unsigned char 
  3476 ;; Registers used:
  3477 ;;		wreg, fsr0l, fsr0h, status,2, status,0, btemp+1, pclath, cstack
  3478 ;; Tracked objects:
  3479 ;;		On entry : 0/0
  3480 ;;		On exit  : 0/0
  3481 ;;		Unchanged: 0/0
  3482 ;; Data sizes:     COMMON   BANK0   BANK1   BANK3   BANK2
  3483 ;;      Params:         0       4       0       0       0
  3484 ;;      Locals:         0       9       0       0       0
  3485 ;;      Temps:          0       7       0       0       0
  3486 ;;      Totals:         0      20       0       0       0
  3487 ;;Total ram usage:       20 bytes
  3488 ;; Hardware stack levels used:    1
  3489 ;; Hardware stack levels required when called:    3
  3490 ;; This function calls:
  3491 ;;		___flmul
  3492 ;;		___lwdiv
  3493 ;;		___lwmod
  3494 ;; This function is called by:
  3495 ;;		_sprintf
  3496 ;; This function uses a non-reentrant model
  3497 ;;
  3498                           
  3499                           
  3500                           ;psect for function _fround
  3501  0000'                    _fround:
  3502                           
  3503                           ;incstack = 0
  3504                           ; Regs used in _fround: [wreg-fsr0h+status,2+status,0+btemp+1+pclath+cstack]
  3505                           ;fround@prec stored from wreg
  3506  0000' 1283               	bcf	3,5	;RP0=0, select bank0
  3507  0001' 1303               	bcf	3,6	;RP1=0, select bank0
  3508  0002' 00B7'              	movwf	fround@prec
  3509  0003'                    l2788:
  3510                           
  3511                           ;C:\Program Files\Microchip\xc8\v2.31\pic\sources\c90\common\doprnt.c: 417: fround(unsig
      +                          ned char prec);C:\Program Files\Microchip\xc8\v2.31\pic\sources\c90\common\doprnt.c: 418
      +                          : {;C:\Program Files\Microchip\xc8\v2.31\pic\sources\c90\common\doprnt.c: 421:  if(prec>
      +                          =110)
  3512  0003' 306E               	movlw	110
  3513  0004' 0237'              	subwf	fround@prec,w
  3514  0005' 1C03               	skipc
  3515  0006' 2800'              	goto	u4291
  3516  0007' 2800'              	goto	u4290
  3517  0008'                    u4291:
  3518  0008' 2800'              	goto	l2796
  3519  0009'                    u4290:
  3520  0009'                    l2790:
  3521                           
  3522                           ;C:\Program Files\Microchip\xc8\v2.31\pic\sources\c90\common\doprnt.c: 422:   return 0.5
      +                           * _npowers_[prec/100U+18U] * _npowers_[(prec%100U)/10U+9U] * _npowers_[prec%10U];
  3523  0009' 303F               	movlw	63
  3524  000A' 008D'              	movwf	___flmul@b+3
  3525  000B' 3000               	movlw	0
  3526  000C' 008C'              	movwf	___flmul@b+2
  3527  000D' 3000               	movlw	0
  3528  000E' 008B'              	movwf	___flmul@b+1
  3529  000F' 3000               	movlw	0
  3530  0010' 008A'              	movwf	___flmul@b
  3531  0011' 3064               	movlw	100
  3532  0012' 0080'              	movwf	___lwdiv@divisor
  3533  0013' 3000               	movlw	0
  3534  0014' 0081'              	movwf	___lwdiv@divisor+1
  3535  0015' 0837'              	movf	fround@prec,w
  3536  0016' 00A8'              	movwf	??_fround
  3537  0017' 01A9'              	clrf	??_fround+1
  3538  0018' 0828'              	movf	??_fround,w
  3539  0019' 0082'              	movwf	___lwdiv@dividend
  3540  001A' 0829'              	movf	??_fround+1,w
  3541  001B' 0083'              	movwf	___lwdiv@dividend+1
  3542  001C' 120A' 118A' 2000' 120A' 118A' 	fcall	___lwdiv
  3543  0021' 1283               	bcf	3,5	;RP0=0, select bank0
  3544  0022' 1303               	bcf	3,6	;RP1=0, select bank0
  3545  0023' 0800'              	movf	?___lwdiv,w
  3546  0024' 00AA'              	movwf	??_fround+2
  3547  0025' 3001               	movlw	1
  3548  0026'                    u4305:
  3549  0026' 1003               	clrc
  3550  0027' 0DAA'              	rlf	??_fround+2,f
  3551  0028' 3EFF               	addlw	-1
  3552  0029' 1D03               	skipz
  3553  002A' 2800'              	goto	u4305
  3554  002B' 1003               	clrc
  3555  002C' 0D2A'              	rlf	??_fround+2,w
  3556  002D' 3E7D               	addlw	low (((__npowers_-__stringbase)| (0+32768)+72))
  3557  002E' 0084               	movwf	4
  3558  002F' 120A' 118A' 2000' 120A' 118A' 	fcall	stringdir
  3559  0034' 00AB'              	movwf	??_fround+3
  3560  0035' 120A' 118A' 2000' 120A' 118A' 	fcall	stringdir
  3561  003A' 00AC'              	movwf	??_fround+4
  3562  003B' 120A' 118A' 2000' 120A' 118A' 	fcall	stringdir
  3563  0040' 00AD'              	movwf	??_fround+5
  3564  0041' 120A' 118A' 2000' 120A' 118A' 	fcall	stringdir
  3565  0046' 00AE'              	movwf	??_fround+6
  3566  0047' 082E'              	movf	??_fround+6,w
  3567  0048' 0091'              	movwf	___flmul@a+3
  3568  0049' 082D'              	movf	??_fround+5,w
  3569  004A' 0090'              	movwf	___flmul@a+2
  3570  004B' 082C'              	movf	??_fround+4,w
  3571  004C' 008F'              	movwf	___flmul@a+1
  3572  004D' 082B'              	movf	??_fround+3,w
  3573  004E' 008E'              	movwf	___flmul@a
  3574  004F' 120A' 118A' 2000' 120A' 118A' 	fcall	___flmul
  3575  0054' 1283               	bcf	3,5	;RP0=0, select bank0
  3576  0055' 1303               	bcf	3,6	;RP1=0, select bank0
  3577  0056' 080D'              	movf	?___flmul+3,w
  3578  0057' 00B6'              	movwf	_fround$896+3
  3579  0058' 080C'              	movf	?___flmul+2,w
  3580  0059' 00B5'              	movwf	_fround$896+2
  3581  005A' 080B'              	movf	?___flmul+1,w
  3582  005B' 00B4'              	movwf	_fround$896+1
  3583  005C' 080A'              	movf	?___flmul,w
  3584  005D' 00B3'              	movwf	_fround$896
  3585                           
  3586                           ;C:\Program Files\Microchip\xc8\v2.31\pic\sources\c90\common\doprnt.c: 422:   return 0.5
      +                           * _npowers_[prec/100U+18U] * _npowers_[(prec%100U)/10U+9U] * _npowers_[prec%10U];
  3587  005E' 300A               	movlw	10
  3588  005F' 0080'              	movwf	___lwdiv@divisor
  3589  0060' 3000               	movlw	0
  3590  0061' 0081'              	movwf	___lwdiv@divisor+1
  3591  0062' 0837'              	movf	fround@prec,w
  3592  0063' 00A8'              	movwf	??_fround
  3593  0064' 01A9'              	clrf	??_fround+1
  3594  0065' 0828'              	movf	??_fround,w
  3595  0066' 0085'              	movwf	___lwmod@dividend
  3596  0067' 0829'              	movf	??_fround+1,w
  3597  0068' 0086'              	movwf	___lwmod@dividend+1
  3598  0069' 3064               	movlw	100
  3599  006A' 0083'              	movwf	___lwmod@divisor
  3600  006B' 3000               	movlw	0
  3601  006C' 0084'              	movwf	___lwmod@divisor+1
  3602  006D' 120A' 118A' 2000' 120A' 118A' 	fcall	___lwmod
  3603  0072' 0804'              	movf	?___lwmod+1,w
  3604  0073' 1283               	bcf	3,5	;RP0=0, select bank0
  3605  0074' 1303               	bcf	3,6	;RP1=0, select bank0
  3606  0075' 0083'              	movwf	___lwdiv@dividend+1
  3607  0076' 0803'              	movf	?___lwmod,w
  3608  0077' 0082'              	movwf	___lwdiv@dividend
  3609  0078' 120A' 118A' 2000' 120A' 118A' 	fcall	___lwdiv
  3610  007D' 1283               	bcf	3,5	;RP0=0, select bank0
  3611  007E' 1303               	bcf	3,6	;RP1=0, select bank0
  3612  007F' 0800'              	movf	?___lwdiv,w
  3613  0080' 00AA'              	movwf	??_fround+2
  3614  0081' 3001               	movlw	1
  3615  0082'                    u4315:
  3616  0082' 1003               	clrc
  3617  0083' 0DAA'              	rlf	??_fround+2,f
  3618  0084' 3EFF               	addlw	-1
  3619  0085' 1D03               	skipz
  3620  0086' 2800'              	goto	u4315
  3621  0087' 1003               	clrc
  3622  0088' 0D2A'              	rlf	??_fround+2,w
  3623  0089' 3E59               	addlw	low (((__npowers_-__stringbase)| (0+32768)+36))
  3624  008A' 0084               	movwf	4
  3625  008B' 120A' 118A' 2000' 120A' 118A' 	fcall	stringdir
  3626  0090' 00AB'              	movwf	??_fround+3
  3627  0091' 120A' 118A' 2000' 120A' 118A' 	fcall	stringdir
  3628  0096' 00AC'              	movwf	??_fround+4
  3629  0097' 120A' 118A' 2000' 120A' 118A' 	fcall	stringdir
  3630  009C' 00AD'              	movwf	??_fround+5
  3631  009D' 120A' 118A' 2000' 120A' 118A' 	fcall	stringdir
  3632  00A2' 00AE'              	movwf	??_fround+6
  3633  00A3' 082E'              	movf	??_fround+6,w
  3634  00A4' 008D'              	movwf	___flmul@b+3
  3635  00A5' 082D'              	movf	??_fround+5,w
  3636  00A6' 008C'              	movwf	___flmul@b+2
  3637  00A7' 082C'              	movf	??_fround+4,w
  3638  00A8' 008B'              	movwf	___flmul@b+1
  3639  00A9' 082B'              	movf	??_fround+3,w
  3640  00AA' 008A'              	movwf	___flmul@b
  3641  00AB' 0836'              	movf	_fround$896+3,w
  3642  00AC' 0091'              	movwf	___flmul@a+3
  3643  00AD' 0835'              	movf	_fround$896+2,w
  3644  00AE' 0090'              	movwf	___flmul@a+2
  3645  00AF' 0834'              	movf	_fround$896+1,w
  3646  00B0' 008F'              	movwf	___flmul@a+1
  3647  00B1' 0833'              	movf	_fround$896,w
  3648  00B2' 008E'              	movwf	___flmul@a
  3649  00B3' 120A' 118A' 2000' 120A' 118A' 	fcall	___flmul
  3650  00B8' 1283               	bcf	3,5	;RP0=0, select bank0
  3651  00B9' 1303               	bcf	3,6	;RP1=0, select bank0
  3652  00BA' 080D'              	movf	?___flmul+3,w
  3653  00BB' 00B2'              	movwf	_fround$897+3
  3654  00BC' 080C'              	movf	?___flmul+2,w
  3655  00BD' 00B1'              	movwf	_fround$897+2
  3656  00BE' 080B'              	movf	?___flmul+1,w
  3657  00BF' 00B0'              	movwf	_fround$897+1
  3658  00C0' 080A'              	movf	?___flmul,w
  3659  00C1' 00AF'              	movwf	_fround$897
  3660                           
  3661                           ;C:\Program Files\Microchip\xc8\v2.31\pic\sources\c90\common\doprnt.c: 422:   return 0.5
      +                           * _npowers_[prec/100U+18U] * _npowers_[(prec%100U)/10U+9U] * _npowers_[prec%10U];
  3662  00C2' 300A               	movlw	10
  3663  00C3' 0083'              	movwf	___lwmod@divisor
  3664  00C4' 3000               	movlw	0
  3665  00C5' 0084'              	movwf	___lwmod@divisor+1
  3666  00C6' 0837'              	movf	fround@prec,w
  3667  00C7' 00A8'              	movwf	??_fround
  3668  00C8' 01A9'              	clrf	??_fround+1
  3669  00C9' 0828'              	movf	??_fround,w
  3670  00CA' 0085'              	movwf	___lwmod@dividend
  3671  00CB' 0829'              	movf	??_fround+1,w
  3672  00CC' 0086'              	movwf	___lwmod@dividend+1
  3673  00CD' 120A' 118A' 2000' 120A' 118A' 	fcall	___lwmod
  3674  00D2' 0803'              	movf	?___lwmod,w
  3675  00D3' 1283               	bcf	3,5	;RP0=0, select bank0
  3676  00D4' 1303               	bcf	3,6	;RP1=0, select bank0
  3677  00D5' 00AA'              	movwf	??_fround+2
  3678  00D6' 3001               	movlw	1
  3679  00D7'                    u4325:
  3680  00D7' 1003               	clrc
  3681  00D8' 0DAA'              	rlf	??_fround+2,f
  3682  00D9' 3EFF               	addlw	-1
  3683  00DA' 1D03               	skipz
  3684  00DB' 2800'              	goto	u4325
  3685  00DC' 1003               	clrc
  3686  00DD' 0D2A'              	rlf	??_fround+2,w
  3687  00DE' 3E35               	addlw	low ((__npowers_-__stringbase)| (0+32768))
  3688  00DF' 0084               	movwf	4
  3689  00E0' 120A' 118A' 2000' 120A' 118A' 	fcall	stringdir
  3690  00E5' 00AB'              	movwf	??_fround+3
  3691  00E6' 120A' 118A' 2000' 120A' 118A' 	fcall	stringdir
  3692  00EB' 00AC'              	movwf	??_fround+4
  3693  00EC' 120A' 118A' 2000' 120A' 118A' 	fcall	stringdir
  3694  00F1' 00AD'              	movwf	??_fround+5
  3695  00F2' 120A' 118A' 2000' 120A' 118A' 	fcall	stringdir
  3696  00F7' 00AE'              	movwf	??_fround+6
  3697  00F8' 082E'              	movf	??_fround+6,w
  3698  00F9' 008D'              	movwf	___flmul@b+3
  3699  00FA' 082D'              	movf	??_fround+5,w
  3700  00FB' 008C'              	movwf	___flmul@b+2
  3701  00FC' 082C'              	movf	??_fround+4,w
  3702  00FD' 008B'              	movwf	___flmul@b+1
  3703  00FE' 082B'              	movf	??_fround+3,w
  3704  00FF' 008A'              	movwf	___flmul@b
  3705  0100' 0832'              	movf	_fround$897+3,w
  3706  0101' 0091'              	movwf	___flmul@a+3
  3707  0102' 0831'              	movf	_fround$897+2,w
  3708  0103' 0090'              	movwf	___flmul@a+2
  3709  0104' 0830'              	movf	_fround$897+1,w
  3710  0105' 008F'              	movwf	___flmul@a+1
  3711  0106' 082F'              	movf	_fround$897,w
  3712  0107' 008E'              	movwf	___flmul@a
  3713  0108' 120A' 118A' 2000' 120A' 118A' 	fcall	___flmul
  3714  010D' 1283               	bcf	3,5	;RP0=0, select bank0
  3715  010E' 1303               	bcf	3,6	;RP1=0, select bank0
  3716  010F' 080D'              	movf	?___flmul+3,w
  3717  0110' 00A7'              	movwf	?_fround+3
  3718  0111' 080C'              	movf	?___flmul+2,w
  3719  0112' 00A6'              	movwf	?_fround+2
  3720  0113' 080B'              	movf	?___flmul+1,w
  3721  0114' 00A5'              	movwf	?_fround+1
  3722  0115' 080A'              	movf	?___flmul,w
  3723  0116' 00A4'              	movwf	?_fround
  3724  0117' 2800'              	goto	l208
  3725  0118'                    l2796:
  3726  0118' 300B               	movlw	11
  3727  0119' 0237'              	subwf	fround@prec,w
  3728  011A' 1C03               	skipc
  3729  011B' 2800'              	goto	u4331
  3730  011C' 2800'              	goto	u4330
  3731  011D'                    u4331:
  3732  011D' 2800'              	goto	l2802
  3733  011E'                    u4330:
  3734  011E'                    l2798:
  3735                           
  3736                           ;C:\Program Files\Microchip\xc8\v2.31\pic\sources\c90\common\doprnt.c: 424:   return 0.5
      +                           * _npowers_[prec/10U+9U] * _npowers_[prec%10U];
  3737  011E' 303F               	movlw	63
  3738  011F' 008D'              	movwf	___flmul@b+3
  3739  0120' 3000               	movlw	0
  3740  0121' 008C'              	movwf	___flmul@b+2
  3741  0122' 3000               	movlw	0
  3742  0123' 008B'              	movwf	___flmul@b+1
  3743  0124' 3000               	movlw	0
  3744  0125' 008A'              	movwf	___flmul@b
  3745  0126' 300A               	movlw	10
  3746  0127' 0080'              	movwf	___lwdiv@divisor
  3747  0128' 3000               	movlw	0
  3748  0129' 0081'              	movwf	___lwdiv@divisor+1
  3749  012A' 0837'              	movf	fround@prec,w
  3750  012B' 00A8'              	movwf	??_fround
  3751  012C' 01A9'              	clrf	??_fround+1
  3752  012D' 0828'              	movf	??_fround,w
  3753  012E' 0082'              	movwf	___lwdiv@dividend
  3754  012F' 0829'              	movf	??_fround+1,w
  3755  0130' 0083'              	movwf	___lwdiv@dividend+1
  3756  0131' 120A' 118A' 2000' 120A' 118A' 	fcall	___lwdiv
  3757  0136' 1283               	bcf	3,5	;RP0=0, select bank0
  3758  0137' 1303               	bcf	3,6	;RP1=0, select bank0
  3759  0138' 0800'              	movf	?___lwdiv,w
  3760  0139' 00AA'              	movwf	??_fround+2
  3761  013A' 3001               	movlw	1
  3762  013B'                    u4345:
  3763  013B' 1003               	clrc
  3764  013C' 0DAA'              	rlf	??_fround+2,f
  3765  013D' 3EFF               	addlw	-1
  3766  013E' 1D03               	skipz
  3767  013F' 2800'              	goto	u4345
  3768  0140' 1003               	clrc
  3769  0141' 0D2A'              	rlf	??_fround+2,w
  3770  0142' 3E59               	addlw	low (((__npowers_-__stringbase)| (0+32768)+36))
  3771  0143' 0084               	movwf	4
  3772  0144' 120A' 118A' 2000' 120A' 118A' 	fcall	stringdir
  3773  0149' 00AB'              	movwf	??_fround+3
  3774  014A' 120A' 118A' 2000' 120A' 118A' 	fcall	stringdir
  3775  014F' 00AC'              	movwf	??_fround+4
  3776  0150' 120A' 118A' 2000' 120A' 118A' 	fcall	stringdir
  3777  0155' 00AD'              	movwf	??_fround+5
  3778  0156' 120A' 118A' 2000' 120A' 118A' 	fcall	stringdir
  3779  015B' 00AE'              	movwf	??_fround+6
  3780  015C' 082E'              	movf	??_fround+6,w
  3781  015D' 0091'              	movwf	___flmul@a+3
  3782  015E' 082D'              	movf	??_fround+5,w
  3783  015F' 0090'              	movwf	___flmul@a+2
  3784  0160' 082C'              	movf	??_fround+4,w
  3785  0161' 008F'              	movwf	___flmul@a+1
  3786  0162' 082B'              	movf	??_fround+3,w
  3787  0163' 008E'              	movwf	___flmul@a
  3788  0164' 120A' 118A' 2000' 120A' 118A' 	fcall	___flmul
  3789  0169' 1283               	bcf	3,5	;RP0=0, select bank0
  3790  016A' 1303               	bcf	3,6	;RP1=0, select bank0
  3791  016B' 080D'              	movf	?___flmul+3,w
  3792  016C' 00B6'              	movwf	_fround$896+3
  3793  016D' 080C'              	movf	?___flmul+2,w
  3794  016E' 00B5'              	movwf	_fround$896+2
  3795  016F' 080B'              	movf	?___flmul+1,w
  3796  0170' 00B4'              	movwf	_fround$896+1
  3797  0171' 080A'              	movf	?___flmul,w
  3798  0172' 00B3'              	movwf	_fround$896
  3799                           
  3800                           ;C:\Program Files\Microchip\xc8\v2.31\pic\sources\c90\common\doprnt.c: 424:   return 0.5
      +                           * _npowers_[prec/10U+9U] * _npowers_[prec%10U];
  3801  0173' 300A               	movlw	10
  3802  0174' 0083'              	movwf	___lwmod@divisor
  3803  0175' 3000               	movlw	0
  3804  0176' 0084'              	movwf	___lwmod@divisor+1
  3805  0177' 0837'              	movf	fround@prec,w
  3806  0178' 00A8'              	movwf	??_fround
  3807  0179' 01A9'              	clrf	??_fround+1
  3808  017A' 0828'              	movf	??_fround,w
  3809  017B' 0085'              	movwf	___lwmod@dividend
  3810  017C' 0829'              	movf	??_fround+1,w
  3811  017D' 0086'              	movwf	___lwmod@dividend+1
  3812  017E' 120A' 118A' 2000' 120A' 118A' 	fcall	___lwmod
  3813  0183' 0803'              	movf	?___lwmod,w
  3814  0184' 1283               	bcf	3,5	;RP0=0, select bank0
  3815  0185' 1303               	bcf	3,6	;RP1=0, select bank0
  3816  0186' 00AA'              	movwf	??_fround+2
  3817  0187' 3001               	movlw	1
  3818  0188'                    u4355:
  3819  0188' 1003               	clrc
  3820  0189' 0DAA'              	rlf	??_fround+2,f
  3821  018A' 3EFF               	addlw	-1
  3822  018B' 1D03               	skipz
  3823  018C' 2800'              	goto	u4355
  3824  018D' 1003               	clrc
  3825  018E' 0D2A'              	rlf	??_fround+2,w
  3826  018F' 3E35               	addlw	low ((__npowers_-__stringbase)| (0+32768))
  3827  0190' 0084               	movwf	4
  3828  0191' 120A' 118A' 2000' 120A' 118A' 	fcall	stringdir
  3829  0196' 00AB'              	movwf	??_fround+3
  3830  0197' 120A' 118A' 2000' 120A' 118A' 	fcall	stringdir
  3831  019C' 00AC'              	movwf	??_fround+4
  3832  019D' 120A' 118A' 2000' 120A' 118A' 	fcall	stringdir
  3833  01A2' 00AD'              	movwf	??_fround+5
  3834  01A3' 120A' 118A' 2000' 120A' 118A' 	fcall	stringdir
  3835  01A8' 00AE'              	movwf	??_fround+6
  3836  01A9' 082E'              	movf	??_fround+6,w
  3837  01AA' 008D'              	movwf	___flmul@b+3
  3838  01AB' 082D'              	movf	??_fround+5,w
  3839  01AC' 008C'              	movwf	___flmul@b+2
  3840  01AD' 082C'              	movf	??_fround+4,w
  3841  01AE' 008B'              	movwf	___flmul@b+1
  3842  01AF' 082B'              	movf	??_fround+3,w
  3843  01B0' 008A'              	movwf	___flmul@b
  3844  01B1' 0836'              	movf	_fround$896+3,w
  3845  01B2' 0091'              	movwf	___flmul@a+3
  3846  01B3' 0835'              	movf	_fround$896+2,w
  3847  01B4' 0090'              	movwf	___flmul@a+2
  3848  01B5' 0834'              	movf	_fround$896+1,w
  3849  01B6' 008F'              	movwf	___flmul@a+1
  3850  01B7' 0833'              	movf	_fround$896,w
  3851  01B8' 008E'              	movwf	___flmul@a
  3852  01B9' 120A' 118A' 2000' 120A' 118A' 	fcall	___flmul
  3853  01BE' 1283               	bcf	3,5	;RP0=0, select bank0
  3854  01BF' 1303               	bcf	3,6	;RP1=0, select bank0
  3855  01C0' 080D'              	movf	?___flmul+3,w
  3856  01C1' 00A7'              	movwf	?_fround+3
  3857  01C2' 080C'              	movf	?___flmul+2,w
  3858  01C3' 00A6'              	movwf	?_fround+2
  3859  01C4' 080B'              	movf	?___flmul+1,w
  3860  01C5' 00A5'              	movwf	?_fround+1
  3861  01C6' 080A'              	movf	?___flmul,w
  3862  01C7' 00A4'              	movwf	?_fround
  3863  01C8' 2800'              	goto	l208
  3864  01C9'                    l2802:
  3865                           
  3866                           ;C:\Program Files\Microchip\xc8\v2.31\pic\sources\c90\common\doprnt.c: 425:  return 0.5 
      +                          * _npowers_[prec];
  3867  01C9' 303F               	movlw	63
  3868  01CA' 008D'              	movwf	___flmul@b+3
  3869  01CB' 3000               	movlw	0
  3870  01CC' 008C'              	movwf	___flmul@b+2
  3871  01CD' 3000               	movlw	0
  3872  01CE' 008B'              	movwf	___flmul@b+1
  3873  01CF' 3000               	movlw	0
  3874  01D0' 008A'              	movwf	___flmul@b
  3875  01D1' 0837'              	movf	fround@prec,w
  3876  01D2' 00A8'              	movwf	??_fround
  3877  01D3' 3001               	movlw	1
  3878  01D4'                    u4365:
  3879  01D4' 1003               	clrc
  3880  01D5' 0DA8'              	rlf	??_fround,f
  3881  01D6' 3EFF               	addlw	-1
  3882  01D7' 1D03               	skipz
  3883  01D8' 2800'              	goto	u4365
  3884  01D9' 1003               	clrc
  3885  01DA' 0D28'              	rlf	??_fround,w
  3886  01DB' 3E35               	addlw	low ((__npowers_-__stringbase)| (0+32768))
  3887  01DC' 0084               	movwf	4
  3888  01DD' 120A' 118A' 2000' 120A' 118A' 	fcall	stringdir
  3889  01E2' 00A9'              	movwf	??_fround+1
  3890  01E3' 120A' 118A' 2000' 120A' 118A' 	fcall	stringdir
  3891  01E8' 00AA'              	movwf	??_fround+2
  3892  01E9' 120A' 118A' 2000' 120A' 118A' 	fcall	stringdir
  3893  01EE' 00AB'              	movwf	??_fround+3
  3894  01EF' 120A' 118A' 2000' 120A' 118A' 	fcall	stringdir
  3895  01F4' 00AC'              	movwf	??_fround+4
  3896  01F5' 082C'              	movf	??_fround+4,w
  3897  01F6' 0091'              	movwf	___flmul@a+3
  3898  01F7' 082B'              	movf	??_fround+3,w
  3899  01F8' 0090'              	movwf	___flmul@a+2
  3900  01F9' 082A'              	movf	??_fround+2,w
  3901  01FA' 008F'              	movwf	___flmul@a+1
  3902  01FB' 0829'              	movf	??_fround+1,w
  3903  01FC' 008E'              	movwf	___flmul@a
  3904  01FD' 120A' 118A' 2000' 120A' 118A' 	fcall	___flmul
  3905  0202' 1283               	bcf	3,5	;RP0=0, select bank0
  3906  0203' 1303               	bcf	3,6	;RP1=0, select bank0
  3907  0204' 080D'              	movf	?___flmul+3,w
  3908  0205' 00A7'              	movwf	?_fround+3
  3909  0206' 080C'              	movf	?___flmul+2,w
  3910  0207' 00A6'              	movwf	?_fround+2
  3911  0208' 080B'              	movf	?___flmul+1,w
  3912  0209' 00A5'              	movwf	?_fround+1
  3913  020A' 080A'              	movf	?___flmul,w
  3914  020B' 00A4'              	movwf	?_fround
  3915  020C'                    l208:
  3916  020C' 0008               	return
  3917  020D'                    __end_of_fround:
  3918                           
  3919                           	psect	text7
  3920  0000'                    __ptext7:	
  3921 ;; *************** function ___lwmod *****************
  3922 ;; Defined at:
  3923 ;;		line 5 in file "C:\Program Files\Microchip\xc8\v2.31\pic\sources\c90\common\lwmod.c"
  3924 ;; Parameters:    Size  Location     Type
  3925 ;;  divisor         2    3[COMMON] unsigned int 
  3926 ;;  dividend        2    5[COMMON] unsigned int 
  3927 ;; Auto vars:     Size  Location     Type
  3928 ;;  counter         1    8[COMMON] unsigned char 
  3929 ;; Return value:  Size  Location     Type
  3930 ;;                  2    3[COMMON] unsigned int 
  3931 ;; Registers used:
  3932 ;;		wreg, status,2, status,0
  3933 ;; Tracked objects:
  3934 ;;		On entry : 0/0
  3935 ;;		On exit  : 0/0
  3936 ;;		Unchanged: 0/0
  3937 ;; Data sizes:     COMMON   BANK0   BANK1   BANK3   BANK2
  3938 ;;      Params:         4       0       0       0       0
  3939 ;;      Locals:         1       0       0       0       0
  3940 ;;      Temps:          1       0       0       0       0
  3941 ;;      Totals:         6       0       0       0       0
  3942 ;;Total ram usage:        6 bytes
  3943 ;; Hardware stack levels used:    1
  3944 ;; Hardware stack levels required when called:    1
  3945 ;; This function calls:
  3946 ;;		Nothing
  3947 ;; This function is called by:
  3948 ;;		_fround
  3949 ;; This function uses a non-reentrant model
  3950 ;;
  3951                           
  3952                           
  3953                           ;psect for function ___lwmod
  3954  0000'                    ___lwmod:
  3955  0000'                    l2432:	
  3956                           ;incstack = 0
  3957                           ; Regs used in ___lwmod: [wreg+status,2+status,0]
  3958                           
  3959  0000' 0803'              	movf	___lwmod@divisor,w
  3960  0001' 0404'              	iorwf	___lwmod@divisor+1,w
  3961  0002' 1903               	btfsc	3,2
  3962  0003' 2800'              	goto	u3401
  3963  0004' 2800'              	goto	u3400
  3964  0005'                    u3401:
  3965  0005' 2800'              	goto	l2450
  3966  0006'                    u3400:
  3967  0006'                    l2434:
  3968  0006' 0188'              	clrf	___lwmod@counter
  3969  0007' 0A88'              	incf	___lwmod@counter,f
  3970  0008' 2800'              	goto	l2440
  3971  0009'                    l2436:
  3972  0009' 3001               	movlw	1
  3973  000A'                    u3415:
  3974  000A' 1003               	clrc
  3975  000B' 0D83'              	rlf	___lwmod@divisor,f
  3976  000C' 0D84'              	rlf	___lwmod@divisor+1,f
  3977  000D' 3EFF               	addlw	-1
  3978  000E' 1D03               	skipz
  3979  000F' 2800'              	goto	u3415
  3980  0010'                    l2438:
  3981  0010' 3001               	movlw	1
  3982  0011' 0087'              	movwf	??___lwmod
  3983  0012' 0807'              	movf	??___lwmod,w
  3984  0013' 0788'              	addwf	___lwmod@counter,f
  3985  0014'                    l2440:
  3986  0014' 1F84'              	btfss	___lwmod@divisor+1,7
  3987  0015' 2800'              	goto	u3421
  3988  0016' 2800'              	goto	u3420
  3989  0017'                    u3421:
  3990  0017' 2800'              	goto	l2436
  3991  0018'                    u3420:
  3992  0018'                    l2442:
  3993  0018' 0804'              	movf	___lwmod@divisor+1,w
  3994  0019' 0206'              	subwf	___lwmod@dividend+1,w
  3995  001A' 1D03               	skipz
  3996  001B' 2800'              	goto	u3435
  3997  001C' 0803'              	movf	___lwmod@divisor,w
  3998  001D' 0205'              	subwf	___lwmod@dividend,w
  3999  001E'                    u3435:
  4000  001E' 1C03               	skipc
  4001  001F' 2800'              	goto	u3431
  4002  0020' 2800'              	goto	u3430
  4003  0021'                    u3431:
  4004  0021' 2800'              	goto	l2446
  4005  0022'                    u3430:
  4006  0022'                    l2444:
  4007  0022' 0803'              	movf	___lwmod@divisor,w
  4008  0023' 0285'              	subwf	___lwmod@dividend,f
  4009  0024' 0804'              	movf	___lwmod@divisor+1,w
  4010  0025' 1C03               	skipc
  4011  0026' 0386'              	decf	___lwmod@dividend+1,f
  4012  0027' 0286'              	subwf	___lwmod@dividend+1,f
  4013  0028'                    l2446:
  4014  0028' 3001               	movlw	1
  4015  0029'                    u3445:
  4016  0029' 1003               	clrc
  4017  002A' 0C84'              	rrf	___lwmod@divisor+1,f
  4018  002B' 0C83'              	rrf	___lwmod@divisor,f
  4019  002C' 3EFF               	addlw	-1
  4020  002D' 1D03               	skipz
  4021  002E' 2800'              	goto	u3445
  4022  002F'                    l2448:
  4023  002F' 3001               	movlw	1
  4024  0030' 0288'              	subwf	___lwmod@counter,f
  4025  0031' 1D03               	btfss	3,2
  4026  0032' 2800'              	goto	u3451
  4027  0033' 2800'              	goto	u3450
  4028  0034'                    u3451:
  4029  0034' 2800'              	goto	l2442
  4030  0035'                    u3450:
  4031  0035'                    l2450:
  4032  0035' 0806'              	movf	___lwmod@dividend+1,w
  4033  0036' 0084'              	movwf	?___lwmod+1
  4034  0037' 0805'              	movf	___lwmod@dividend,w
  4035  0038' 0083'              	movwf	?___lwmod
  4036  0039'                    l627:
  4037  0039' 0008               	return
  4038  003A'                    __end_of___lwmod:
  4039                           
  4040                           	psect	text8
  4041  0000'                    __ptext8:	
  4042 ;; *************** function ___lwdiv *****************
  4043 ;; Defined at:
  4044 ;;		line 5 in file "C:\Program Files\Microchip\xc8\v2.31\pic\sources\c90\common\lwdiv.c"
  4045 ;; Parameters:    Size  Location     Type
  4046 ;;  divisor         2    0[BANK0 ] unsigned int 
  4047 ;;  dividend        2    2[BANK0 ] unsigned int 
  4048 ;; Auto vars:     Size  Location     Type
  4049 ;;  quotient        2    4[BANK0 ] unsigned int 
  4050 ;;  counter         1    6[BANK0 ] unsigned char 
  4051 ;; Return value:  Size  Location     Type
  4052 ;;                  2    0[BANK0 ] unsigned int 
  4053 ;; Registers used:
  4054 ;;		wreg, status,2, status,0
  4055 ;; Tracked objects:
  4056 ;;		On entry : 0/0
  4057 ;;		On exit  : 0/0
  4058 ;;		Unchanged: 0/0
  4059 ;; Data sizes:     COMMON   BANK0   BANK1   BANK3   BANK2
  4060 ;;      Params:         0       4       0       0       0
  4061 ;;      Locals:         0       3       0       0       0
  4062 ;;      Temps:          1       0       0       0       0
  4063 ;;      Totals:         1       7       0       0       0
  4064 ;;Total ram usage:        8 bytes
  4065 ;; Hardware stack levels used:    1
  4066 ;; Hardware stack levels required when called:    1
  4067 ;; This function calls:
  4068 ;;		Nothing
  4069 ;; This function is called by:
  4070 ;;		_fround
  4071 ;; This function uses a non-reentrant model
  4072 ;;
  4073                           
  4074                           
  4075                           ;psect for function ___lwdiv
  4076  0000'                    ___lwdiv:
  4077  0000'                    l2406:	
  4078                           ;incstack = 0
  4079                           ; Regs used in ___lwdiv: [wreg+status,2+status,0]
  4080                           
  4081  0000' 1283               	bcf	3,5	;RP0=0, select bank0
  4082  0001' 1303               	bcf	3,6	;RP1=0, select bank0
  4083  0002' 0184'              	clrf	___lwdiv@quotient
  4084  0003' 0185'              	clrf	___lwdiv@quotient+1
  4085  0004'                    l2408:
  4086  0004' 0800'              	movf	___lwdiv@divisor,w
  4087  0005' 0401'              	iorwf	___lwdiv@divisor+1,w
  4088  0006' 1903               	btfsc	3,2
  4089  0007' 2800'              	goto	u3331
  4090  0008' 2800'              	goto	u3330
  4091  0009'                    u3331:
  4092  0009' 2800'              	goto	l2428
  4093  000A'                    u3330:
  4094  000A'                    l2410:
  4095  000A' 0186'              	clrf	___lwdiv@counter
  4096  000B' 0A86'              	incf	___lwdiv@counter,f
  4097  000C' 2800'              	goto	l2416
  4098  000D'                    l2412:
  4099  000D' 3001               	movlw	1
  4100  000E'                    u3345:
  4101  000E' 1003               	clrc
  4102  000F' 0D80'              	rlf	___lwdiv@divisor,f
  4103  0010' 0D81'              	rlf	___lwdiv@divisor+1,f
  4104  0011' 3EFF               	addlw	-1
  4105  0012' 1D03               	skipz
  4106  0013' 2800'              	goto	u3345
  4107  0014'                    l2414:
  4108  0014' 3001               	movlw	1
  4109  0015' 0089'              	movwf	??___lwdiv
  4110  0016' 0809'              	movf	??___lwdiv,w
  4111  0017' 0786'              	addwf	___lwdiv@counter,f
  4112  0018'                    l2416:
  4113  0018' 1F81'              	btfss	___lwdiv@divisor+1,7
  4114  0019' 2800'              	goto	u3351
  4115  001A' 2800'              	goto	u3350
  4116  001B'                    u3351:
  4117  001B' 2800'              	goto	l2412
  4118  001C'                    u3350:
  4119  001C'                    l2418:
  4120  001C' 3001               	movlw	1
  4121  001D'                    u3365:
  4122  001D' 1003               	clrc
  4123  001E' 0D84'              	rlf	___lwdiv@quotient,f
  4124  001F' 0D85'              	rlf	___lwdiv@quotient+1,f
  4125  0020' 3EFF               	addlw	-1
  4126  0021' 1D03               	skipz
  4127  0022' 2800'              	goto	u3365
  4128  0023' 0801'              	movf	___lwdiv@divisor+1,w
  4129  0024' 0203'              	subwf	___lwdiv@dividend+1,w
  4130  0025' 1D03               	skipz
  4131  0026' 2800'              	goto	u3375
  4132  0027' 0800'              	movf	___lwdiv@divisor,w
  4133  0028' 0202'              	subwf	___lwdiv@dividend,w
  4134  0029'                    u3375:
  4135  0029' 1C03               	skipc
  4136  002A' 2800'              	goto	u3371
  4137  002B' 2800'              	goto	u3370
  4138  002C'                    u3371:
  4139  002C' 2800'              	goto	l2424
  4140  002D'                    u3370:
  4141  002D'                    l2420:
  4142  002D' 0800'              	movf	___lwdiv@divisor,w
  4143  002E' 0282'              	subwf	___lwdiv@dividend,f
  4144  002F' 0801'              	movf	___lwdiv@divisor+1,w
  4145  0030' 1C03               	skipc
  4146  0031' 0383'              	decf	___lwdiv@dividend+1,f
  4147  0032' 0283'              	subwf	___lwdiv@dividend+1,f
  4148  0033'                    l2422:
  4149  0033' 1404'              	bsf	___lwdiv@quotient,0
  4150  0034'                    l2424:
  4151  0034' 3001               	movlw	1
  4152  0035'                    u3385:
  4153  0035' 1003               	clrc
  4154  0036' 0C81'              	rrf	___lwdiv@divisor+1,f
  4155  0037' 0C80'              	rrf	___lwdiv@divisor,f
  4156  0038' 3EFF               	addlw	-1
  4157  0039' 1D03               	skipz
  4158  003A' 2800'              	goto	u3385
  4159  003B'                    l2426:
  4160  003B' 3001               	movlw	1
  4161  003C' 0286'              	subwf	___lwdiv@counter,f
  4162  003D' 1D03               	btfss	3,2
  4163  003E' 2800'              	goto	u3391
  4164  003F' 2800'              	goto	u3390
  4165  0040'                    u3391:
  4166  0040' 2800'              	goto	l2418
  4167  0041'                    u3390:
  4168  0041'                    l2428:
  4169  0041' 0805'              	movf	___lwdiv@quotient+1,w
  4170  0042' 0081'              	movwf	?___lwdiv+1
  4171  0043' 0804'              	movf	___lwdiv@quotient,w
  4172  0044' 0080'              	movwf	?___lwdiv
  4173  0045'                    l617:
  4174  0045' 0008               	return
  4175  0046'                    __end_of___lwdiv:
  4176                           
  4177                           	psect	text9
  4178  0000'                    __ptext9:	
  4179 ;; *************** function __tdiv_to_l_ *****************
  4180 ;; Defined at:
  4181 ;;		line 60 in file "C:\Program Files\Microchip\xc8\v2.31\pic\sources\c90\common\ftdivl.c"
  4182 ;; Parameters:    Size  Location     Type
  4183 ;;  f1              4    0[BANK0 ] float 
  4184 ;;  f2              4    4[BANK0 ] float 
  4185 ;; Auto vars:     Size  Location     Type
  4186 ;;  quot            4    8[BANK0 ] unsigned long 
  4187 ;;  exp1            1   13[BANK0 ] unsigned char 
  4188 ;;  cntr            1   12[BANK0 ] unsigned char 
  4189 ;; Return value:  Size  Location     Type
  4190 ;;                  4    0[BANK0 ] unsigned long 
  4191 ;; Registers used:
  4192 ;;		wreg, status,2, status,0
  4193 ;; Tracked objects:
  4194 ;;		On entry : 0/0
  4195 ;;		On exit  : 0/0
  4196 ;;		Unchanged: 0/0
  4197 ;; Data sizes:     COMMON   BANK0   BANK1   BANK3   BANK2
  4198 ;;      Params:         0       8       0       0       0
  4199 ;;      Locals:         0       6       0       0       0
  4200 ;;      Temps:          4       0       0       0       0
  4201 ;;      Totals:         4      14       0       0       0
  4202 ;;Total ram usage:       18 bytes
  4203 ;; Hardware stack levels used:    1
  4204 ;; Hardware stack levels required when called:    1
  4205 ;; This function calls:
  4206 ;;		Nothing
  4207 ;; This function is called by:
  4208 ;;		_sprintf
  4209 ;; This function uses a non-reentrant model
  4210 ;;
  4211                           
  4212                           
  4213                           ;psect for function __tdiv_to_l_
  4214  0000'                    __tdiv_to_l_:
  4215  0000'                    l3820:	
  4216                           ;incstack = 0
  4217                           ; Regs used in __tdiv_to_l_: [wreg+status,2+status,0]
  4218                           
  4219  0000' 1283               	bcf	3,5	;RP0=0, select bank0
  4220  0001' 1303               	bcf	3,6	;RP1=0, select bank0
  4221  0002' 0800'              	movf	__tdiv_to_l_@f1,w
  4222  0003' 0083'              	movwf	??__tdiv_to_l_
  4223  0004' 0801'              	movf	__tdiv_to_l_@f1+1,w
  4224  0005' 0084'              	movwf	??__tdiv_to_l_+1
  4225  0006' 0802'              	movf	__tdiv_to_l_@f1+2,w
  4226  0007' 0085'              	movwf	??__tdiv_to_l_+2
  4227  0008' 1003               	clrc
  4228  0009' 0D04'              	rlf	??__tdiv_to_l_+1,w
  4229  000A' 0D05'              	rlf	??__tdiv_to_l_+2,w
  4230  000B' 0086'              	movwf	??__tdiv_to_l_+3
  4231  000C' 0806'              	movf	??__tdiv_to_l_+3,w
  4232  000D' 008D'              	movwf	__tdiv_to_l_@exp1
  4233  000E' 080D'              	movf	__tdiv_to_l_@exp1,w
  4234  000F' 1D03               	btfss	3,2
  4235  0010' 2800'              	goto	u6481
  4236  0011' 2800'              	goto	u6480
  4237  0012'                    u6481:
  4238  0012' 2800'              	goto	l3826
  4239  0013'                    u6480:
  4240  0013'                    l3822:
  4241  0013' 3000               	movlw	0
  4242  0014' 0083'              	movwf	?__tdiv_to_l_+3
  4243  0015' 3000               	movlw	0
  4244  0016' 0082'              	movwf	?__tdiv_to_l_+2
  4245  0017' 3000               	movlw	0
  4246  0018' 0081'              	movwf	?__tdiv_to_l_+1
  4247  0019' 3000               	movlw	0
  4248  001A' 0080'              	movwf	?__tdiv_to_l_
  4249  001B' 2800'              	goto	l528
  4250  001C'                    l3826:
  4251  001C' 0804'              	movf	__tdiv_to_l_@f2,w
  4252  001D' 0083'              	movwf	??__tdiv_to_l_
  4253  001E' 0805'              	movf	__tdiv_to_l_@f2+1,w
  4254  001F' 0084'              	movwf	??__tdiv_to_l_+1
  4255  0020' 0806'              	movf	__tdiv_to_l_@f2+2,w
  4256  0021' 0085'              	movwf	??__tdiv_to_l_+2
  4257  0022' 1003               	clrc
  4258  0023' 0D04'              	rlf	??__tdiv_to_l_+1,w
  4259  0024' 0D05'              	rlf	??__tdiv_to_l_+2,w
  4260  0025' 0086'              	movwf	??__tdiv_to_l_+3
  4261  0026' 0806'              	movf	??__tdiv_to_l_+3,w
  4262  0027' 008C'              	movwf	__tdiv_to_l_@cntr
  4263  0028' 080C'              	movf	__tdiv_to_l_@cntr,w
  4264  0029' 1D03               	btfss	3,2
  4265  002A' 2800'              	goto	u6491
  4266  002B' 2800'              	goto	u6490
  4267  002C'                    u6491:
  4268  002C' 2800'              	goto	l529
  4269  002D'                    u6490:
  4270  002D' 2800'              	goto	l3822
  4271  002E'                    l529:
  4272  002E' 1781'              	bsf	__tdiv_to_l_@f1+1,7
  4273  002F'                    l3832:
  4274  002F' 30FF               	movlw	255
  4275  0030' 0580'              	andwf	__tdiv_to_l_@f1,f
  4276  0031' 30FF               	movlw	255
  4277  0032' 0581'              	andwf	__tdiv_to_l_@f1+1,f
  4278  0033' 3000               	movlw	0
  4279  0034' 0582'              	andwf	__tdiv_to_l_@f1+2,f
  4280  0035'                    l3834:
  4281  0035' 1785'              	bsf	__tdiv_to_l_@f2+1,7
  4282  0036' 30FF               	movlw	255
  4283  0037' 0584'              	andwf	__tdiv_to_l_@f2,f
  4284  0038' 30FF               	movlw	255
  4285  0039' 0585'              	andwf	__tdiv_to_l_@f2+1,f
  4286  003A' 3000               	movlw	0
  4287  003B' 0586'              	andwf	__tdiv_to_l_@f2+2,f
  4288  003C' 3000               	movlw	0
  4289  003D' 008B'              	movwf	__tdiv_to_l_@quot+3
  4290  003E' 3000               	movlw	0
  4291  003F' 008A'              	movwf	__tdiv_to_l_@quot+2
  4292  0040' 3000               	movlw	0
  4293  0041' 0089'              	movwf	__tdiv_to_l_@quot+1
  4294  0042' 3000               	movlw	0
  4295  0043' 0088'              	movwf	__tdiv_to_l_@quot
  4296  0044'                    l3836:
  4297  0044' 307F               	movlw	127
  4298  0045' 028D'              	subwf	__tdiv_to_l_@exp1,f
  4299  0046'                    l3838:
  4300  0046' 3098               	movlw	152
  4301  0047' 070C'              	addwf	__tdiv_to_l_@cntr,w
  4302  0048' 0083'              	movwf	??__tdiv_to_l_
  4303  0049' 0803'              	movf	??__tdiv_to_l_,w
  4304  004A' 028D'              	subwf	__tdiv_to_l_@exp1,f
  4305  004B' 3018               	movlw	24
  4306  004C' 0083'              	movwf	??__tdiv_to_l_
  4307  004D' 0803'              	movf	??__tdiv_to_l_,w
  4308  004E' 008C'              	movwf	__tdiv_to_l_@cntr
  4309  004F'                    l3840:
  4310  004F' 3001               	movlw	1
  4311  0050' 0083'              	movwf	??__tdiv_to_l_
  4312  0051'                    u6505:
  4313  0051' 1003               	clrc
  4314  0052' 0D88'              	rlf	__tdiv_to_l_@quot,f
  4315  0053' 0D89'              	rlf	__tdiv_to_l_@quot+1,f
  4316  0054' 0D8A'              	rlf	__tdiv_to_l_@quot+2,f
  4317  0055' 0D8B'              	rlf	__tdiv_to_l_@quot+3,f
  4318  0056' 0B83'              	decfsz	??__tdiv_to_l_,f
  4319  0057' 2800'              	goto	u6505
  4320  0058'                    l3842:
  4321  0058' 0806'              	movf	__tdiv_to_l_@f2+2,w
  4322  0059' 0202'              	subwf	__tdiv_to_l_@f1+2,w
  4323  005A' 1D03               	skipz
  4324  005B' 2800'              	goto	u6515
  4325  005C' 0805'              	movf	__tdiv_to_l_@f2+1,w
  4326  005D' 0201'              	subwf	__tdiv_to_l_@f1+1,w
  4327  005E' 1D03               	skipz
  4328  005F' 2800'              	goto	u6515
  4329  0060' 0804'              	movf	__tdiv_to_l_@f2,w
  4330  0061' 0200'              	subwf	__tdiv_to_l_@f1,w
  4331  0062'                    u6515:
  4332  0062' 1C03               	skipc
  4333  0063' 2800'              	goto	u6511
  4334  0064' 2800'              	goto	u6510
  4335  0065'                    u6511:
  4336  0065' 2800'              	goto	l3848
  4337  0066'                    u6510:
  4338  0066'                    l3844:
  4339  0066' 0804'              	movf	__tdiv_to_l_@f2,w
  4340  0067' 0280'              	subwf	__tdiv_to_l_@f1,f
  4341  0068' 0805'              	movf	__tdiv_to_l_@f2+1,w
  4342  0069' 1C03               	skipc
  4343  006A' 0F05'              	incfsz	__tdiv_to_l_@f2+1,w
  4344  006B' 0281'              	subwf	__tdiv_to_l_@f1+1,f
  4345  006C' 0806'              	movf	__tdiv_to_l_@f2+2,w
  4346  006D' 1C03               	skipc
  4347  006E' 0A06'              	incf	__tdiv_to_l_@f2+2,w
  4348  006F' 0282'              	subwf	__tdiv_to_l_@f1+2,f
  4349  0070'                    l3846:
  4350  0070' 1408'              	bsf	__tdiv_to_l_@quot,0
  4351  0071'                    l3848:
  4352  0071' 3001               	movlw	1
  4353  0072'                    u6525:
  4354  0072' 1003               	clrc
  4355  0073' 0D80'              	rlf	__tdiv_to_l_@f1,f
  4356  0074' 0D81'              	rlf	__tdiv_to_l_@f1+1,f
  4357  0075' 0D82'              	rlf	__tdiv_to_l_@f1+2,f
  4358  0076' 3EFF               	addlw	-1
  4359  0077' 1D03               	skipz
  4360  0078' 2800'              	goto	u6525
  4361  0079'                    l3850:
  4362  0079' 3001               	movlw	1
  4363  007A' 028C'              	subwf	__tdiv_to_l_@cntr,f
  4364  007B' 1D03               	btfss	3,2
  4365  007C' 2800'              	goto	u6531
  4366  007D' 2800'              	goto	u6530
  4367  007E'                    u6531:
  4368  007E' 2800'              	goto	l3840
  4369  007F'                    u6530:
  4370  007F'                    l532:
  4371  007F' 1F8D'              	btfss	__tdiv_to_l_@exp1,7
  4372  0080' 2800'              	goto	u6541
  4373  0081' 2800'              	goto	u6540
  4374  0082'                    u6541:
  4375  0082' 2800'              	goto	l3860
  4376  0083'                    u6540:
  4377  0083'                    l3852:
  4378  0083' 080D'              	movf	__tdiv_to_l_@exp1,w
  4379  0084' 3A80               	xorlw	128
  4380  0085' 3E97               	addlw	151
  4381  0086' 1803               	skipnc
  4382  0087' 2800'              	goto	u6551
  4383  0088' 2800'              	goto	u6550
  4384  0089'                    u6551:
  4385  0089' 2800'              	goto	l3858
  4386  008A'                    u6550:
  4387  008A' 2800'              	goto	l3822
  4388  008B'                    l3858:
  4389  008B' 3001               	movlw	1
  4390  008C'                    u6565:
  4391  008C' 1003               	clrc
  4392  008D' 0C8B'              	rrf	__tdiv_to_l_@quot+3,f
  4393  008E' 0C8A'              	rrf	__tdiv_to_l_@quot+2,f
  4394  008F' 0C89'              	rrf	__tdiv_to_l_@quot+1,f
  4395  0090' 0C88'              	rrf	__tdiv_to_l_@quot,f
  4396  0091' 3EFF               	addlw	-1
  4397  0092' 1D03               	skipz
  4398  0093' 2800'              	goto	u6565
  4399  0094' 3001               	movlw	1
  4400  0095' 0083'              	movwf	??__tdiv_to_l_
  4401  0096' 0803'              	movf	??__tdiv_to_l_,w
  4402  0097' 078D'              	addwf	__tdiv_to_l_@exp1,f
  4403  0098' 1D03               	btfss	3,2
  4404  0099' 2800'              	goto	u6571
  4405  009A' 2800'              	goto	u6570
  4406  009B'                    u6571:
  4407  009B' 2800'              	goto	l3858
  4408  009C'                    u6570:
  4409  009C' 2800'              	goto	l3868
  4410  009D'                    l3860:
  4411  009D' 3018               	movlw	24
  4412  009E' 020D'              	subwf	__tdiv_to_l_@exp1,w
  4413  009F' 1C03               	skipc
  4414  00A0' 2800'              	goto	u6581
  4415  00A1' 2800'              	goto	u6580
  4416  00A2'                    u6581:
  4417  00A2' 2800'              	goto	l539
  4418  00A3'                    u6580:
  4419  00A3' 2800'              	goto	l3822
  4420  00A4'                    l3866:
  4421  00A4' 3001               	movlw	1
  4422  00A5' 0083'              	movwf	??__tdiv_to_l_
  4423  00A6'                    u6595:
  4424  00A6' 1003               	clrc
  4425  00A7' 0D88'              	rlf	__tdiv_to_l_@quot,f
  4426  00A8' 0D89'              	rlf	__tdiv_to_l_@quot+1,f
  4427  00A9' 0D8A'              	rlf	__tdiv_to_l_@quot+2,f
  4428  00AA' 0D8B'              	rlf	__tdiv_to_l_@quot+3,f
  4429  00AB' 0B83'              	decfsz	??__tdiv_to_l_,f
  4430  00AC' 2800'              	goto	u6595
  4431  00AD' 3001               	movlw	1
  4432  00AE' 028D'              	subwf	__tdiv_to_l_@exp1,f
  4433  00AF'                    l539:
  4434  00AF' 080D'              	movf	__tdiv_to_l_@exp1,w
  4435  00B0' 1D03               	btfss	3,2
  4436  00B1' 2800'              	goto	u6601
  4437  00B2' 2800'              	goto	u6600
  4438  00B3'                    u6601:
  4439  00B3' 2800'              	goto	l3866
  4440  00B4'                    u6600:
  4441  00B4'                    l3868:
  4442  00B4' 080B'              	movf	__tdiv_to_l_@quot+3,w
  4443  00B5' 0083'              	movwf	?__tdiv_to_l_+3
  4444  00B6' 080A'              	movf	__tdiv_to_l_@quot+2,w
  4445  00B7' 0082'              	movwf	?__tdiv_to_l_+2
  4446  00B8' 0809'              	movf	__tdiv_to_l_@quot+1,w
  4447  00B9' 0081'              	movwf	?__tdiv_to_l_+1
  4448  00BA' 0808'              	movf	__tdiv_to_l_@quot,w
  4449  00BB' 0080'              	movwf	?__tdiv_to_l_
  4450  00BC'                    l528:
  4451  00BC' 0008               	return
  4452  00BD'                    __end_of__tdiv_to_l_:
  4453                           
  4454                           	psect	text10
  4455  0000'                    __ptext10:	
  4456 ;; *************** function __div_to_l_ *****************
  4457 ;; Defined at:
  4458 ;;		line 60 in file "C:\Program Files\Microchip\xc8\v2.31\pic\sources\c90\common\fldivl.c"
  4459 ;; Parameters:    Size  Location     Type
  4460 ;;  f1              4    0[BANK0 ] unsigned long 
  4461 ;;  f2              4    4[BANK0 ] unsigned long 
  4462 ;; Auto vars:     Size  Location     Type
  4463 ;;  quot            4    4[COMMON] unsigned long 
  4464 ;;  exp1            1    9[COMMON] unsigned char 
  4465 ;;  cntr            1    8[COMMON] unsigned char 
  4466 ;; Return value:  Size  Location     Type
  4467 ;;                  4    0[BANK0 ] unsigned long 
  4468 ;; Registers used:
  4469 ;;		wreg, status,2, status,0
  4470 ;; Tracked objects:
  4471 ;;		On entry : 0/0
  4472 ;;		On exit  : 0/0
  4473 ;;		Unchanged: 0/0
  4474 ;; Data sizes:     COMMON   BANK0   BANK1   BANK3   BANK2
  4475 ;;      Params:         0       8       0       0       0
  4476 ;;      Locals:         6       0       0       0       0
  4477 ;;      Temps:          1       0       0       0       0
  4478 ;;      Totals:         7       8       0       0       0
  4479 ;;Total ram usage:       15 bytes
  4480 ;; Hardware stack levels used:    1
  4481 ;; Hardware stack levels required when called:    1
  4482 ;; This function calls:
  4483 ;;		Nothing
  4484 ;; This function is called by:
  4485 ;;		_sprintf
  4486 ;; This function uses a non-reentrant model
  4487 ;;
  4488                           
  4489                           
  4490                           ;psect for function __div_to_l_
  4491  0000'                    __div_to_l_:
  4492  0000'                    l3872:	
  4493                           ;incstack = 0
  4494                           ; Regs used in __div_to_l_: [wreg+status,2+status,0]
  4495                           
  4496  0000' 1003               	clrc
  4497  0001' 1283               	bcf	3,5	;RP0=0, select bank0
  4498  0002' 1303               	bcf	3,6	;RP1=0, select bank0
  4499  0003' 0D02'              	rlf	__div_to_l_@f1+2,w
  4500  0004' 0D03'              	rlf	__div_to_l_@f1+3,w
  4501  0005' 0083'              	movwf	??__div_to_l_
  4502  0006' 0803'              	movf	??__div_to_l_,w
  4503  0007' 0089'              	movwf	__div_to_l_@exp1
  4504  0008' 0809'              	movf	__div_to_l_@exp1,w
  4505  0009' 1D03               	btfss	3,2
  4506  000A' 2800'              	goto	u6611
  4507  000B' 2800'              	goto	u6610
  4508  000C'                    u6611:
  4509  000C' 2800'              	goto	l3878
  4510  000D'                    u6610:
  4511  000D'                    l3874:
  4512  000D' 3000               	movlw	0
  4513  000E' 0083'              	movwf	?__div_to_l_+3
  4514  000F' 3000               	movlw	0
  4515  0010' 0082'              	movwf	?__div_to_l_+2
  4516  0011' 3000               	movlw	0
  4517  0012' 0081'              	movwf	?__div_to_l_+1
  4518  0013' 3000               	movlw	0
  4519  0014' 0080'              	movwf	?__div_to_l_
  4520  0015' 2800'              	goto	l481
  4521  0016'                    l3878:
  4522  0016' 1003               	clrc
  4523  0017' 0D06'              	rlf	__div_to_l_@f2+2,w
  4524  0018' 0D07'              	rlf	__div_to_l_@f2+3,w
  4525  0019' 0083'              	movwf	??__div_to_l_
  4526  001A' 0803'              	movf	??__div_to_l_,w
  4527  001B' 0088'              	movwf	__div_to_l_@cntr
  4528  001C' 0808'              	movf	__div_to_l_@cntr,w
  4529  001D' 1D03               	btfss	3,2
  4530  001E' 2800'              	goto	u6621
  4531  001F' 2800'              	goto	u6620
  4532  0020'                    u6621:
  4533  0020' 2800'              	goto	l482
  4534  0021'                    u6620:
  4535  0021' 2800'              	goto	l3874
  4536  0022'                    l482:
  4537  0022' 1782'              	bsf	__div_to_l_@f1+2,7
  4538  0023'                    l3884:
  4539  0023' 30FF               	movlw	255
  4540  0024' 0580'              	andwf	__div_to_l_@f1,f
  4541  0025' 30FF               	movlw	255
  4542  0026' 0581'              	andwf	__div_to_l_@f1+1,f
  4543  0027' 30FF               	movlw	255
  4544  0028' 0582'              	andwf	__div_to_l_@f1+2,f
  4545  0029' 3000               	movlw	0
  4546  002A' 0583'              	andwf	__div_to_l_@f1+3,f
  4547  002B'                    l3886:
  4548  002B' 1786'              	bsf	__div_to_l_@f2+2,7
  4549  002C' 30FF               	movlw	255
  4550  002D' 0584'              	andwf	__div_to_l_@f2,f
  4551  002E' 30FF               	movlw	255
  4552  002F' 0585'              	andwf	__div_to_l_@f2+1,f
  4553  0030' 30FF               	movlw	255
  4554  0031' 0586'              	andwf	__div_to_l_@f2+2,f
  4555  0032' 3000               	movlw	0
  4556  0033' 0587'              	andwf	__div_to_l_@f2+3,f
  4557  0034' 3000               	movlw	0
  4558  0035' 0087'              	movwf	__div_to_l_@quot+3
  4559  0036' 3000               	movlw	0
  4560  0037' 0086'              	movwf	__div_to_l_@quot+2
  4561  0038' 3000               	movlw	0
  4562  0039' 0085'              	movwf	__div_to_l_@quot+1
  4563  003A' 3000               	movlw	0
  4564  003B' 0084'              	movwf	__div_to_l_@quot
  4565  003C'                    l3888:
  4566  003C' 307F               	movlw	127
  4567  003D' 0289'              	subwf	__div_to_l_@exp1,f
  4568  003E'                    l3890:
  4569  003E' 30A0               	movlw	160
  4570  003F' 0708'              	addwf	__div_to_l_@cntr,w
  4571  0040' 0083'              	movwf	??__div_to_l_
  4572  0041' 0803'              	movf	??__div_to_l_,w
  4573  0042' 0289'              	subwf	__div_to_l_@exp1,f
  4574  0043' 3020               	movlw	32
  4575  0044' 0083'              	movwf	??__div_to_l_
  4576  0045' 0803'              	movf	??__div_to_l_,w
  4577  0046' 0088'              	movwf	__div_to_l_@cntr
  4578  0047'                    l3892:
  4579  0047' 3001               	movlw	1
  4580  0048' 0083'              	movwf	??__div_to_l_
  4581  0049'                    u6635:
  4582  0049' 1003               	clrc
  4583  004A' 0D84'              	rlf	__div_to_l_@quot,f
  4584  004B' 0D85'              	rlf	__div_to_l_@quot+1,f
  4585  004C' 0D86'              	rlf	__div_to_l_@quot+2,f
  4586  004D' 0D87'              	rlf	__div_to_l_@quot+3,f
  4587  004E' 0B83'              	decfsz	??__div_to_l_,f
  4588  004F' 2800'              	goto	u6635
  4589  0050'                    l3894:
  4590  0050' 0807'              	movf	__div_to_l_@f2+3,w
  4591  0051' 0203'              	subwf	__div_to_l_@f1+3,w
  4592  0052' 1D03               	skipz
  4593  0053' 2800'              	goto	u6645
  4594  0054' 0806'              	movf	__div_to_l_@f2+2,w
  4595  0055' 0202'              	subwf	__div_to_l_@f1+2,w
  4596  0056' 1D03               	skipz
  4597  0057' 2800'              	goto	u6645
  4598  0058' 0805'              	movf	__div_to_l_@f2+1,w
  4599  0059' 0201'              	subwf	__div_to_l_@f1+1,w
  4600  005A' 1D03               	skipz
  4601  005B' 2800'              	goto	u6645
  4602  005C' 0804'              	movf	__div_to_l_@f2,w
  4603  005D' 0200'              	subwf	__div_to_l_@f1,w
  4604  005E'                    u6645:
  4605  005E' 1C03               	skipc
  4606  005F' 2800'              	goto	u6641
  4607  0060' 2800'              	goto	u6640
  4608  0061'                    u6641:
  4609  0061' 2800'              	goto	l3900
  4610  0062'                    u6640:
  4611  0062'                    l3896:
  4612  0062' 0804'              	movf	__div_to_l_@f2,w
  4613  0063' 0280'              	subwf	__div_to_l_@f1,f
  4614  0064' 0805'              	movf	__div_to_l_@f2+1,w
  4615  0065' 1C03               	skipc
  4616  0066' 0F05'              	incfsz	__div_to_l_@f2+1,w
  4617  0067' 0281'              	subwf	__div_to_l_@f1+1,f
  4618  0068' 0806'              	movf	__div_to_l_@f2+2,w
  4619  0069' 1C03               	skipc
  4620  006A' 0F06'              	incfsz	__div_to_l_@f2+2,w
  4621  006B' 0282'              	subwf	__div_to_l_@f1+2,f
  4622  006C' 0807'              	movf	__div_to_l_@f2+3,w
  4623  006D' 1C03               	skipc
  4624  006E' 0F07'              	incfsz	__div_to_l_@f2+3,w
  4625  006F' 0283'              	subwf	__div_to_l_@f1+3,f
  4626  0070'                    l3898:
  4627  0070' 1404'              	bsf	__div_to_l_@quot,0
  4628  0071'                    l3900:
  4629  0071' 3001               	movlw	1
  4630  0072' 0083'              	movwf	??__div_to_l_
  4631  0073'                    u6655:
  4632  0073' 1003               	clrc
  4633  0074' 0D80'              	rlf	__div_to_l_@f1,f
  4634  0075' 0D81'              	rlf	__div_to_l_@f1+1,f
  4635  0076' 0D82'              	rlf	__div_to_l_@f1+2,f
  4636  0077' 0D83'              	rlf	__div_to_l_@f1+3,f
  4637  0078' 0B83'              	decfsz	??__div_to_l_,f
  4638  0079' 2800'              	goto	u6655
  4639  007A'                    l3902:
  4640  007A' 3001               	movlw	1
  4641  007B' 0288'              	subwf	__div_to_l_@cntr,f
  4642  007C' 1D03               	btfss	3,2
  4643  007D' 2800'              	goto	u6661
  4644  007E' 2800'              	goto	u6660
  4645  007F'                    u6661:
  4646  007F' 2800'              	goto	l3892
  4647  0080'                    u6660:
  4648  0080'                    l485:
  4649  0080' 1F89'              	btfss	__div_to_l_@exp1,7
  4650  0081' 2800'              	goto	u6671
  4651  0082' 2800'              	goto	u6670
  4652  0083'                    u6671:
  4653  0083' 2800'              	goto	l3912
  4654  0084'                    u6670:
  4655  0084'                    l3904:
  4656  0084' 0809'              	movf	__div_to_l_@exp1,w
  4657  0085' 3A80               	xorlw	128
  4658  0086' 3E9F               	addlw	159
  4659  0087' 1803               	skipnc
  4660  0088' 2800'              	goto	u6681
  4661  0089' 2800'              	goto	u6680
  4662  008A'                    u6681:
  4663  008A' 2800'              	goto	l3910
  4664  008B'                    u6680:
  4665  008B' 2800'              	goto	l3874
  4666  008C'                    l3910:
  4667  008C' 3001               	movlw	1
  4668  008D'                    u6695:
  4669  008D' 1003               	clrc
  4670  008E' 0C87'              	rrf	__div_to_l_@quot+3,f
  4671  008F' 0C86'              	rrf	__div_to_l_@quot+2,f
  4672  0090' 0C85'              	rrf	__div_to_l_@quot+1,f
  4673  0091' 0C84'              	rrf	__div_to_l_@quot,f
  4674  0092' 3EFF               	addlw	-1
  4675  0093' 1D03               	skipz
  4676  0094' 2800'              	goto	u6695
  4677  0095' 3001               	movlw	1
  4678  0096' 0083'              	movwf	??__div_to_l_
  4679  0097' 0803'              	movf	??__div_to_l_,w
  4680  0098' 0789'              	addwf	__div_to_l_@exp1,f
  4681  0099' 1D03               	btfss	3,2
  4682  009A' 2800'              	goto	u6701
  4683  009B' 2800'              	goto	u6700
  4684  009C'                    u6701:
  4685  009C' 2800'              	goto	l3910
  4686  009D'                    u6700:
  4687  009D' 2800'              	goto	l3920
  4688  009E'                    l3912:
  4689  009E' 3020               	movlw	32
  4690  009F' 0209'              	subwf	__div_to_l_@exp1,w
  4691  00A0' 1C03               	skipc
  4692  00A1' 2800'              	goto	u6711
  4693  00A2' 2800'              	goto	u6710
  4694  00A3'                    u6711:
  4695  00A3' 2800'              	goto	l492
  4696  00A4'                    u6710:
  4697  00A4' 2800'              	goto	l3874
  4698  00A5'                    l3918:
  4699  00A5' 3001               	movlw	1
  4700  00A6' 0083'              	movwf	??__div_to_l_
  4701  00A7'                    u6725:
  4702  00A7' 1003               	clrc
  4703  00A8' 0D84'              	rlf	__div_to_l_@quot,f
  4704  00A9' 0D85'              	rlf	__div_to_l_@quot+1,f
  4705  00AA' 0D86'              	rlf	__div_to_l_@quot+2,f
  4706  00AB' 0D87'              	rlf	__div_to_l_@quot+3,f
  4707  00AC' 0B83'              	decfsz	??__div_to_l_,f
  4708  00AD' 2800'              	goto	u6725
  4709  00AE' 3001               	movlw	1
  4710  00AF' 0289'              	subwf	__div_to_l_@exp1,f
  4711  00B0'                    l492:
  4712  00B0' 0809'              	movf	__div_to_l_@exp1,w
  4713  00B1' 1D03               	btfss	3,2
  4714  00B2' 2800'              	goto	u6731
  4715  00B3' 2800'              	goto	u6730
  4716  00B4'                    u6731:
  4717  00B4' 2800'              	goto	l3918
  4718  00B5'                    u6730:
  4719  00B5'                    l3920:
  4720  00B5' 0807'              	movf	__div_to_l_@quot+3,w
  4721  00B6' 1283               	bcf	3,5	;RP0=0, select bank0
  4722  00B7' 1303               	bcf	3,6	;RP1=0, select bank0
  4723  00B8' 0083'              	movwf	?__div_to_l_+3
  4724  00B9' 0806'              	movf	__div_to_l_@quot+2,w
  4725  00BA' 0082'              	movwf	?__div_to_l_+2
  4726  00BB' 0805'              	movf	__div_to_l_@quot+1,w
  4727  00BC' 0081'              	movwf	?__div_to_l_+1
  4728  00BD' 0804'              	movf	__div_to_l_@quot,w
  4729  00BE' 0080'              	movwf	?__div_to_l_
  4730  00BF'                    l481:
  4731  00BF' 0008               	return
  4732  00C0'                    __end_of__div_to_l_:
  4733                           
  4734                           	psect	text11
  4735  0000'                    __ptext11:	
  4736 ;; *************** function ___wmul *****************
  4737 ;; Defined at:
  4738 ;;		line 15 in file "C:\Program Files\Microchip\xc8\v2.31\pic\sources\c90\common\Umul16.c"
  4739 ;; Parameters:    Size  Location     Type
  4740 ;;  multiplier      2    3[COMMON] unsigned int 
  4741 ;;  multiplicand    2    5[COMMON] unsigned int 
  4742 ;; Auto vars:     Size  Location     Type
  4743 ;;  product         2    7[COMMON] unsigned int 
  4744 ;; Return value:  Size  Location     Type
  4745 ;;                  2    3[COMMON] unsigned int 
  4746 ;; Registers used:
  4747 ;;		wreg, status,2, status,0
  4748 ;; Tracked objects:
  4749 ;;		On entry : 0/0
  4750 ;;		On exit  : 0/0
  4751 ;;		Unchanged: 0/0
  4752 ;; Data sizes:     COMMON   BANK0   BANK1   BANK3   BANK2
  4753 ;;      Params:         4       0       0       0       0
  4754 ;;      Locals:         2       0       0       0       0
  4755 ;;      Temps:          0       0       0       0       0
  4756 ;;      Totals:         6       0       0       0       0
  4757 ;;Total ram usage:        6 bytes
  4758 ;; Hardware stack levels used:    1
  4759 ;; Hardware stack levels required when called:    1
  4760 ;; This function calls:
  4761 ;;		Nothing
  4762 ;; This function is called by:
  4763 ;;		_sprintf
  4764 ;; This function uses a non-reentrant model
  4765 ;;
  4766                           
  4767                           
  4768                           ;psect for function ___wmul
  4769  0000'                    ___wmul:
  4770  0000'                    l2962:	
  4771                           ;incstack = 0
  4772                           ; Regs used in ___wmul: [wreg+status,2+status,0]
  4773                           
  4774  0000' 0187'              	clrf	___wmul@product
  4775  0001' 0188'              	clrf	___wmul@product+1
  4776  0002'                    l2964:
  4777  0002' 1C03'              	btfss	___wmul@multiplier,0
  4778  0003' 2800'              	goto	u4821
  4779  0004' 2800'              	goto	u4820
  4780  0005'                    u4821:
  4781  0005' 2800'              	goto	l311
  4782  0006'                    u4820:
  4783  0006'                    l2966:
  4784  0006' 0805'              	movf	___wmul@multiplicand,w
  4785  0007' 0787'              	addwf	___wmul@product,f
  4786  0008' 1803               	skipnc
  4787  0009' 0A88'              	incf	___wmul@product+1,f
  4788  000A' 0806'              	movf	___wmul@multiplicand+1,w
  4789  000B' 0788'              	addwf	___wmul@product+1,f
  4790  000C'                    l311:
  4791  000C' 3001               	movlw	1
  4792  000D'                    u4835:
  4793  000D' 1003               	clrc
  4794  000E' 0D85'              	rlf	___wmul@multiplicand,f
  4795  000F' 0D86'              	rlf	___wmul@multiplicand+1,f
  4796  0010' 3EFF               	addlw	-1
  4797  0011' 1D03               	skipz
  4798  0012' 2800'              	goto	u4835
  4799  0013'                    l2968:
  4800  0013' 3001               	movlw	1
  4801  0014'                    u4845:
  4802  0014' 1003               	clrc
  4803  0015' 0C84'              	rrf	___wmul@multiplier+1,f
  4804  0016' 0C83'              	rrf	___wmul@multiplier,f
  4805  0017' 3EFF               	addlw	-1
  4806  0018' 1D03               	skipz
  4807  0019' 2800'              	goto	u4845
  4808  001A'                    l2970:
  4809  001A' 0803'              	movf	___wmul@multiplier,w
  4810  001B' 0404'              	iorwf	___wmul@multiplier+1,w
  4811  001C' 1D03               	btfss	3,2
  4812  001D' 2800'              	goto	u4851
  4813  001E' 2800'              	goto	u4850
  4814  001F'                    u4851:
  4815  001F' 2800'              	goto	l2964
  4816  0020'                    u4850:
  4817  0020'                    l2972:
  4818  0020' 0808'              	movf	___wmul@product+1,w
  4819  0021' 0084'              	movwf	?___wmul+1
  4820  0022' 0807'              	movf	___wmul@product,w
  4821  0023' 0083'              	movwf	?___wmul
  4822  0024'                    l313:
  4823  0024' 0008               	return
  4824  0025'                    __end_of___wmul:
  4825                           
  4826                           	psect	text12
  4827  0000'                    __ptext12:	
  4828 ;; *************** function ___llmod *****************
  4829 ;; Defined at:
  4830 ;;		line 5 in file "C:\Program Files\Microchip\xc8\v2.31\pic\sources\c90\common\llmod.c"
  4831 ;; Parameters:    Size  Location     Type
  4832 ;;  divisor         4    8[BANK0 ] unsigned long 
  4833 ;;  dividend        4   12[BANK0 ] unsigned long 
  4834 ;; Auto vars:     Size  Location     Type
  4835 ;;  counter         1   16[BANK0 ] unsigned char 
  4836 ;; Return value:  Size  Location     Type
  4837 ;;                  4    8[BANK0 ] unsigned long 
  4838 ;; Registers used:
  4839 ;;		wreg, status,2, status,0
  4840 ;; Tracked objects:
  4841 ;;		On entry : 0/0
  4842 ;;		On exit  : 0/0
  4843 ;;		Unchanged: 0/0
  4844 ;; Data sizes:     COMMON   BANK0   BANK1   BANK3   BANK2
  4845 ;;      Params:         0       8       0       0       0
  4846 ;;      Locals:         0       1       0       0       0
  4847 ;;      Temps:          1       0       0       0       0
  4848 ;;      Totals:         1       9       0       0       0
  4849 ;;Total ram usage:       10 bytes
  4850 ;; Hardware stack levels used:    1
  4851 ;; Hardware stack levels required when called:    1
  4852 ;; This function calls:
  4853 ;;		Nothing
  4854 ;; This function is called by:
  4855 ;;		_sprintf
  4856 ;; This function uses a non-reentrant model
  4857 ;;
  4858                           
  4859                           
  4860                           ;psect for function ___llmod
  4861  0000'                    ___llmod:
  4862  0000'                    l3980:	
  4863                           ;incstack = 0
  4864                           ; Regs used in ___llmod: [wreg+status,2+status,0]
  4865                           
  4866  0000' 1283               	bcf	3,5	;RP0=0, select bank0
  4867  0001' 1303               	bcf	3,6	;RP1=0, select bank0
  4868  0002' 080B'              	movf	___llmod@divisor+3,w
  4869  0003' 040A'              	iorwf	___llmod@divisor+2,w
  4870  0004' 0409'              	iorwf	___llmod@divisor+1,w
  4871  0005' 0408'              	iorwf	___llmod@divisor,w
  4872  0006' 1903               	skipnz
  4873  0007' 2800'              	goto	u6911
  4874  0008' 2800'              	goto	u6910
  4875  0009'                    u6911:
  4876  0009' 2800'              	goto	l3996
  4877  000A'                    u6910:
  4878  000A'                    l3982:
  4879  000A' 0190'              	clrf	___llmod@counter
  4880  000B' 0A90'              	incf	___llmod@counter,f
  4881  000C' 2800'              	goto	l3986
  4882  000D'                    l3984:
  4883  000D' 3001               	movlw	1
  4884  000E' 0089'              	movwf	??___llmod
  4885  000F'                    u6925:
  4886  000F' 1003               	clrc
  4887  0010' 0D88'              	rlf	___llmod@divisor,f
  4888  0011' 0D89'              	rlf	___llmod@divisor+1,f
  4889  0012' 0D8A'              	rlf	___llmod@divisor+2,f
  4890  0013' 0D8B'              	rlf	___llmod@divisor+3,f
  4891  0014' 0B89'              	decfsz	??___llmod,f
  4892  0015' 2800'              	goto	u6925
  4893  0016' 3001               	movlw	1
  4894  0017' 0089'              	movwf	??___llmod
  4895  0018' 0809'              	movf	??___llmod,w
  4896  0019' 0790'              	addwf	___llmod@counter,f
  4897  001A'                    l3986:
  4898  001A' 1F8B'              	btfss	___llmod@divisor+3,7
  4899  001B' 2800'              	goto	u6931
  4900  001C' 2800'              	goto	u6930
  4901  001D'                    u6931:
  4902  001D' 2800'              	goto	l3984
  4903  001E'                    u6930:
  4904  001E'                    l3988:
  4905  001E' 080B'              	movf	___llmod@divisor+3,w
  4906  001F' 020F'              	subwf	___llmod@dividend+3,w
  4907  0020' 1D03               	skipz
  4908  0021' 2800'              	goto	u6945
  4909  0022' 080A'              	movf	___llmod@divisor+2,w
  4910  0023' 020E'              	subwf	___llmod@dividend+2,w
  4911  0024' 1D03               	skipz
  4912  0025' 2800'              	goto	u6945
  4913  0026' 0809'              	movf	___llmod@divisor+1,w
  4914  0027' 020D'              	subwf	___llmod@dividend+1,w
  4915  0028' 1D03               	skipz
  4916  0029' 2800'              	goto	u6945
  4917  002A' 0808'              	movf	___llmod@divisor,w
  4918  002B' 020C'              	subwf	___llmod@dividend,w
  4919  002C'                    u6945:
  4920  002C' 1C03               	skipc
  4921  002D' 2800'              	goto	u6941
  4922  002E' 2800'              	goto	u6940
  4923  002F'                    u6941:
  4924  002F' 2800'              	goto	l3992
  4925  0030'                    u6940:
  4926  0030'                    l3990:
  4927  0030' 0808'              	movf	___llmod@divisor,w
  4928  0031' 028C'              	subwf	___llmod@dividend,f
  4929  0032' 0809'              	movf	___llmod@divisor+1,w
  4930  0033' 1C03               	skipc
  4931  0034' 0F09'              	incfsz	___llmod@divisor+1,w
  4932  0035' 028D'              	subwf	___llmod@dividend+1,f
  4933  0036' 080A'              	movf	___llmod@divisor+2,w
  4934  0037' 1C03               	skipc
  4935  0038' 0F0A'              	incfsz	___llmod@divisor+2,w
  4936  0039' 028E'              	subwf	___llmod@dividend+2,f
  4937  003A' 080B'              	movf	___llmod@divisor+3,w
  4938  003B' 1C03               	skipc
  4939  003C' 0F0B'              	incfsz	___llmod@divisor+3,w
  4940  003D' 028F'              	subwf	___llmod@dividend+3,f
  4941  003E'                    l3992:
  4942  003E' 3001               	movlw	1
  4943  003F'                    u6955:
  4944  003F' 1003               	clrc
  4945  0040' 0C8B'              	rrf	___llmod@divisor+3,f
  4946  0041' 0C8A'              	rrf	___llmod@divisor+2,f
  4947  0042' 0C89'              	rrf	___llmod@divisor+1,f
  4948  0043' 0C88'              	rrf	___llmod@divisor,f
  4949  0044' 3EFF               	addlw	-1
  4950  0045' 1D03               	skipz
  4951  0046' 2800'              	goto	u6955
  4952  0047'                    l3994:
  4953  0047' 3001               	movlw	1
  4954  0048' 0290'              	subwf	___llmod@counter,f
  4955  0049' 1D03               	btfss	3,2
  4956  004A' 2800'              	goto	u6961
  4957  004B' 2800'              	goto	u6960
  4958  004C'                    u6961:
  4959  004C' 2800'              	goto	l3988
  4960  004D'                    u6960:
  4961  004D'                    l3996:
  4962  004D' 080F'              	movf	___llmod@dividend+3,w
  4963  004E' 008B'              	movwf	?___llmod+3
  4964  004F' 080E'              	movf	___llmod@dividend+2,w
  4965  0050' 008A'              	movwf	?___llmod+2
  4966  0051' 080D'              	movf	___llmod@dividend+1,w
  4967  0052' 0089'              	movwf	?___llmod+1
  4968  0053' 080C'              	movf	___llmod@dividend,w
  4969  0054' 0088'              	movwf	?___llmod
  4970  0055'                    l567:
  4971  0055' 0008               	return
  4972  0056'                    __end_of___llmod:
  4973                           
  4974                           	psect	text13
  4975  0000'                    __ptext13:	
  4976 ;; *************** function ___lldiv *****************
  4977 ;; Defined at:
  4978 ;;		line 5 in file "C:\Program Files\Microchip\xc8\v2.31\pic\sources\c90\common\__lldiv.c"
  4979 ;; Parameters:    Size  Location     Type
  4980 ;;  divisor         4    0[BANK0 ] unsigned long 
  4981 ;;  dividend        4    4[BANK0 ] unsigned long 
  4982 ;; Auto vars:     Size  Location     Type
  4983 ;;  quotient        4    4[COMMON] unsigned long 
  4984 ;;  counter         1    8[COMMON] unsigned char 
  4985 ;; Return value:  Size  Location     Type
  4986 ;;                  4    0[BANK0 ] unsigned long 
  4987 ;; Registers used:
  4988 ;;		wreg, status,2, status,0
  4989 ;; Tracked objects:
  4990 ;;		On entry : 0/0
  4991 ;;		On exit  : 0/0
  4992 ;;		Unchanged: 0/0
  4993 ;; Data sizes:     COMMON   BANK0   BANK1   BANK3   BANK2
  4994 ;;      Params:         0       8       0       0       0
  4995 ;;      Locals:         5       0       0       0       0
  4996 ;;      Temps:          1       0       0       0       0
  4997 ;;      Totals:         6       8       0       0       0
  4998 ;;Total ram usage:       14 bytes
  4999 ;; Hardware stack levels used:    1
  5000 ;; Hardware stack levels required when called:    1
  5001 ;; This function calls:
  5002 ;;		Nothing
  5003 ;; This function is called by:
  5004 ;;		_sprintf
  5005 ;; This function uses a non-reentrant model
  5006 ;;
  5007                           
  5008                           
  5009                           ;psect for function ___lldiv
  5010  0000'                    ___lldiv:
  5011  0000'                    l3924:	
  5012                           ;incstack = 0
  5013                           ; Regs used in ___lldiv: [wreg+status,2+status,0]
  5014                           
  5015  0000' 3000               	movlw	0
  5016  0001' 0087'              	movwf	___lldiv@quotient+3
  5017  0002' 3000               	movlw	0
  5018  0003' 0086'              	movwf	___lldiv@quotient+2
  5019  0004' 3000               	movlw	0
  5020  0005' 0085'              	movwf	___lldiv@quotient+1
  5021  0006' 3000               	movlw	0
  5022  0007' 0084'              	movwf	___lldiv@quotient
  5023  0008' 1283               	bcf	3,5	;RP0=0, select bank0
  5024  0009' 1303               	bcf	3,6	;RP1=0, select bank0
  5025  000A' 0803'              	movf	___lldiv@divisor+3,w
  5026  000B' 0402'              	iorwf	___lldiv@divisor+2,w
  5027  000C' 0401'              	iorwf	___lldiv@divisor+1,w
  5028  000D' 0400'              	iorwf	___lldiv@divisor,w
  5029  000E' 1903               	skipnz
  5030  000F' 2800'              	goto	u6741
  5031  0010' 2800'              	goto	u6740
  5032  0011'                    u6741:
  5033  0011' 2800'              	goto	l3944
  5034  0012'                    u6740:
  5035  0012'                    l3926:
  5036  0012' 0188'              	clrf	___lldiv@counter
  5037  0013' 0A88'              	incf	___lldiv@counter,f
  5038  0014' 2800'              	goto	l3930
  5039  0015'                    l3928:
  5040  0015' 3001               	movlw	1
  5041  0016' 0083'              	movwf	??___lldiv
  5042  0017'                    u6755:
  5043  0017' 1003               	clrc
  5044  0018' 0D80'              	rlf	___lldiv@divisor,f
  5045  0019' 0D81'              	rlf	___lldiv@divisor+1,f
  5046  001A' 0D82'              	rlf	___lldiv@divisor+2,f
  5047  001B' 0D83'              	rlf	___lldiv@divisor+3,f
  5048  001C' 0B83'              	decfsz	??___lldiv,f
  5049  001D' 2800'              	goto	u6755
  5050  001E' 3001               	movlw	1
  5051  001F' 0083'              	movwf	??___lldiv
  5052  0020' 0803'              	movf	??___lldiv,w
  5053  0021' 0788'              	addwf	___lldiv@counter,f
  5054  0022'                    l3930:
  5055  0022' 1F83'              	btfss	___lldiv@divisor+3,7
  5056  0023' 2800'              	goto	u6761
  5057  0024' 2800'              	goto	u6760
  5058  0025'                    u6761:
  5059  0025' 2800'              	goto	l3928
  5060  0026'                    u6760:
  5061  0026'                    l3932:
  5062  0026' 3001               	movlw	1
  5063  0027' 0083'              	movwf	??___lldiv
  5064  0028'                    u6775:
  5065  0028' 1003               	clrc
  5066  0029' 0D84'              	rlf	___lldiv@quotient,f
  5067  002A' 0D85'              	rlf	___lldiv@quotient+1,f
  5068  002B' 0D86'              	rlf	___lldiv@quotient+2,f
  5069  002C' 0D87'              	rlf	___lldiv@quotient+3,f
  5070  002D' 0B83'              	decfsz	??___lldiv,f
  5071  002E' 2800'              	goto	u6775
  5072  002F'                    l3934:
  5073  002F' 0803'              	movf	___lldiv@divisor+3,w
  5074  0030' 0207'              	subwf	___lldiv@dividend+3,w
  5075  0031' 1D03               	skipz
  5076  0032' 2800'              	goto	u6785
  5077  0033' 0802'              	movf	___lldiv@divisor+2,w
  5078  0034' 0206'              	subwf	___lldiv@dividend+2,w
  5079  0035' 1D03               	skipz
  5080  0036' 2800'              	goto	u6785
  5081  0037' 0801'              	movf	___lldiv@divisor+1,w
  5082  0038' 0205'              	subwf	___lldiv@dividend+1,w
  5083  0039' 1D03               	skipz
  5084  003A' 2800'              	goto	u6785
  5085  003B' 0800'              	movf	___lldiv@divisor,w
  5086  003C' 0204'              	subwf	___lldiv@dividend,w
  5087  003D'                    u6785:
  5088  003D' 1C03               	skipc
  5089  003E' 2800'              	goto	u6781
  5090  003F' 2800'              	goto	u6780
  5091  0040'                    u6781:
  5092  0040' 2800'              	goto	l3940
  5093  0041'                    u6780:
  5094  0041'                    l3936:
  5095  0041' 0800'              	movf	___lldiv@divisor,w
  5096  0042' 0284'              	subwf	___lldiv@dividend,f
  5097  0043' 0801'              	movf	___lldiv@divisor+1,w
  5098  0044' 1C03               	skipc
  5099  0045' 0F01'              	incfsz	___lldiv@divisor+1,w
  5100  0046' 0285'              	subwf	___lldiv@dividend+1,f
  5101  0047' 0802'              	movf	___lldiv@divisor+2,w
  5102  0048' 1C03               	skipc
  5103  0049' 0F02'              	incfsz	___lldiv@divisor+2,w
  5104  004A' 0286'              	subwf	___lldiv@dividend+2,f
  5105  004B' 0803'              	movf	___lldiv@divisor+3,w
  5106  004C' 1C03               	skipc
  5107  004D' 0F03'              	incfsz	___lldiv@divisor+3,w
  5108  004E' 0287'              	subwf	___lldiv@dividend+3,f
  5109  004F'                    l3938:
  5110  004F' 1404'              	bsf	___lldiv@quotient,0
  5111  0050'                    l3940:
  5112  0050' 3001               	movlw	1
  5113  0051'                    u6795:
  5114  0051' 1003               	clrc
  5115  0052' 0C83'              	rrf	___lldiv@divisor+3,f
  5116  0053' 0C82'              	rrf	___lldiv@divisor+2,f
  5117  0054' 0C81'              	rrf	___lldiv@divisor+1,f
  5118  0055' 0C80'              	rrf	___lldiv@divisor,f
  5119  0056' 3EFF               	addlw	-1
  5120  0057' 1D03               	skipz
  5121  0058' 2800'              	goto	u6795
  5122  0059'                    l3942:
  5123  0059' 3001               	movlw	1
  5124  005A' 0288'              	subwf	___lldiv@counter,f
  5125  005B' 1D03               	btfss	3,2
  5126  005C' 2800'              	goto	u6801
  5127  005D' 2800'              	goto	u6800
  5128  005E'                    u6801:
  5129  005E' 2800'              	goto	l3932
  5130  005F'                    u6800:
  5131  005F'                    l3944:
  5132  005F' 0807'              	movf	___lldiv@quotient+3,w
  5133  0060' 0083'              	movwf	?___lldiv+3
  5134  0061' 0806'              	movf	___lldiv@quotient+2,w
  5135  0062' 0082'              	movwf	?___lldiv+2
  5136  0063' 0805'              	movf	___lldiv@quotient+1,w
  5137  0064' 0081'              	movwf	?___lldiv+1
  5138  0065' 0804'              	movf	___lldiv@quotient,w
  5139  0066' 0080'              	movwf	?___lldiv
  5140  0067'                    l347:
  5141  0067' 0008               	return
  5142  0068'                    __end_of___lldiv:
  5143                           
  5144                           	psect	text14
  5145  0000'                    __ptext14:	
  5146 ;; *************** function ___fltol *****************
  5147 ;; Defined at:
  5148 ;;		line 43 in file "C:\Program Files\Microchip\xc8\v2.31\pic\sources\c90\common\fltol.c"
  5149 ;; Parameters:    Size  Location     Type
  5150 ;;  f1              4   55[BANK0 ] unsigned long 
  5151 ;; Auto vars:     Size  Location     Type
  5152 ;;  exp1            1   65[BANK0 ] unsigned char 
  5153 ;;  sign1           1   64[BANK0 ] unsigned char 
  5154 ;; Return value:  Size  Location     Type
  5155 ;;                  4   55[BANK0 ] long 
  5156 ;; Registers used:
  5157 ;;		wreg, status,2, status,0
  5158 ;; Tracked objects:
  5159 ;;		On entry : 0/0
  5160 ;;		On exit  : 0/0
  5161 ;;		Unchanged: 0/0
  5162 ;; Data sizes:     COMMON   BANK0   BANK1   BANK3   BANK2
  5163 ;;      Params:         0       4       0       0       0
  5164 ;;      Locals:         0       2       0       0       0
  5165 ;;      Temps:          0       5       0       0       0
  5166 ;;      Totals:         0      11       0       0       0
  5167 ;;Total ram usage:       11 bytes
  5168 ;; Hardware stack levels used:    1
  5169 ;; Hardware stack levels required when called:    1
  5170 ;; This function calls:
  5171 ;;		Nothing
  5172 ;; This function is called by:
  5173 ;;		_sprintf
  5174 ;; This function uses a non-reentrant model
  5175 ;;
  5176                           
  5177                           
  5178                           ;psect for function ___fltol
  5179  0000'                    ___fltol:
  5180  0000'                    l3040:	
  5181                           ;incstack = 0
  5182                           ; Regs used in ___fltol: [wreg+status,2+status,0]
  5183                           
  5184  0000' 1003               	clrc
  5185  0001' 1283               	bcf	3,5	;RP0=0, select bank0
  5186  0002' 1303               	bcf	3,6	;RP1=0, select bank0
  5187  0003' 0D39'              	rlf	___fltol@f1+2,w
  5188  0004' 0D3A'              	rlf	___fltol@f1+3,w
  5189  0005' 00BB'              	movwf	??___fltol
  5190  0006' 083B'              	movf	??___fltol,w
  5191  0007' 00C1'              	movwf	___fltol@exp1
  5192  0008' 0841'              	movf	___fltol@exp1,w
  5193  0009' 1D03               	btfss	3,2
  5194  000A' 2800'              	goto	u5041
  5195  000B' 2800'              	goto	u5040
  5196  000C'                    u5041:
  5197  000C' 2800'              	goto	l3046
  5198  000D'                    u5040:
  5199  000D'                    l3042:
  5200  000D' 3000               	movlw	0
  5201  000E' 00BA'              	movwf	?___fltol+3
  5202  000F' 3000               	movlw	0
  5203  0010' 00B9'              	movwf	?___fltol+2
  5204  0011' 3000               	movlw	0
  5205  0012' 00B8'              	movwf	?___fltol+1
  5206  0013' 3000               	movlw	0
  5207  0014' 00B7'              	movwf	?___fltol
  5208  0015' 2800'              	goto	l514
  5209  0016'                    l3046:
  5210  0016' 0837'              	movf	___fltol@f1,w
  5211  0017' 00BB'              	movwf	??___fltol
  5212  0018' 0838'              	movf	___fltol@f1+1,w
  5213  0019' 00BC'              	movwf	??___fltol+1
  5214  001A' 0839'              	movf	___fltol@f1+2,w
  5215  001B' 00BD'              	movwf	??___fltol+2
  5216  001C' 083A'              	movf	___fltol@f1+3,w
  5217  001D' 00BE'              	movwf	??___fltol+3
  5218  001E' 301F               	movlw	31
  5219  001F'                    u5055:
  5220  001F' 1003               	clrc
  5221  0020' 0CBE'              	rrf	??___fltol+3,f
  5222  0021' 0CBD'              	rrf	??___fltol+2,f
  5223  0022' 0CBC'              	rrf	??___fltol+1,f
  5224  0023' 0CBB'              	rrf	??___fltol,f
  5225  0024'                    u5050:
  5226  0024' 3EFF               	addlw	-1
  5227  0025' 1D03               	skipz
  5228  0026' 2800'              	goto	u5055
  5229  0027' 083B'              	movf	??___fltol,w
  5230  0028' 00BF'              	movwf	??___fltol+4
  5231  0029' 083F'              	movf	??___fltol+4,w
  5232  002A' 00C0'              	movwf	___fltol@sign1
  5233  002B'                    l3048:
  5234  002B' 17B9'              	bsf	___fltol@f1+2,7
  5235  002C'                    l3050:
  5236  002C' 30FF               	movlw	255
  5237  002D' 05B7'              	andwf	___fltol@f1,f
  5238  002E' 30FF               	movlw	255
  5239  002F' 05B8'              	andwf	___fltol@f1+1,f
  5240  0030' 30FF               	movlw	255
  5241  0031' 05B9'              	andwf	___fltol@f1+2,f
  5242  0032' 3000               	movlw	0
  5243  0033' 05BA'              	andwf	___fltol@f1+3,f
  5244  0034'                    l3052:
  5245  0034' 3096               	movlw	150
  5246  0035' 02C1'              	subwf	___fltol@exp1,f
  5247  0036'                    l3054:
  5248  0036' 1FC1'              	btfss	___fltol@exp1,7
  5249  0037' 2800'              	goto	u5061
  5250  0038' 2800'              	goto	u5060
  5251  0039'                    u5061:
  5252  0039' 2800'              	goto	l3064
  5253  003A'                    u5060:
  5254  003A'                    l3056:
  5255  003A' 0841'              	movf	___fltol@exp1,w
  5256  003B' 3A80               	xorlw	128
  5257  003C' 3E97               	addlw	151
  5258  003D' 1803               	skipnc
  5259  003E' 2800'              	goto	u5071
  5260  003F' 2800'              	goto	u5070
  5261  0040'                    u5071:
  5262  0040' 2800'              	goto	l3062
  5263  0041'                    u5070:
  5264  0041' 2800'              	goto	l3042
  5265  0042'                    l3062:
  5266  0042' 3001               	movlw	1
  5267  0043'                    u5085:
  5268  0043' 1003               	clrc
  5269  0044' 0CBA'              	rrf	___fltol@f1+3,f
  5270  0045' 0CB9'              	rrf	___fltol@f1+2,f
  5271  0046' 0CB8'              	rrf	___fltol@f1+1,f
  5272  0047' 0CB7'              	rrf	___fltol@f1,f
  5273  0048' 3EFF               	addlw	-1
  5274  0049' 1D03               	skipz
  5275  004A' 2800'              	goto	u5085
  5276  004B' 3001               	movlw	1
  5277  004C' 00BB'              	movwf	??___fltol
  5278  004D' 083B'              	movf	??___fltol,w
  5279  004E' 07C1'              	addwf	___fltol@exp1,f
  5280  004F' 1D03               	btfss	3,2
  5281  0050' 2800'              	goto	u5091
  5282  0051' 2800'              	goto	u5090
  5283  0052'                    u5091:
  5284  0052' 2800'              	goto	l3062
  5285  0053'                    u5090:
  5286  0053' 2800'              	goto	l3072
  5287  0054'                    l3064:
  5288  0054' 3020               	movlw	32
  5289  0055' 0241'              	subwf	___fltol@exp1,w
  5290  0056' 1C03               	skipc
  5291  0057' 2800'              	goto	u5101
  5292  0058' 2800'              	goto	u5100
  5293  0059'                    u5101:
  5294  0059' 2800'              	goto	l521
  5295  005A'                    u5100:
  5296  005A' 2800'              	goto	l3042
  5297  005B'                    l3070:
  5298  005B' 3001               	movlw	1
  5299  005C' 00BB'              	movwf	??___fltol
  5300  005D'                    u5115:
  5301  005D' 1003               	clrc
  5302  005E' 0DB7'              	rlf	___fltol@f1,f
  5303  005F' 0DB8'              	rlf	___fltol@f1+1,f
  5304  0060' 0DB9'              	rlf	___fltol@f1+2,f
  5305  0061' 0DBA'              	rlf	___fltol@f1+3,f
  5306  0062' 0BBB'              	decfsz	??___fltol,f
  5307  0063' 2800'              	goto	u5115
  5308  0064' 3001               	movlw	1
  5309  0065' 02C1'              	subwf	___fltol@exp1,f
  5310  0066'                    l521:
  5311  0066' 0841'              	movf	___fltol@exp1,w
  5312  0067' 1D03               	btfss	3,2
  5313  0068' 2800'              	goto	u5121
  5314  0069' 2800'              	goto	u5120
  5315  006A'                    u5121:
  5316  006A' 2800'              	goto	l3070
  5317  006B'                    u5120:
  5318  006B'                    l3072:
  5319  006B' 0840'              	movf	___fltol@sign1,w
  5320  006C' 1903               	btfsc	3,2
  5321  006D' 2800'              	goto	u5131
  5322  006E' 2800'              	goto	u5130
  5323  006F'                    u5131:
  5324  006F' 2800'              	goto	l524
  5325  0070'                    u5130:
  5326  0070'                    l3074:
  5327  0070' 09B7'              	comf	___fltol@f1,f
  5328  0071' 09B8'              	comf	___fltol@f1+1,f
  5329  0072' 09B9'              	comf	___fltol@f1+2,f
  5330  0073' 09BA'              	comf	___fltol@f1+3,f
  5331  0074' 0AB7'              	incf	___fltol@f1,f
  5332  0075' 1903               	skipnz
  5333  0076' 0AB8'              	incf	___fltol@f1+1,f
  5334  0077' 1903               	skipnz
  5335  0078' 0AB9'              	incf	___fltol@f1+2,f
  5336  0079' 1903               	skipnz
  5337  007A' 0ABA'              	incf	___fltol@f1+3,f
  5338  007B'                    l524:
  5339  007B'                    l514:
  5340  007B' 0008               	return
  5341  007C'                    __end_of___fltol:
  5342                           
  5343                           	psect	text15
  5344  0000'                    __ptext15:	
  5345 ;; *************** function ___flsub *****************
  5346 ;; Defined at:
  5347 ;;		line 242 in file "C:\Program Files\Microchip\xc8\v2.31\pic\sources\c90\common\sprcadd.c"
  5348 ;; Parameters:    Size  Location     Type
  5349 ;;  a               4    0[BANK1 ] long 
  5350 ;;  b               4    4[BANK1 ] long 
  5351 ;; Auto vars:     Size  Location     Type
  5352 ;;		None
  5353 ;; Return value:  Size  Location     Type
  5354 ;;                  4    0[BANK1 ] long 
  5355 ;; Registers used:
  5356 ;;		wreg, status,2, status,0, btemp+1, pclath, cstack
  5357 ;; Tracked objects:
  5358 ;;		On entry : 0/0
  5359 ;;		On exit  : 0/0
  5360 ;;		Unchanged: 0/0
  5361 ;; Data sizes:     COMMON   BANK0   BANK1   BANK3   BANK2
  5362 ;;      Params:         0       0       8       0       0
  5363 ;;      Locals:         0       0       0       0       0
  5364 ;;      Temps:          0       0       0       0       0
  5365 ;;      Totals:         0       0       8       0       0
  5366 ;;Total ram usage:        8 bytes
  5367 ;; Hardware stack levels used:    1
  5368 ;; Hardware stack levels required when called:    2
  5369 ;; This function calls:
  5370 ;;		___fladd
  5371 ;; This function is called by:
  5372 ;;		_sprintf
  5373 ;; This function uses a non-reentrant model
  5374 ;;
  5375                           
  5376                           
  5377                           ;psect for function ___flsub
  5378  0000'                    ___flsub:
  5379  0000'                    l3096:	
  5380                           ;incstack = 0
  5381                           ; Regs used in ___flsub: [wreg+status,2+status,0+btemp+1+pclath+cstack]
  5382                           
  5383  0000' 3080               	movlw	128
  5384  0001' 1683               	bsf	3,5	;RP0=1, select bank1
  5385  0002' 1303               	bcf	3,6	;RP1=0, select bank1
  5386  0003' 0680'              	xorwf	(___flsub@a+3)^(0+128),f
  5387  0004'                    l3098:
  5388  0004' 0800'              	movf	(___flsub@b+3)^(0+128),w
  5389  0005' 1283               	bcf	3,5	;RP0=0, select bank0
  5390  0006' 1303               	bcf	3,6	;RP1=0, select bank0
  5391  0007' 00BB'              	movwf	___fladd@b+3
  5392  0008' 1683               	bsf	3,5	;RP0=1, select bank1
  5393  0009' 1303               	bcf	3,6	;RP1=0, select bank1
  5394  000A' 0800'              	movf	(___flsub@b+2)^(0+128),w
  5395  000B' 1283               	bcf	3,5	;RP0=0, select bank0
  5396  000C' 1303               	bcf	3,6	;RP1=0, select bank0
  5397  000D' 00BA'              	movwf	___fladd@b+2
  5398  000E' 1683               	bsf	3,5	;RP0=1, select bank1
  5399  000F' 1303               	bcf	3,6	;RP1=0, select bank1
  5400  0010' 0800'              	movf	(___flsub@b+1)^(0+128),w
  5401  0011' 1283               	bcf	3,5	;RP0=0, select bank0
  5402  0012' 1303               	bcf	3,6	;RP1=0, select bank0
  5403  0013' 00B9'              	movwf	___fladd@b+1
  5404  0014' 1683               	bsf	3,5	;RP0=1, select bank1
  5405  0015' 1303               	bcf	3,6	;RP1=0, select bank1
  5406  0016' 0800'              	movf	___flsub@b^(0+128),w
  5407  0017' 1283               	bcf	3,5	;RP0=0, select bank0
  5408  0018' 1303               	bcf	3,6	;RP1=0, select bank0
  5409  0019' 00B8'              	movwf	___fladd@b
  5410  001A' 1683               	bsf	3,5	;RP0=1, select bank1
  5411  001B' 1303               	bcf	3,6	;RP1=0, select bank1
  5412  001C' 0800'              	movf	(___flsub@a+3)^(0+128),w
  5413  001D' 1283               	bcf	3,5	;RP0=0, select bank0
  5414  001E' 1303               	bcf	3,6	;RP1=0, select bank0
  5415  001F' 00BF'              	movwf	___fladd@a+3
  5416  0020' 1683               	bsf	3,5	;RP0=1, select bank1
  5417  0021' 1303               	bcf	3,6	;RP1=0, select bank1
  5418  0022' 0800'              	movf	(___flsub@a+2)^(0+128),w
  5419  0023' 1283               	bcf	3,5	;RP0=0, select bank0
  5420  0024' 1303               	bcf	3,6	;RP1=0, select bank0
  5421  0025' 00BE'              	movwf	___fladd@a+2
  5422  0026' 1683               	bsf	3,5	;RP0=1, select bank1
  5423  0027' 1303               	bcf	3,6	;RP1=0, select bank1
  5424  0028' 0800'              	movf	(___flsub@a+1)^(0+128),w
  5425  0029' 1283               	bcf	3,5	;RP0=0, select bank0
  5426  002A' 1303               	bcf	3,6	;RP1=0, select bank0
  5427  002B' 00BD'              	movwf	___fladd@a+1
  5428  002C' 1683               	bsf	3,5	;RP0=1, select bank1
  5429  002D' 1303               	bcf	3,6	;RP1=0, select bank1
  5430  002E' 0800'              	movf	___flsub@a^(0+128),w
  5431  002F' 1283               	bcf	3,5	;RP0=0, select bank0
  5432  0030' 1303               	bcf	3,6	;RP1=0, select bank0
  5433  0031' 00BC'              	movwf	___fladd@a
  5434  0032' 120A' 118A' 2000' 120A' 118A' 	fcall	___fladd
  5435  0037' 1283               	bcf	3,5	;RP0=0, select bank0
  5436  0038' 1303               	bcf	3,6	;RP1=0, select bank0
  5437  0039' 083B'              	movf	?___fladd+3,w
  5438  003A' 1683               	bsf	3,5	;RP0=1, select bank1
  5439  003B' 1303               	bcf	3,6	;RP1=0, select bank1
  5440  003C' 0080'              	movwf	(?___flsub+3)^(0+128)
  5441  003D' 1283               	bcf	3,5	;RP0=0, select bank0
  5442  003E' 1303               	bcf	3,6	;RP1=0, select bank0
  5443  003F' 083A'              	movf	?___fladd+2,w
  5444  0040' 1683               	bsf	3,5	;RP0=1, select bank1
  5445  0041' 1303               	bcf	3,6	;RP1=0, select bank1
  5446  0042' 0080'              	movwf	(?___flsub+2)^(0+128)
  5447  0043' 1283               	bcf	3,5	;RP0=0, select bank0
  5448  0044' 1303               	bcf	3,6	;RP1=0, select bank0
  5449  0045' 0839'              	movf	?___fladd+1,w
  5450  0046' 1683               	bsf	3,5	;RP0=1, select bank1
  5451  0047' 1303               	bcf	3,6	;RP1=0, select bank1
  5452  0048' 0080'              	movwf	(?___flsub+1)^(0+128)
  5453  0049' 1283               	bcf	3,5	;RP0=0, select bank0
  5454  004A' 1303               	bcf	3,6	;RP1=0, select bank0
  5455  004B' 0838'              	movf	?___fladd,w
  5456  004C' 1683               	bsf	3,5	;RP0=1, select bank1
  5457  004D' 1303               	bcf	3,6	;RP1=0, select bank1
  5458  004E' 0080'              	movwf	?___flsub^(0+128)
  5459  004F'                    l684:
  5460  004F' 0008               	return
  5461  0050'                    __end_of___flsub:
  5462                           
  5463                           	psect	text16
  5464  0000'                    __ptext16:	
  5465 ;; *************** function ___fladd *****************
  5466 ;; Defined at:
  5467 ;;		line 10 in file "C:\Program Files\Microchip\xc8\v2.31\pic\sources\c90\common\sprcadd.c"
  5468 ;; Parameters:    Size  Location     Type
  5469 ;;  b               4   56[BANK0 ] long 
  5470 ;;  a               4   60[BANK0 ] long 
  5471 ;; Auto vars:     Size  Location     Type
  5472 ;;  grs             1   75[BANK0 ] unsigned char 
  5473 ;;  bexp            1   74[BANK0 ] unsigned char 
  5474 ;;  aexp            1   73[BANK0 ] unsigned char 
  5475 ;;  signs           1   72[BANK0 ] unsigned char 
  5476 ;; Return value:  Size  Location     Type
  5477 ;;                  4   56[BANK0 ] unsigned char 
  5478 ;; Registers used:
  5479 ;;		wreg, status,2, status,0, btemp+1
  5480 ;; Tracked objects:
  5481 ;;		On entry : 0/0
  5482 ;;		On exit  : 0/0
  5483 ;;		Unchanged: 0/0
  5484 ;; Data sizes:     COMMON   BANK0   BANK1   BANK3   BANK2
  5485 ;;      Params:         0       8       0       0       0
  5486 ;;      Locals:         0       4       0       0       0
  5487 ;;      Temps:          0       8       0       0       0
  5488 ;;      Totals:         0      20       0       0       0
  5489 ;;Total ram usage:       20 bytes
  5490 ;; Hardware stack levels used:    1
  5491 ;; Hardware stack levels required when called:    1
  5492 ;; This function calls:
  5493 ;;		Nothing
  5494 ;; This function is called by:
  5495 ;;		_sprintf
  5496 ;;		___flsub
  5497 ;; This function uses a non-reentrant model
  5498 ;;
  5499                           
  5500                           
  5501                           ;psect for function ___fladd
  5502  0000'                    ___fladd:
  5503  0000'                    l2454:	
  5504                           ;incstack = 0
  5505                           ; Regs used in ___fladd: [wreg+status,2+status,0+btemp+1]
  5506                           
  5507  0000' 1283               	bcf	3,5	;RP0=0, select bank0
  5508  0001' 1303               	bcf	3,6	;RP1=0, select bank0
  5509  0002' 083B'              	movf	___fladd@b+3,w
  5510  0003' 3980               	andlw	128
  5511  0004' 00C0'              	movwf	??___fladd
  5512  0005' 0840'              	movf	??___fladd,w
  5513  0006' 00C8'              	movwf	___fladd@signs
  5514  0007'                    l2456:
  5515  0007' 083B'              	movf	___fladd@b+3,w
  5516  0008' 00C0'              	movwf	??___fladd
  5517  0009' 0740'              	addwf	??___fladd,w
  5518  000A' 00C1'              	movwf	??___fladd+1
  5519  000B' 0841'              	movf	??___fladd+1,w
  5520  000C' 00CA'              	movwf	___fladd@bexp
  5521  000D'                    l2458:
  5522  000D' 1FBA'              	btfss	___fladd@b+2,7
  5523  000E' 2800'              	goto	u3461
  5524  000F' 2800'              	goto	u3460
  5525  0010'                    u3461:
  5526  0010' 2800'              	goto	l2462
  5527  0011'                    u3460:
  5528  0011'                    l2460:
  5529  0011' 144A'              	bsf	___fladd@bexp,0
  5530  0012'                    l2462:
  5531  0012' 084A'              	movf	___fladd@bexp,w
  5532  0013' 1903               	btfsc	3,2
  5533  0014' 2800'              	goto	u3471
  5534  0015' 2800'              	goto	u3470
  5535  0016'                    u3471:
  5536  0016' 2800'              	goto	l2472
  5537  0017'                    u3470:
  5538  0017'                    l2464:
  5539  0017' 0A4A'              	incf	___fladd@bexp,w
  5540  0018' 1D03               	btfss	3,2
  5541  0019' 2800'              	goto	u3481
  5542  001A' 2800'              	goto	u3480
  5543  001B'                    u3481:
  5544  001B' 2800'              	goto	l2468
  5545  001C'                    u3480:
  5546  001C'                    l2466:
  5547  001C' 3000               	movlw	0
  5548  001D' 00BB'              	movwf	___fladd@b+3
  5549  001E' 3000               	movlw	0
  5550  001F' 00BA'              	movwf	___fladd@b+2
  5551  0020' 3000               	movlw	0
  5552  0021' 00B9'              	movwf	___fladd@b+1
  5553  0022' 3000               	movlw	0
  5554  0023' 00B8'              	movwf	___fladd@b
  5555  0024'                    l2468:
  5556  0024' 17BA'              	bsf	___fladd@b+2,7
  5557  0025'                    l2470:
  5558  0025' 01BB'              	clrf	___fladd@b+3
  5559  0026' 2800'              	goto	l2474
  5560  0027'                    l2472:
  5561  0027' 3000               	movlw	0
  5562  0028' 00BB'              	movwf	___fladd@b+3
  5563  0029' 3000               	movlw	0
  5564  002A' 00BA'              	movwf	___fladd@b+2
  5565  002B' 3000               	movlw	0
  5566  002C' 00B9'              	movwf	___fladd@b+1
  5567  002D' 3000               	movlw	0
  5568  002E' 00B8'              	movwf	___fladd@b
  5569  002F'                    l2474:
  5570  002F' 083F'              	movf	___fladd@a+3,w
  5571  0030' 3980               	andlw	128
  5572  0031' 00C0'              	movwf	??___fladd
  5573  0032' 0840'              	movf	??___fladd,w
  5574  0033' 00C9'              	movwf	___fladd@aexp
  5575  0034'                    l2476:
  5576  0034' 0849'              	movf	___fladd@aexp,w
  5577  0035' 0648'              	xorwf	___fladd@signs,w
  5578  0036' 1903               	skipnz
  5579  0037' 2800'              	goto	u3491
  5580  0038' 2800'              	goto	u3490
  5581  0039'                    u3491:
  5582  0039' 2800'              	goto	l2480
  5583  003A'                    u3490:
  5584  003A'                    l2478:
  5585  003A' 1748'              	bsf	___fladd@signs,6
  5586  003B'                    l2480:
  5587  003B' 083F'              	movf	___fladd@a+3,w
  5588  003C' 00C0'              	movwf	??___fladd
  5589  003D' 0740'              	addwf	??___fladd,w
  5590  003E' 00C1'              	movwf	??___fladd+1
  5591  003F' 0841'              	movf	??___fladd+1,w
  5592  0040' 00C9'              	movwf	___fladd@aexp
  5593  0041'                    l2482:
  5594  0041' 1FBE'              	btfss	___fladd@a+2,7
  5595  0042' 2800'              	goto	u3501
  5596  0043' 2800'              	goto	u3500
  5597  0044'                    u3501:
  5598  0044' 2800'              	goto	l2486
  5599  0045'                    u3500:
  5600  0045'                    l2484:
  5601  0045' 1449'              	bsf	___fladd@aexp,0
  5602  0046'                    l2486:
  5603  0046' 0849'              	movf	___fladd@aexp,w
  5604  0047' 1903               	btfsc	3,2
  5605  0048' 2800'              	goto	u3511
  5606  0049' 2800'              	goto	u3510
  5607  004A'                    u3511:
  5608  004A' 2800'              	goto	l2496
  5609  004B'                    u3510:
  5610  004B'                    l2488:
  5611  004B' 0A49'              	incf	___fladd@aexp,w
  5612  004C' 1D03               	btfss	3,2
  5613  004D' 2800'              	goto	u3521
  5614  004E' 2800'              	goto	u3520
  5615  004F'                    u3521:
  5616  004F' 2800'              	goto	l2492
  5617  0050'                    u3520:
  5618  0050'                    l2490:
  5619  0050' 3000               	movlw	0
  5620  0051' 00BF'              	movwf	___fladd@a+3
  5621  0052' 3000               	movlw	0
  5622  0053' 00BE'              	movwf	___fladd@a+2
  5623  0054' 3000               	movlw	0
  5624  0055' 00BD'              	movwf	___fladd@a+1
  5625  0056' 3000               	movlw	0
  5626  0057' 00BC'              	movwf	___fladd@a
  5627  0058'                    l2492:
  5628  0058' 17BE'              	bsf	___fladd@a+2,7
  5629  0059'                    l2494:
  5630  0059' 01BF'              	clrf	___fladd@a+3
  5631  005A' 2800'              	goto	l638
  5632  005B'                    l2496:
  5633  005B' 3000               	movlw	0
  5634  005C' 00BF'              	movwf	___fladd@a+3
  5635  005D' 3000               	movlw	0
  5636  005E' 00BE'              	movwf	___fladd@a+2
  5637  005F' 3000               	movlw	0
  5638  0060' 00BD'              	movwf	___fladd@a+1
  5639  0061' 3000               	movlw	0
  5640  0062' 00BC'              	movwf	___fladd@a
  5641  0063'                    l638:
  5642  0063' 084A'              	movf	___fladd@bexp,w
  5643  0064' 0249'              	subwf	___fladd@aexp,w
  5644  0065' 1803               	skipnc
  5645  0066' 2800'              	goto	u3531
  5646  0067' 2800'              	goto	u3530
  5647  0068'                    u3531:
  5648  0068' 2800'              	goto	l2532
  5649  0069'                    u3530:
  5650  0069'                    l2498:
  5651  0069' 1F48'              	btfss	___fladd@signs,6
  5652  006A' 2800'              	goto	u3541
  5653  006B' 2800'              	goto	u3540
  5654  006C'                    u3541:
  5655  006C' 2800'              	goto	l2502
  5656  006D'                    u3540:
  5657  006D'                    l2500:
  5658  006D' 3080               	movlw	128
  5659  006E' 00C0'              	movwf	??___fladd
  5660  006F' 0840'              	movf	??___fladd,w
  5661  0070' 06C8'              	xorwf	___fladd@signs,f
  5662  0071'                    l2502:
  5663  0071' 084A'              	movf	___fladd@bexp,w
  5664  0072' 00C0'              	movwf	??___fladd
  5665  0073' 0840'              	movf	??___fladd,w
  5666  0074' 00CB'              	movwf	___fladd@grs
  5667  0075'                    l2504:
  5668  0075' 0849'              	movf	___fladd@aexp,w
  5669  0076' 00C0'              	movwf	??___fladd
  5670  0077' 0840'              	movf	??___fladd,w
  5671  0078' 00CA'              	movwf	___fladd@bexp
  5672  0079'                    l2506:
  5673  0079' 084B'              	movf	___fladd@grs,w
  5674  007A' 00C0'              	movwf	??___fladd
  5675  007B' 0840'              	movf	??___fladd,w
  5676  007C' 00C9'              	movwf	___fladd@aexp
  5677  007D'                    l2508:
  5678  007D' 0838'              	movf	___fladd@b,w
  5679  007E' 00C0'              	movwf	??___fladd
  5680  007F' 0840'              	movf	??___fladd,w
  5681  0080' 00CB'              	movwf	___fladd@grs
  5682  0081'                    l2510:
  5683  0081' 083C'              	movf	___fladd@a,w
  5684  0082' 00C0'              	movwf	??___fladd
  5685  0083' 0840'              	movf	??___fladd,w
  5686  0084' 00B8'              	movwf	___fladd@b
  5687  0085'                    l2512:
  5688  0085' 084B'              	movf	___fladd@grs,w
  5689  0086' 00C0'              	movwf	??___fladd
  5690  0087' 0840'              	movf	??___fladd,w
  5691  0088' 00BC'              	movwf	___fladd@a
  5692  0089'                    l2514:
  5693  0089' 0839'              	movf	___fladd@b+1,w
  5694  008A' 00C0'              	movwf	??___fladd
  5695  008B' 0840'              	movf	??___fladd,w
  5696  008C' 00CB'              	movwf	___fladd@grs
  5697  008D'                    l2516:
  5698  008D' 083D'              	movf	___fladd@a+1,w
  5699  008E' 00C0'              	movwf	??___fladd
  5700  008F' 0840'              	movf	??___fladd,w
  5701  0090' 00B9'              	movwf	___fladd@b+1
  5702  0091'                    l2518:
  5703  0091' 084B'              	movf	___fladd@grs,w
  5704  0092' 00C0'              	movwf	??___fladd
  5705  0093' 0840'              	movf	??___fladd,w
  5706  0094' 00BD'              	movwf	___fladd@a+1
  5707  0095'                    l2520:
  5708  0095' 083A'              	movf	___fladd@b+2,w
  5709  0096' 00C0'              	movwf	??___fladd
  5710  0097' 0840'              	movf	??___fladd,w
  5711  0098' 00CB'              	movwf	___fladd@grs
  5712  0099'                    l2522:
  5713  0099' 083E'              	movf	___fladd@a+2,w
  5714  009A' 00C0'              	movwf	??___fladd
  5715  009B' 0840'              	movf	??___fladd,w
  5716  009C' 00BA'              	movwf	___fladd@b+2
  5717  009D'                    l2524:
  5718  009D' 084B'              	movf	___fladd@grs,w
  5719  009E' 00C0'              	movwf	??___fladd
  5720  009F' 0840'              	movf	??___fladd,w
  5721  00A0' 00BE'              	movwf	___fladd@a+2
  5722  00A1'                    l2526:
  5723  00A1' 083B'              	movf	___fladd@b+3,w
  5724  00A2' 00C0'              	movwf	??___fladd
  5725  00A3' 0840'              	movf	??___fladd,w
  5726  00A4' 00CB'              	movwf	___fladd@grs
  5727  00A5'                    l2528:
  5728  00A5' 083F'              	movf	___fladd@a+3,w
  5729  00A6' 00C0'              	movwf	??___fladd
  5730  00A7' 0840'              	movf	??___fladd,w
  5731  00A8' 00BB'              	movwf	___fladd@b+3
  5732  00A9'                    l2530:
  5733  00A9' 084B'              	movf	___fladd@grs,w
  5734  00AA' 00C0'              	movwf	??___fladd
  5735  00AB' 0840'              	movf	??___fladd,w
  5736  00AC' 00BF'              	movwf	___fladd@a+3
  5737  00AD'                    l2532:
  5738  00AD' 01CB'              	clrf	___fladd@grs
  5739  00AE'                    l2534:
  5740  00AE' 0849'              	movf	___fladd@aexp,w
  5741  00AF' 00C0'              	movwf	??___fladd
  5742  00B0' 01C1'              	clrf	??___fladd+1
  5743  00B1' 0841'              	movf	??___fladd+1,w
  5744  00B2' 00C3'              	movwf	??___fladd+3
  5745  00B3' 084A'              	movf	___fladd@bexp,w
  5746  00B4' 0240'              	subwf	??___fladd,w
  5747  00B5' 00C2'              	movwf	??___fladd+2
  5748  00B6' 1C03               	skipc
  5749  00B7' 03C3'              	decf	??___fladd+3,f
  5750  00B8' 0843'              	movf	??___fladd+3,w
  5751  00B9' 3A80               	xorlw	128
  5752  00BA' 00FF               	movwf	btemp+1
  5753  00BB' 3080               	movlw	128
  5754  00BC' 027F               	subwf	btemp+1,w
  5755  00BD' 1D03               	skipz
  5756  00BE' 2800'              	goto	u3555
  5757  00BF' 301A               	movlw	26
  5758  00C0' 0242'              	subwf	??___fladd+2,w
  5759  00C1'                    u3555:
  5760  00C1' 1C03               	skipc
  5761  00C2' 2800'              	goto	u3551
  5762  00C3' 2800'              	goto	u3550
  5763  00C4'                    u3551:
  5764  00C4' 2800'              	goto	l2550
  5765  00C5'                    u3550:
  5766  00C5'                    l2536:
  5767  00C5' 1283               	bcf	3,5	;RP0=0, select bank0
  5768  00C6' 1303               	bcf	3,6	;RP1=0, select bank0
  5769  00C7' 083B'              	movf	___fladd@b+3,w
  5770  00C8' 043A'              	iorwf	___fladd@b+2,w
  5771  00C9' 0439'              	iorwf	___fladd@b+1,w
  5772  00CA' 0438'              	iorwf	___fladd@b,w
  5773  00CB' 1D03               	skipz
  5774  00CC' 2800'              	goto	u3561
  5775  00CD' 2800'              	goto	u3560
  5776  00CE'                    u3561:
  5777  00CE' 3001               	movlw	1
  5778  00CF' 2800'              	goto	u3570
  5779  00D0'                    u3560:
  5780  00D0' 3000               	movlw	0
  5781  00D1'                    u3570:
  5782  00D1' 00C0'              	movwf	??___fladd
  5783  00D2' 0840'              	movf	??___fladd,w
  5784  00D3' 00CB'              	movwf	___fladd@grs
  5785  00D4' 3000               	movlw	0
  5786  00D5' 00BB'              	movwf	___fladd@b+3
  5787  00D6' 3000               	movlw	0
  5788  00D7' 00BA'              	movwf	___fladd@b+2
  5789  00D8' 3000               	movlw	0
  5790  00D9' 00B9'              	movwf	___fladd@b+1
  5791  00DA' 3000               	movlw	0
  5792  00DB' 00B8'              	movwf	___fladd@b
  5793  00DC' 0849'              	movf	___fladd@aexp,w
  5794  00DD' 00C0'              	movwf	??___fladd
  5795  00DE' 0840'              	movf	??___fladd,w
  5796  00DF' 00CA'              	movwf	___fladd@bexp
  5797  00E0' 2800'              	goto	l642
  5798  00E1'                    l644:
  5799  00E1' 1C4B'              	btfss	___fladd@grs,0
  5800  00E2' 2800'              	goto	u3581
  5801  00E3' 2800'              	goto	u3580
  5802  00E4'                    u3581:
  5803  00E4' 2800'              	goto	l2540
  5804  00E5'                    u3580:
  5805  00E5'                    l2538:
  5806  00E5' 084B'              	movf	___fladd@grs,w
  5807  00E6' 00C0'              	movwf	??___fladd
  5808  00E7' 1003               	clrc
  5809  00E8' 0C40'              	rrf	??___fladd,w
  5810  00E9' 3801               	iorlw	1
  5811  00EA' 00C1'              	movwf	??___fladd+1
  5812  00EB' 0841'              	movf	??___fladd+1,w
  5813  00EC' 00CB'              	movwf	___fladd@grs
  5814  00ED' 2800'              	goto	l2542
  5815  00EE'                    l2540:
  5816  00EE' 1003               	clrc
  5817  00EF' 0CCB'              	rrf	___fladd@grs,f
  5818  00F0'                    l2542:
  5819  00F0' 1C38'              	btfss	___fladd@b,0
  5820  00F1' 2800'              	goto	u3591
  5821  00F2' 2800'              	goto	u3590
  5822  00F3'                    u3591:
  5823  00F3' 2800'              	goto	l2546
  5824  00F4'                    u3590:
  5825  00F4'                    l2544:
  5826  00F4' 17CB'              	bsf	___fladd@grs,7
  5827  00F5'                    l2546:
  5828  00F5' 3001               	movlw	1
  5829  00F6' 00C0'              	movwf	??___fladd
  5830  00F7'                    u3605:
  5831  00F7' 0D3B'              	rlf	___fladd@b+3,w
  5832  00F8' 0CBB'              	rrf	___fladd@b+3,f
  5833  00F9' 0CBA'              	rrf	___fladd@b+2,f
  5834  00FA' 0CB9'              	rrf	___fladd@b+1,f
  5835  00FB' 0CB8'              	rrf	___fladd@b,f
  5836  00FC' 0B80'              	decfsz	??___fladd& (0+127),f
  5837  00FD' 2800'              	goto	u3605
  5838  00FE'                    l2548:
  5839  00FE' 3001               	movlw	1
  5840  00FF' 00C0'              	movwf	??___fladd
  5841  0100' 0840'              	movf	??___fladd,w
  5842  0101' 07CA'              	addwf	___fladd@bexp,f
  5843  0102'                    l2550:
  5844  0102' 1283               	bcf	3,5	;RP0=0, select bank0
  5845  0103' 1303               	bcf	3,6	;RP1=0, select bank0
  5846  0104' 0849'              	movf	___fladd@aexp,w
  5847  0105' 024A'              	subwf	___fladd@bexp,w
  5848  0106' 1C03               	skipc
  5849  0107' 2800'              	goto	u3611
  5850  0108' 2800'              	goto	u3610
  5851  0109'                    u3611:
  5852  0109' 2800'              	goto	l644
  5853  010A'                    u3610:
  5854  010A'                    l642:
  5855  010A' 1B48'              	btfsc	___fladd@signs,6
  5856  010B' 2800'              	goto	u3621
  5857  010C' 2800'              	goto	u3620
  5858  010D'                    u3621:
  5859  010D' 2800'              	goto	l2576
  5860  010E'                    u3620:
  5861  010E'                    l2552:
  5862  010E' 084A'              	movf	___fladd@bexp,w
  5863  010F' 1D03               	btfss	3,2
  5864  0110' 2800'              	goto	u3631
  5865  0111' 2800'              	goto	u3630
  5866  0112'                    u3631:
  5867  0112' 2800'              	goto	l2558
  5868  0113'                    u3630:
  5869  0113'                    l2554:
  5870  0113' 3000               	movlw	0
  5871  0114' 00BB'              	movwf	?___fladd+3
  5872  0115' 3000               	movlw	0
  5873  0116' 00BA'              	movwf	?___fladd+2
  5874  0117' 3000               	movlw	0
  5875  0118' 00B9'              	movwf	?___fladd+1
  5876  0119' 3000               	movlw	0
  5877  011A' 00B8'              	movwf	?___fladd
  5878  011B' 2800'              	goto	l651
  5879  011C'                    l2558:
  5880  011C' 083C'              	movf	___fladd@a,w
  5881  011D' 07B8'              	addwf	___fladd@b,f
  5882  011E' 083D'              	movf	___fladd@a+1,w
  5883  011F' 1103               	clrz
  5884  0120' 1803               	skipnc
  5885  0121' 3E01               	addlw	1
  5886  0122' 1903               	skipnz
  5887  0123' 2800'              	goto	u3641
  5888  0124' 07B9'              	addwf	___fladd@b+1,f
  5889  0125'                    u3641:
  5890  0125' 083E'              	movf	___fladd@a+2,w
  5891  0126' 1103               	clrz
  5892  0127' 1803               	skipnc
  5893  0128' 3E01               	addlw	1
  5894  0129' 1903               	skipnz
  5895  012A' 2800'              	goto	u3642
  5896  012B' 07BA'              	addwf	___fladd@b+2,f
  5897  012C'                    u3642:
  5898  012C' 083F'              	movf	___fladd@a+3,w
  5899  012D' 1103               	clrz
  5900  012E' 1803               	skipnc
  5901  012F' 3E01               	addlw	1
  5902  0130' 1903               	skipnz
  5903  0131' 2800'              	goto	u3643
  5904  0132' 07BB'              	addwf	___fladd@b+3,f
  5905  0133'                    u3643:
  5906  0133'                    l2560:
  5907  0133' 1C3B'              	btfss	___fladd@b+3,0
  5908  0134' 2800'              	goto	u3651
  5909  0135' 2800'              	goto	u3650
  5910  0136'                    u3651:
  5911  0136' 2800'              	goto	l2610
  5912  0137'                    u3650:
  5913  0137'                    l2562:
  5914  0137' 1C4B'              	btfss	___fladd@grs,0
  5915  0138' 2800'              	goto	u3661
  5916  0139' 2800'              	goto	u3660
  5917  013A'                    u3661:
  5918  013A' 2800'              	goto	l2566
  5919  013B'                    u3660:
  5920  013B'                    l2564:
  5921  013B' 084B'              	movf	___fladd@grs,w
  5922  013C' 00C0'              	movwf	??___fladd
  5923  013D' 1003               	clrc
  5924  013E' 0C40'              	rrf	??___fladd,w
  5925  013F' 3801               	iorlw	1
  5926  0140' 00C1'              	movwf	??___fladd+1
  5927  0141' 0841'              	movf	??___fladd+1,w
  5928  0142' 00CB'              	movwf	___fladd@grs
  5929  0143' 2800'              	goto	l2568
  5930  0144'                    l2566:
  5931  0144' 1003               	clrc
  5932  0145' 0CCB'              	rrf	___fladd@grs,f
  5933  0146'                    l2568:
  5934  0146' 1C38'              	btfss	___fladd@b,0
  5935  0147' 2800'              	goto	u3671
  5936  0148' 2800'              	goto	u3670
  5937  0149'                    u3671:
  5938  0149' 2800'              	goto	l2572
  5939  014A'                    u3670:
  5940  014A'                    l2570:
  5941  014A' 17CB'              	bsf	___fladd@grs,7
  5942  014B'                    l2572:
  5943  014B' 3001               	movlw	1
  5944  014C' 00C0'              	movwf	??___fladd
  5945  014D'                    u3685:
  5946  014D' 0D3B'              	rlf	___fladd@b+3,w
  5947  014E' 0CBB'              	rrf	___fladd@b+3,f
  5948  014F' 0CBA'              	rrf	___fladd@b+2,f
  5949  0150' 0CB9'              	rrf	___fladd@b+1,f
  5950  0151' 0CB8'              	rrf	___fladd@b,f
  5951  0152' 0B80'              	decfsz	??___fladd& (0+127),f
  5952  0153' 2800'              	goto	u3685
  5953  0154'                    l2574:
  5954  0154' 3001               	movlw	1
  5955  0155' 00C0'              	movwf	??___fladd
  5956  0156' 0840'              	movf	??___fladd,w
  5957  0157' 07CA'              	addwf	___fladd@bexp,f
  5958  0158' 2800'              	goto	l2610
  5959  0159'                    l2576:
  5960  0159' 083B'              	movf	___fladd@b+3,w
  5961  015A' 3A80               	xorlw	128
  5962  015B' 00FF               	movwf	btemp+1
  5963  015C' 083F'              	movf	___fladd@a+3,w
  5964  015D' 3A80               	xorlw	128
  5965  015E' 027F               	subwf	btemp+1,w
  5966  015F' 1D03               	skipz
  5967  0160' 2800'              	goto	u3693
  5968  0161' 083E'              	movf	___fladd@a+2,w
  5969  0162' 023A'              	subwf	___fladd@b+2,w
  5970  0163' 1D03               	skipz
  5971  0164' 2800'              	goto	u3693
  5972  0165' 083D'              	movf	___fladd@a+1,w
  5973  0166' 0239'              	subwf	___fladd@b+1,w
  5974  0167' 1D03               	skipz
  5975  0168' 2800'              	goto	u3693
  5976  0169' 083C'              	movf	___fladd@a,w
  5977  016A' 0238'              	subwf	___fladd@b,w
  5978  016B'                    u3693:
  5979  016B' 1803               	skipnc
  5980  016C' 2800'              	goto	u3691
  5981  016D' 2800'              	goto	u3690
  5982  016E'                    u3691:
  5983  016E' 2800'              	goto	l2586
  5984  016F'                    u3690:
  5985  016F'                    l2578:
  5986  016F' 30FF               	movlw	255
  5987  0170' 00C0'              	movwf	??___fladd
  5988  0171' 30FF               	movlw	255
  5989  0172' 00C1'              	movwf	??___fladd+1
  5990  0173' 30FF               	movlw	255
  5991  0174' 00C2'              	movwf	??___fladd+2
  5992  0175' 30FF               	movlw	255
  5993  0176' 00C3'              	movwf	??___fladd+3
  5994  0177' 083C'              	movf	___fladd@a,w
  5995  0178' 00C4'              	movwf	??___fladd+4
  5996  0179' 083D'              	movf	___fladd@a+1,w
  5997  017A' 00C5'              	movwf	??___fladd+5
  5998  017B' 083E'              	movf	___fladd@a+2,w
  5999  017C' 00C6'              	movwf	??___fladd+6
  6000  017D' 083F'              	movf	___fladd@a+3,w
  6001  017E' 00C7'              	movwf	??___fladd+7
  6002  017F' 0838'              	movf	___fladd@b,w
  6003  0180' 02C4'              	subwf	??___fladd+4,f
  6004  0181' 0839'              	movf	___fladd@b+1,w
  6005  0182' 1C03               	skipc
  6006  0183' 0F39'              	incfsz	___fladd@b+1,w
  6007  0184' 2800'              	goto	u3701
  6008  0185' 2800'              	goto	u3702
  6009  0186'                    u3701:
  6010  0186' 02C5'              	subwf	??___fladd+5,f
  6011  0187'                    u3702:
  6012  0187' 083A'              	movf	___fladd@b+2,w
  6013  0188' 1C03               	skipc
  6014  0189' 0F3A'              	incfsz	___fladd@b+2,w
  6015  018A' 2800'              	goto	u3703
  6016  018B' 2800'              	goto	u3704
  6017  018C'                    u3703:
  6018  018C' 02C6'              	subwf	??___fladd+6,f
  6019  018D'                    u3704:
  6020  018D' 083B'              	movf	___fladd@b+3,w
  6021  018E' 1C03               	skipc
  6022  018F' 0F3B'              	incfsz	___fladd@b+3,w
  6023  0190' 2800'              	goto	u3705
  6024  0191' 2800'              	goto	u3706
  6025  0192'                    u3705:
  6026  0192' 02C7'              	subwf	??___fladd+7,f
  6027  0193'                    u3706:
  6028  0193' 0844'              	movf	??___fladd+4,w
  6029  0194' 07C0'              	addwf	??___fladd,f
  6030  0195' 0845'              	movf	??___fladd+5,w
  6031  0196' 1803               	skipnc
  6032  0197' 0F45'              	incfsz	??___fladd+5,w
  6033  0198' 2800'              	goto	u3710
  6034  0199' 2800'              	goto	u3711
  6035  019A'                    u3710:
  6036  019A' 07C1'              	addwf	??___fladd+1,f
  6037  019B'                    u3711:
  6038  019B' 0846'              	movf	??___fladd+6,w
  6039  019C' 1803               	skipnc
  6040  019D' 0F46'              	incfsz	??___fladd+6,w
  6041  019E' 2800'              	goto	u3712
  6042  019F' 2800'              	goto	u3713
  6043  01A0'                    u3712:
  6044  01A0' 07C2'              	addwf	??___fladd+2,f
  6045  01A1'                    u3713:
  6046  01A1' 0847'              	movf	??___fladd+7,w
  6047  01A2' 1803               	skipnc
  6048  01A3' 0A47'              	incf	??___fladd+7,w
  6049  01A4' 07C3'              	addwf	??___fladd+3,f
  6050  01A5' 0843'              	movf	??___fladd+3,w
  6051  01A6' 00BB'              	movwf	___fladd@b+3
  6052  01A7' 0842'              	movf	??___fladd+2,w
  6053  01A8' 00BA'              	movwf	___fladd@b+2
  6054  01A9' 0841'              	movf	??___fladd+1,w
  6055  01AA' 00B9'              	movwf	___fladd@b+1
  6056  01AB' 0840'              	movf	??___fladd,w
  6057  01AC' 00B8'              	movwf	___fladd@b
  6058  01AD'                    l2580:
  6059  01AD' 3080               	movlw	128
  6060  01AE' 00C0'              	movwf	??___fladd
  6061  01AF' 0840'              	movf	??___fladd,w
  6062  01B0' 06C8'              	xorwf	___fladd@signs,f
  6063  01B1' 09CB'              	comf	___fladd@grs,f
  6064  01B2' 0ACB'              	incf	___fladd@grs,f
  6065  01B3'                    l2582:
  6066  01B3' 084B'              	movf	___fladd@grs,w
  6067  01B4' 1D03               	btfss	3,2
  6068  01B5' 2800'              	goto	u3721
  6069  01B6' 2800'              	goto	u3720
  6070  01B7'                    u3721:
  6071  01B7' 2800'              	goto	l659
  6072  01B8'                    u3720:
  6073  01B8'                    l2584:
  6074  01B8' 3001               	movlw	1
  6075  01B9' 07B8'              	addwf	___fladd@b,f
  6076  01BA' 3000               	movlw	0
  6077  01BB' 1803               	skipnc
  6078  01BC' 3001               	movlw	1
  6079  01BD' 07B9'              	addwf	___fladd@b+1,f
  6080  01BE' 3000               	movlw	0
  6081  01BF' 1803               	skipnc
  6082  01C0' 3001               	movlw	1
  6083  01C1' 07BA'              	addwf	___fladd@b+2,f
  6084  01C2' 3000               	movlw	0
  6085  01C3' 1803               	skipnc
  6086  01C4' 3001               	movlw	1
  6087  01C5' 07BB'              	addwf	___fladd@b+3,f
  6088  01C6' 2800'              	goto	l659
  6089  01C7'                    l2586:
  6090  01C7' 083C'              	movf	___fladd@a,w
  6091  01C8' 02B8'              	subwf	___fladd@b,f
  6092  01C9' 083D'              	movf	___fladd@a+1,w
  6093  01CA' 1C03               	skipc
  6094  01CB' 0F3D'              	incfsz	___fladd@a+1,w
  6095  01CC' 02B9'              	subwf	___fladd@b+1,f
  6096  01CD' 083E'              	movf	___fladd@a+2,w
  6097  01CE' 1C03               	skipc
  6098  01CF' 0F3E'              	incfsz	___fladd@a+2,w
  6099  01D0' 02BA'              	subwf	___fladd@b+2,f
  6100  01D1' 083F'              	movf	___fladd@a+3,w
  6101  01D2' 1C03               	skipc
  6102  01D3' 0F3F'              	incfsz	___fladd@a+3,w
  6103  01D4' 02BB'              	subwf	___fladd@b+3,f
  6104  01D5'                    l659:
  6105  01D5' 083B'              	movf	___fladd@b+3,w
  6106  01D6' 043A'              	iorwf	___fladd@b+2,w
  6107  01D7' 0439'              	iorwf	___fladd@b+1,w
  6108  01D8' 0438'              	iorwf	___fladd@b,w
  6109  01D9' 1D03               	skipz
  6110  01DA' 2800'              	goto	u3731
  6111  01DB' 2800'              	goto	u3730
  6112  01DC'                    u3731:
  6113  01DC' 2800'              	goto	l2608
  6114  01DD'                    u3730:
  6115  01DD'                    l2588:
  6116  01DD' 084B'              	movf	___fladd@grs,w
  6117  01DE' 1D03               	btfss	3,2
  6118  01DF' 2800'              	goto	u3741
  6119  01E0' 2800'              	goto	u3740
  6120  01E1'                    u3741:
  6121  01E1' 2800'              	goto	l2608
  6122  01E2'                    u3740:
  6123  01E2'                    l2590:
  6124  01E2' 3000               	movlw	0
  6125  01E3' 00BB'              	movwf	?___fladd+3
  6126  01E4' 3000               	movlw	0
  6127  01E5' 00BA'              	movwf	?___fladd+2
  6128  01E6' 3000               	movlw	0
  6129  01E7' 00B9'              	movwf	?___fladd+1
  6130  01E8' 3000               	movlw	0
  6131  01E9' 00B8'              	movwf	?___fladd
  6132  01EA' 2800'              	goto	l651
  6133  01EB'                    l2594:
  6134  01EB' 3001               	movlw	1
  6135  01EC' 00C0'              	movwf	??___fladd
  6136  01ED'                    u3755:
  6137  01ED' 1003               	clrc
  6138  01EE' 0DB8'              	rlf	___fladd@b,f
  6139  01EF' 0DB9'              	rlf	___fladd@b+1,f
  6140  01F0' 0DBA'              	rlf	___fladd@b+2,f
  6141  01F1' 0DBB'              	rlf	___fladd@b+3,f
  6142  01F2' 0BC0'              	decfsz	??___fladd,f
  6143  01F3' 2800'              	goto	u3755
  6144  01F4'                    l2596:
  6145  01F4' 1FCB'              	btfss	___fladd@grs,7
  6146  01F5' 2800'              	goto	u3761
  6147  01F6' 2800'              	goto	u3760
  6148  01F7'                    u3761:
  6149  01F7' 2800'              	goto	l663
  6150  01F8'                    u3760:
  6151  01F8'                    l2598:
  6152  01F8' 1438'              	bsf	___fladd@b,0
  6153  01F9'                    l663:
  6154  01F9' 1C4B'              	btfss	___fladd@grs,0
  6155  01FA' 2800'              	goto	u3771
  6156  01FB' 2800'              	goto	u3770
  6157  01FC'                    u3771:
  6158  01FC' 2800'              	goto	l2602
  6159  01FD'                    u3770:
  6160  01FD'                    l2600:
  6161  01FD' 1403               	setc
  6162  01FE' 0DCB'              	rlf	___fladd@grs,f
  6163  01FF' 2800'              	goto	l2604
  6164  0200'                    l2602:
  6165  0200' 1003               	clrc
  6166  0201' 0DCB'              	rlf	___fladd@grs,f
  6167  0202'                    l2604:
  6168  0202' 084A'              	movf	___fladd@bexp,w
  6169  0203' 1903               	btfsc	3,2
  6170  0204' 2800'              	goto	u3781
  6171  0205' 2800'              	goto	u3780
  6172  0206'                    u3781:
  6173  0206' 2800'              	goto	l2608
  6174  0207'                    u3780:
  6175  0207'                    l2606:
  6176  0207' 3001               	movlw	1
  6177  0208' 02CA'              	subwf	___fladd@bexp,f
  6178  0209'                    l2608:
  6179  0209' 1FBA'              	btfss	___fladd@b+2,7
  6180  020A' 2800'              	goto	u3791
  6181  020B' 2800'              	goto	u3790
  6182  020C'                    u3791:
  6183  020C' 2800'              	goto	l2594
  6184  020D'                    u3790:
  6185  020D'                    l2610:
  6186  020D' 01C9'              	clrf	___fladd@aexp
  6187  020E'                    l2612:
  6188  020E' 1FCB'              	btfss	___fladd@grs,7
  6189  020F' 2800'              	goto	u3801
  6190  0210' 2800'              	goto	u3800
  6191  0211'                    u3801:
  6192  0211' 2800'              	goto	l2620
  6193  0212'                    u3800:
  6194  0212'                    l2614:
  6195  0212' 084B'              	movf	___fladd@grs,w
  6196  0213' 397F               	andlw	127
  6197  0214' 1903               	btfsc	3,2
  6198  0215' 2800'              	goto	u3811
  6199  0216' 2800'              	goto	u3810
  6200  0217'                    u3811:
  6201  0217' 2800'              	goto	l669
  6202  0218'                    u3810:
  6203  0218'                    l2616:
  6204  0218' 01C9'              	clrf	___fladd@aexp
  6205  0219' 0AC9'              	incf	___fladd@aexp,f
  6206  021A' 2800'              	goto	l2620
  6207  021B'                    l669:
  6208  021B' 1C38'              	btfss	___fladd@b,0
  6209  021C' 2800'              	goto	u3821
  6210  021D' 2800'              	goto	u3820
  6211  021E'                    u3821:
  6212  021E' 2800'              	goto	l2620
  6213  021F'                    u3820:
  6214  021F' 2800'              	goto	l2616
  6215  0220'                    l2620:
  6216  0220' 0849'              	movf	___fladd@aexp,w
  6217  0221' 1903               	btfsc	3,2
  6218  0222' 2800'              	goto	u3831
  6219  0223' 2800'              	goto	u3830
  6220  0224'                    u3831:
  6221  0224' 2800'              	goto	l672
  6222  0225'                    u3830:
  6223  0225'                    l2622:
  6224  0225' 3001               	movlw	1
  6225  0226' 07B8'              	addwf	___fladd@b,f
  6226  0227' 3000               	movlw	0
  6227  0228' 1803               	skipnc
  6228  0229' 3001               	movlw	1
  6229  022A' 07B9'              	addwf	___fladd@b+1,f
  6230  022B' 3000               	movlw	0
  6231  022C' 1803               	skipnc
  6232  022D' 3001               	movlw	1
  6233  022E' 07BA'              	addwf	___fladd@b+2,f
  6234  022F' 3000               	movlw	0
  6235  0230' 1803               	skipnc
  6236  0231' 3001               	movlw	1
  6237  0232' 07BB'              	addwf	___fladd@b+3,f
  6238  0233'                    l2624:
  6239  0233' 1C3B'              	btfss	___fladd@b+3,0
  6240  0234' 2800'              	goto	u3841
  6241  0235' 2800'              	goto	u3840
  6242  0236'                    u3841:
  6243  0236' 2800'              	goto	l672
  6244  0237'                    u3840:
  6245  0237'                    l2626:
  6246  0237' 0838'              	movf	___fladd@b,w
  6247  0238' 00C0'              	movwf	??___fladd
  6248  0239' 0839'              	movf	___fladd@b+1,w
  6249  023A' 00C1'              	movwf	??___fladd+1
  6250  023B' 083A'              	movf	___fladd@b+2,w
  6251  023C' 00C2'              	movwf	??___fladd+2
  6252  023D' 083B'              	movf	___fladd@b+3,w
  6253  023E' 00C3'              	movwf	??___fladd+3
  6254  023F' 3001               	movlw	1
  6255  0240' 00C4'              	movwf	??___fladd+4
  6256  0241'                    u3855:
  6257  0241' 0D43'              	rlf	??___fladd+3,w
  6258  0242' 0CC3'              	rrf	??___fladd+3,f
  6259  0243' 0CC2'              	rrf	??___fladd+2,f
  6260  0244' 0CC1'              	rrf	??___fladd+1,f
  6261  0245' 0CC0'              	rrf	??___fladd,f
  6262  0246'                    u3850:
  6263  0246' 0BC4'              	decfsz	??___fladd+4,f
  6264  0247' 2800'              	goto	u3855
  6265  0248' 0843'              	movf	??___fladd+3,w
  6266  0249' 00BB'              	movwf	___fladd@b+3
  6267  024A' 0842'              	movf	??___fladd+2,w
  6268  024B' 00BA'              	movwf	___fladd@b+2
  6269  024C' 0841'              	movf	??___fladd+1,w
  6270  024D' 00B9'              	movwf	___fladd@b+1
  6271  024E' 0840'              	movf	??___fladd,w
  6272  024F' 00B8'              	movwf	___fladd@b
  6273  0250' 0A4A'              	incf	___fladd@bexp,w
  6274  0251' 1903               	btfsc	3,2
  6275  0252' 2800'              	goto	u3861
  6276  0253' 2800'              	goto	u3860
  6277  0254'                    u3861:
  6278  0254' 2800'              	goto	l672
  6279  0255'                    u3860:
  6280  0255'                    l2628:
  6281  0255' 3001               	movlw	1
  6282  0256' 00C0'              	movwf	??___fladd
  6283  0257' 0840'              	movf	??___fladd,w
  6284  0258' 07CA'              	addwf	___fladd@bexp,f
  6285  0259'                    l672:
  6286  0259' 0A4A'              	incf	___fladd@bexp,w
  6287  025A' 1903               	btfsc	3,2
  6288  025B' 2800'              	goto	u3871
  6289  025C' 2800'              	goto	u3870
  6290  025D'                    u3871:
  6291  025D' 2800'              	goto	l2632
  6292  025E'                    u3870:
  6293  025E'                    l2630:
  6294  025E' 084A'              	movf	___fladd@bexp,w
  6295  025F' 1D03               	btfss	3,2
  6296  0260' 2800'              	goto	u3881
  6297  0261' 2800'              	goto	u3880
  6298  0262'                    u3881:
  6299  0262' 2800'              	goto	l2638
  6300  0263'                    u3880:
  6301  0263'                    l2632:
  6302  0263' 3000               	movlw	0
  6303  0264' 00BB'              	movwf	___fladd@b+3
  6304  0265' 3000               	movlw	0
  6305  0266' 00BA'              	movwf	___fladd@b+2
  6306  0267' 3000               	movlw	0
  6307  0268' 00B9'              	movwf	___fladd@b+1
  6308  0269' 3000               	movlw	0
  6309  026A' 00B8'              	movwf	___fladd@b
  6310  026B'                    l2634:
  6311  026B' 084A'              	movf	___fladd@bexp,w
  6312  026C' 1D03               	btfss	3,2
  6313  026D' 2800'              	goto	u3891
  6314  026E' 2800'              	goto	u3890
  6315  026F'                    u3891:
  6316  026F' 2800'              	goto	l2638
  6317  0270'                    u3890:
  6318  0270'                    l2636:
  6319  0270' 01C8'              	clrf	___fladd@signs
  6320  0271'                    l2638:
  6321  0271' 1C4A'              	btfss	___fladd@bexp,0
  6322  0272' 2800'              	goto	u3901
  6323  0273' 2800'              	goto	u3900
  6324  0274'                    u3901:
  6325  0274' 2800'              	goto	l2642
  6326  0275'                    u3900:
  6327  0275'                    l2640:
  6328  0275' 17BA'              	bsf	___fladd@b+2,7
  6329  0276' 2800'              	goto	l680
  6330  0277'                    l2642:
  6331  0277' 307F               	movlw	127
  6332  0278' 00C0'              	movwf	??___fladd
  6333  0279' 0840'              	movf	??___fladd,w
  6334  027A' 05BA'              	andwf	___fladd@b+2,f
  6335  027B'                    l680:
  6336  027B' 084A'              	movf	___fladd@bexp,w
  6337  027C' 00C0'              	movwf	??___fladd
  6338  027D' 1003               	clrc
  6339  027E' 0C40'              	rrf	??___fladd,w
  6340  027F' 00C1'              	movwf	??___fladd+1
  6341  0280' 0841'              	movf	??___fladd+1,w
  6342  0281' 00BB'              	movwf	___fladd@b+3
  6343  0282'                    l2644:
  6344  0282' 1FC8'              	btfss	___fladd@signs,7
  6345  0283' 2800'              	goto	u3911
  6346  0284' 2800'              	goto	u3910
  6347  0285'                    u3911:
  6348  0285' 2800'              	goto	l681
  6349  0286'                    u3910:
  6350  0286'                    l2646:
  6351  0286' 17BB'              	bsf	___fladd@b+3,7
  6352  0287'                    l681:
  6353  0287'                    l651:
  6354  0287' 0008               	return
  6355  0288'                    __end_of___fladd:
  6356                           
  6357                           	psect	text17
  6358  0000'                    __ptext17:	
  6359 ;; *************** function ___flneg *****************
  6360 ;; Defined at:
  6361 ;;		line 15 in file "C:\Program Files\Microchip\xc8\v2.31\pic\sources\c90\common\flneg.c"
  6362 ;; Parameters:    Size  Location     Type
  6363 ;;  f1              4    3[COMMON] unsigned char 
  6364 ;; Auto vars:     Size  Location     Type
  6365 ;;		None
  6366 ;; Return value:  Size  Location     Type
  6367 ;;                  4    3[COMMON] unsigned char 
  6368 ;; Registers used:
  6369 ;;		wreg
  6370 ;; Tracked objects:
  6371 ;;		On entry : 0/0
  6372 ;;		On exit  : 0/0
  6373 ;;		Unchanged: 0/0
  6374 ;; Data sizes:     COMMON   BANK0   BANK1   BANK3   BANK2
  6375 ;;      Params:         4       0       0       0       0
  6376 ;;      Locals:         0       0       0       0       0
  6377 ;;      Temps:          0       0       0       0       0
  6378 ;;      Totals:         4       0       0       0       0
  6379 ;;Total ram usage:        4 bytes
  6380 ;; Hardware stack levels used:    1
  6381 ;; Hardware stack levels required when called:    1
  6382 ;; This function calls:
  6383 ;;		Nothing
  6384 ;; This function is called by:
  6385 ;;		_sprintf
  6386 ;; This function uses a non-reentrant model
  6387 ;;
  6388                           
  6389                           
  6390                           ;psect for function ___flneg
  6391  0000'                    ___flneg:
  6392  0000'                    l3032:	
  6393                           ;incstack = 0
  6394                           ; Regs used in ___flneg: [wreg]
  6395                           
  6396  0000' 0806'              	movf	___flneg@f1+3,w
  6397  0001' 0405'              	iorwf	___flneg@f1+2,w
  6398  0002' 0404'              	iorwf	___flneg@f1+1,w
  6399  0003' 0403'              	iorwf	___flneg@f1,w
  6400  0004' 1903               	skipnz
  6401  0005' 2800'              	goto	u5031
  6402  0006' 2800'              	goto	u5030
  6403  0007'                    u5031:
  6404  0007' 2800'              	goto	l3036
  6405  0008'                    u5030:
  6406  0008'                    l3034:
  6407  0008' 3080               	movlw	128
  6408  0009' 0686'              	xorwf	___flneg@f1+3,f
  6409  000A'                    l3036:
  6410  000A'                    l510:
  6411  000A' 0008               	return
  6412  000B'                    __end_of___flneg:
  6413                           
  6414                           	psect	text18
  6415  0000'                    __ptext18:	
  6416 ;; *************** function ___flge *****************
  6417 ;; Defined at:
  6418 ;;		line 4 in file "C:\Program Files\Microchip\xc8\v2.31\pic\sources\c90\common\flge.c"
  6419 ;; Parameters:    Size  Location     Type
  6420 ;;  ff1             4    0[BANK0 ] unsigned char 
  6421 ;;  ff2             4    4[BANK0 ] unsigned char 
  6422 ;; Auto vars:     Size  Location     Type
  6423 ;;		None
  6424 ;; Return value:  Size  Location     Type
  6425 ;;		None               void
  6426 ;; Registers used:
  6427 ;;		wreg, status,2, status,0
  6428 ;; Tracked objects:
  6429 ;;		On entry : 0/0
  6430 ;;		On exit  : 0/0
  6431 ;;		Unchanged: 0/0
  6432 ;; Data sizes:     COMMON   BANK0   BANK1   BANK3   BANK2
  6433 ;;      Params:         0       8       0       0       0
  6434 ;;      Locals:         0       0       0       0       0
  6435 ;;      Temps:          4       0       0       0       0
  6436 ;;      Totals:         4       8       0       0       0
  6437 ;;Total ram usage:       12 bytes
  6438 ;; Hardware stack levels used:    1
  6439 ;; Hardware stack levels required when called:    1
  6440 ;; This function calls:
  6441 ;;		Nothing
  6442 ;; This function is called by:
  6443 ;;		_sprintf
  6444 ;; This function uses a non-reentrant model
  6445 ;;
  6446                           
  6447                           
  6448                           ;psect for function ___flge
  6449  0000'                    ___flge:
  6450  0000'                    l3960:	
  6451                           ;incstack = 0
  6452                           ; Regs used in ___flge: [wreg+status,2+status,0]
  6453                           
  6454  0000' 3000               	movlw	0
  6455  0001' 1283               	bcf	3,5	;RP0=0, select bank0
  6456  0002' 1303               	bcf	3,6	;RP1=0, select bank0
  6457  0003' 0500'              	andwf	___flge@ff1,w
  6458  0004' 0083'              	movwf	??___flge
  6459  0005' 3000               	movlw	0
  6460  0006' 0501'              	andwf	___flge@ff1+1,w
  6461  0007' 0084'              	movwf	??___flge+1
  6462  0008' 3080               	movlw	128
  6463  0009' 0502'              	andwf	___flge@ff1+2,w
  6464  000A' 0085'              	movwf	??___flge+2
  6465  000B' 307F               	movlw	127
  6466  000C' 0503'              	andwf	___flge@ff1+3,w
  6467  000D' 0086'              	movwf	??___flge+3
  6468  000E' 0806'              	movf	??___flge+3,w
  6469  000F' 0405'              	iorwf	??___flge+2,w
  6470  0010' 0404'              	iorwf	??___flge+1,w
  6471  0011' 0403'              	iorwf	??___flge,w
  6472  0012' 1D03               	skipz
  6473  0013' 2800'              	goto	u6841
  6474  0014' 2800'              	goto	u6840
  6475  0015'                    u6841:
  6476  0015' 2800'              	goto	l502
  6477  0016'                    u6840:
  6478  0016'                    l3962:
  6479  0016' 3000               	movlw	0
  6480  0017' 0083'              	movwf	___flge@ff1+3
  6481  0018' 3000               	movlw	0
  6482  0019' 0082'              	movwf	___flge@ff1+2
  6483  001A' 3000               	movlw	0
  6484  001B' 0081'              	movwf	___flge@ff1+1
  6485  001C' 3000               	movlw	0
  6486  001D' 0080'              	movwf	___flge@ff1
  6487  001E'                    l502:
  6488  001E' 3000               	movlw	0
  6489  001F' 0504'              	andwf	___flge@ff2,w
  6490  0020' 0083'              	movwf	??___flge
  6491  0021' 3000               	movlw	0
  6492  0022' 0505'              	andwf	___flge@ff2+1,w
  6493  0023' 0084'              	movwf	??___flge+1
  6494  0024' 3080               	movlw	128
  6495  0025' 0506'              	andwf	___flge@ff2+2,w
  6496  0026' 0085'              	movwf	??___flge+2
  6497  0027' 307F               	movlw	127
  6498  0028' 0507'              	andwf	___flge@ff2+3,w
  6499  0029' 0086'              	movwf	??___flge+3
  6500  002A' 0806'              	movf	??___flge+3,w
  6501  002B' 0405'              	iorwf	??___flge+2,w
  6502  002C' 0404'              	iorwf	??___flge+1,w
  6503  002D' 0403'              	iorwf	??___flge,w
  6504  002E' 1D03               	skipz
  6505  002F' 2800'              	goto	u6851
  6506  0030' 2800'              	goto	u6850
  6507  0031'                    u6851:
  6508  0031' 2800'              	goto	l3966
  6509  0032'                    u6850:
  6510  0032'                    l3964:
  6511  0032' 3000               	movlw	0
  6512  0033' 0087'              	movwf	___flge@ff2+3
  6513  0034' 3000               	movlw	0
  6514  0035' 0086'              	movwf	___flge@ff2+2
  6515  0036' 3000               	movlw	0
  6516  0037' 0085'              	movwf	___flge@ff2+1
  6517  0038' 3000               	movlw	0
  6518  0039' 0084'              	movwf	___flge@ff2
  6519  003A'                    l3966:
  6520  003A' 1F83'              	btfss	___flge@ff1+3,7
  6521  003B' 2800'              	goto	u6861
  6522  003C' 2800'              	goto	u6860
  6523  003D'                    u6861:
  6524  003D' 2800'              	goto	l3970
  6525  003E'                    u6860:
  6526  003E'                    l3968:
  6527  003E' 3000               	movlw	0
  6528  003F' 0083'              	movwf	??___flge
  6529  0040' 3000               	movlw	0
  6530  0041' 0084'              	movwf	??___flge+1
  6531  0042' 3000               	movlw	0
  6532  0043' 0085'              	movwf	??___flge+2
  6533  0044' 3080               	movlw	128
  6534  0045' 0086'              	movwf	??___flge+3
  6535  0046' 0800'              	movf	___flge@ff1,w
  6536  0047' 0283'              	subwf	??___flge,f
  6537  0048' 0801'              	movf	___flge@ff1+1,w
  6538  0049' 1C03               	skipc
  6539  004A' 0F01'              	incfsz	___flge@ff1+1,w
  6540  004B' 2800'              	goto	u6871
  6541  004C' 2800'              	goto	u6872
  6542  004D'                    u6871:
  6543  004D' 0284'              	subwf	??___flge+1,f
  6544  004E'                    u6872:
  6545  004E' 0802'              	movf	___flge@ff1+2,w
  6546  004F' 1C03               	skipc
  6547  0050' 0F02'              	incfsz	___flge@ff1+2,w
  6548  0051' 2800'              	goto	u6873
  6549  0052' 2800'              	goto	u6874
  6550  0053'                    u6873:
  6551  0053' 0285'              	subwf	??___flge+2,f
  6552  0054'                    u6874:
  6553  0054' 0803'              	movf	___flge@ff1+3,w
  6554  0055' 1C03               	skipc
  6555  0056' 0F03'              	incfsz	___flge@ff1+3,w
  6556  0057' 2800'              	goto	u6875
  6557  0058' 2800'              	goto	u6876
  6558  0059'                    u6875:
  6559  0059' 0286'              	subwf	??___flge+3,f
  6560  005A'                    u6876:
  6561  005A' 0806'              	movf	??___flge+3,w
  6562  005B' 0083'              	movwf	___flge@ff1+3
  6563  005C' 0805'              	movf	??___flge+2,w
  6564  005D' 0082'              	movwf	___flge@ff1+2
  6565  005E' 0804'              	movf	??___flge+1,w
  6566  005F' 0081'              	movwf	___flge@ff1+1
  6567  0060' 0803'              	movf	??___flge,w
  6568  0061' 0080'              	movwf	___flge@ff1
  6569  0062'                    l3970:
  6570  0062' 1F87'              	btfss	___flge@ff2+3,7
  6571  0063' 2800'              	goto	u6881
  6572  0064' 2800'              	goto	u6880
  6573  0065'                    u6881:
  6574  0065' 2800'              	goto	l505
  6575  0066'                    u6880:
  6576  0066'                    l3972:
  6577  0066' 3000               	movlw	0
  6578  0067' 0083'              	movwf	??___flge
  6579  0068' 3000               	movlw	0
  6580  0069' 0084'              	movwf	??___flge+1
  6581  006A' 3000               	movlw	0
  6582  006B' 0085'              	movwf	??___flge+2
  6583  006C' 3080               	movlw	128
  6584  006D' 0086'              	movwf	??___flge+3
  6585  006E' 0804'              	movf	___flge@ff2,w
  6586  006F' 0283'              	subwf	??___flge,f
  6587  0070' 0805'              	movf	___flge@ff2+1,w
  6588  0071' 1C03               	skipc
  6589  0072' 0F05'              	incfsz	___flge@ff2+1,w
  6590  0073' 2800'              	goto	u6891
  6591  0074' 2800'              	goto	u6892
  6592  0075'                    u6891:
  6593  0075' 0284'              	subwf	??___flge+1,f
  6594  0076'                    u6892:
  6595  0076' 0806'              	movf	___flge@ff2+2,w
  6596  0077' 1C03               	skipc
  6597  0078' 0F06'              	incfsz	___flge@ff2+2,w
  6598  0079' 2800'              	goto	u6893
  6599  007A' 2800'              	goto	u6894
  6600  007B'                    u6893:
  6601  007B' 0285'              	subwf	??___flge+2,f
  6602  007C'                    u6894:
  6603  007C' 0807'              	movf	___flge@ff2+3,w
  6604  007D' 1C03               	skipc
  6605  007E' 0F07'              	incfsz	___flge@ff2+3,w
  6606  007F' 2800'              	goto	u6895
  6607  0080' 2800'              	goto	u6896
  6608  0081'                    u6895:
  6609  0081' 0286'              	subwf	??___flge+3,f
  6610  0082'                    u6896:
  6611  0082' 0806'              	movf	??___flge+3,w
  6612  0083' 0087'              	movwf	___flge@ff2+3
  6613  0084' 0805'              	movf	??___flge+2,w
  6614  0085' 0086'              	movwf	___flge@ff2+2
  6615  0086' 0804'              	movf	??___flge+1,w
  6616  0087' 0085'              	movwf	___flge@ff2+1
  6617  0088' 0803'              	movf	??___flge,w
  6618  0089' 0084'              	movwf	___flge@ff2
  6619  008A'                    l505:
  6620  008A' 3080               	movlw	128
  6621  008B' 0683'              	xorwf	___flge@ff1+3,f
  6622  008C' 3080               	movlw	128
  6623  008D' 0687'              	xorwf	___flge@ff2+3,f
  6624  008E' 0807'              	movf	___flge@ff2+3,w
  6625  008F' 0203'              	subwf	___flge@ff1+3,w
  6626  0090' 1D03               	skipz
  6627  0091' 2800'              	goto	u6905
  6628  0092' 0806'              	movf	___flge@ff2+2,w
  6629  0093' 0202'              	subwf	___flge@ff1+2,w
  6630  0094' 1D03               	skipz
  6631  0095' 2800'              	goto	u6905
  6632  0096' 0805'              	movf	___flge@ff2+1,w
  6633  0097' 0201'              	subwf	___flge@ff1+1,w
  6634  0098' 1D03               	skipz
  6635  0099' 2800'              	goto	u6905
  6636  009A' 0804'              	movf	___flge@ff2,w
  6637  009B' 0200'              	subwf	___flge@ff1,w
  6638  009C'                    u6905:
  6639  009C' 1803               	skipnc
  6640  009D' 2800'              	goto	u6901
  6641  009E' 2800'              	goto	u6900
  6642  009F'                    u6901:
  6643  009F' 2800'              	goto	l3976
  6644  00A0'                    u6900:
  6645  00A0'                    l3974:
  6646  00A0' 1003               	clrc
  6647  00A1' 2800'              	goto	l506
  6648  00A2'                    l3976:
  6649  00A2' 1403               	setc
  6650  00A3'                    l506:
  6651  00A3' 0008               	return
  6652  00A4'                    __end_of___flge:
  6653                           
  6654                           	psect	text19
  6655  0000'                    __ptext19:	
  6656 ;; *************** function ___fleq *****************
  6657 ;; Defined at:
  6658 ;;		line 4 in file "C:\Program Files\Microchip\xc8\v2.31\pic\sources\c90\common\fleq.c"
  6659 ;; Parameters:    Size  Location     Type
  6660 ;;  ff1             4    0[BANK0 ] unsigned char 
  6661 ;;  ff2             4    4[BANK0 ] unsigned char 
  6662 ;; Auto vars:     Size  Location     Type
  6663 ;;		None
  6664 ;; Return value:  Size  Location     Type
  6665 ;;		None               void
  6666 ;; Registers used:
  6667 ;;		wreg, status,2, status,0
  6668 ;; Tracked objects:
  6669 ;;		On entry : 0/0
  6670 ;;		On exit  : 0/0
  6671 ;;		Unchanged: 0/0
  6672 ;; Data sizes:     COMMON   BANK0   BANK1   BANK3   BANK2
  6673 ;;      Params:         0       8       0       0       0
  6674 ;;      Locals:         0       0       0       0       0
  6675 ;;      Temps:          4       0       0       0       0
  6676 ;;      Totals:         4       8       0       0       0
  6677 ;;Total ram usage:       12 bytes
  6678 ;; Hardware stack levels used:    1
  6679 ;; Hardware stack levels required when called:    1
  6680 ;; This function calls:
  6681 ;;		Nothing
  6682 ;; This function is called by:
  6683 ;;		_sprintf
  6684 ;; This function uses a non-reentrant model
  6685 ;;
  6686                           
  6687                           
  6688                           ;psect for function ___fleq
  6689  0000'                    ___fleq:
  6690  0000'                    l3948:	
  6691                           ;incstack = 0
  6692                           ; Regs used in ___fleq: [wreg+status,2+status,0]
  6693                           
  6694  0000' 3000               	movlw	0
  6695  0001' 1283               	bcf	3,5	;RP0=0, select bank0
  6696  0002' 1303               	bcf	3,6	;RP1=0, select bank0
  6697  0003' 0500'              	andwf	___fleq@ff1,w
  6698  0004' 0083'              	movwf	??___fleq
  6699  0005' 3000               	movlw	0
  6700  0006' 0501'              	andwf	___fleq@ff1+1,w
  6701  0007' 0084'              	movwf	??___fleq+1
  6702  0008' 3080               	movlw	128
  6703  0009' 0502'              	andwf	___fleq@ff1+2,w
  6704  000A' 0085'              	movwf	??___fleq+2
  6705  000B' 307F               	movlw	127
  6706  000C' 0503'              	andwf	___fleq@ff1+3,w
  6707  000D' 0086'              	movwf	??___fleq+3
  6708  000E' 0806'              	movf	??___fleq+3,w
  6709  000F' 0405'              	iorwf	??___fleq+2,w
  6710  0010' 0404'              	iorwf	??___fleq+1,w
  6711  0011' 0403'              	iorwf	??___fleq,w
  6712  0012' 1D03               	skipz
  6713  0013' 2800'              	goto	u6811
  6714  0014' 2800'              	goto	u6810
  6715  0015'                    u6811:
  6716  0015' 2800'              	goto	l497
  6717  0016'                    u6810:
  6718  0016'                    l3950:
  6719  0016' 3000               	movlw	0
  6720  0017' 0083'              	movwf	___fleq@ff1+3
  6721  0018' 3000               	movlw	0
  6722  0019' 0082'              	movwf	___fleq@ff1+2
  6723  001A' 3000               	movlw	0
  6724  001B' 0081'              	movwf	___fleq@ff1+1
  6725  001C' 3000               	movlw	0
  6726  001D' 0080'              	movwf	___fleq@ff1
  6727  001E'                    l497:
  6728  001E' 3000               	movlw	0
  6729  001F' 0504'              	andwf	___fleq@ff2,w
  6730  0020' 0083'              	movwf	??___fleq
  6731  0021' 3000               	movlw	0
  6732  0022' 0505'              	andwf	___fleq@ff2+1,w
  6733  0023' 0084'              	movwf	??___fleq+1
  6734  0024' 3080               	movlw	128
  6735  0025' 0506'              	andwf	___fleq@ff2+2,w
  6736  0026' 0085'              	movwf	??___fleq+2
  6737  0027' 307F               	movlw	127
  6738  0028' 0507'              	andwf	___fleq@ff2+3,w
  6739  0029' 0086'              	movwf	??___fleq+3
  6740  002A' 0806'              	movf	??___fleq+3,w
  6741  002B' 0405'              	iorwf	??___fleq+2,w
  6742  002C' 0404'              	iorwf	??___fleq+1,w
  6743  002D' 0403'              	iorwf	??___fleq,w
  6744  002E' 1D03               	skipz
  6745  002F' 2800'              	goto	u6821
  6746  0030' 2800'              	goto	u6820
  6747  0031'                    u6821:
  6748  0031' 2800'              	goto	l498
  6749  0032'                    u6820:
  6750  0032'                    l3952:
  6751  0032' 3000               	movlw	0
  6752  0033' 0087'              	movwf	___fleq@ff2+3
  6753  0034' 3000               	movlw	0
  6754  0035' 0086'              	movwf	___fleq@ff2+2
  6755  0036' 3000               	movlw	0
  6756  0037' 0085'              	movwf	___fleq@ff2+1
  6757  0038' 3000               	movlw	0
  6758  0039' 0084'              	movwf	___fleq@ff2
  6759  003A'                    l498:
  6760  003A' 0807'              	movf	___fleq@ff2+3,w
  6761  003B' 0603'              	xorwf	___fleq@ff1+3,w
  6762  003C' 1D03               	skipz
  6763  003D' 2800'              	goto	u6835
  6764  003E' 0806'              	movf	___fleq@ff2+2,w
  6765  003F' 0602'              	xorwf	___fleq@ff1+2,w
  6766  0040' 1D03               	skipz
  6767  0041' 2800'              	goto	u6835
  6768  0042' 0805'              	movf	___fleq@ff2+1,w
  6769  0043' 0601'              	xorwf	___fleq@ff1+1,w
  6770  0044' 1D03               	skipz
  6771  0045' 2800'              	goto	u6835
  6772  0046' 0804'              	movf	___fleq@ff2,w
  6773  0047' 0600'              	xorwf	___fleq@ff1,w
  6774  0048'                    u6835:
  6775  0048' 1903               	skipnz
  6776  0049' 2800'              	goto	u6831
  6777  004A' 2800'              	goto	u6830
  6778  004B'                    u6831:
  6779  004B' 2800'              	goto	l3956
  6780  004C'                    u6830:
  6781  004C'                    l3954:
  6782  004C' 1003               	clrc
  6783  004D' 2800'              	goto	l499
  6784  004E'                    l3956:
  6785  004E' 1403               	setc
  6786  004F'                    l499:
  6787  004F' 0008               	return
  6788  0050'                    __end_of___fleq:
  6789                           
  6790                           	psect	text20
  6791  0000'                    __ptext20:	
  6792 ;; *************** function _setup *****************
  6793 ;; Defined at:
  6794 ;;		line 135 in file "main_final_lab3.c"
  6795 ;; Parameters:    Size  Location     Type
  6796 ;;		None
  6797 ;; Auto vars:     Size  Location     Type
  6798 ;;		None
  6799 ;; Return value:  Size  Location     Type
  6800 ;;                  1    wreg      void 
  6801 ;; Registers used:
  6802 ;;		wreg, fsr0l, fsr0h, fsr1l, fsr1h, fsr1l, fsr1h, status,2, status,0, btemp+1, pclath, cstack
  6803 ;; Tracked objects:
  6804 ;;		On entry : 0/0
  6805 ;;		On exit  : 0/0
  6806 ;;		Unchanged: 0/0
  6807 ;; Data sizes:     COMMON   BANK0   BANK1   BANK3   BANK2
  6808 ;;      Params:         0       0       0       0       0
  6809 ;;      Locals:         0       0       0       0       0
  6810 ;;      Temps:          0       0       0       0       0
  6811 ;;      Totals:         0       0       0       0       0
  6812 ;;Total ram usage:        0 bytes
  6813 ;; Hardware stack levels used:    1
  6814 ;; Hardware stack levels required when called:    2
  6815 ;; This function calls:
  6816 ;;		_USART_INTERRUPT
  6817 ;;		_USART_Init
  6818 ;;		_USART_Init_BaudRate
  6819 ;;		_initOsc
  6820 ;; This function is called by:
  6821 ;;		_main
  6822 ;; This function uses a non-reentrant model
  6823 ;;
  6824                           
  6825                           
  6826                           ;psect for function _setup
  6827  0000'                    _setup:
  6828  0000'                    l3288:	
  6829                           ;incstack = 0
  6830                           ; Regs used in _setup: [allreg]
  6831                           
  6832                           
  6833                           ;main_final_lab3.c: 136:     initOsc(0b00000110);
  6834  0000' 3006               	movlw	6
  6835  0001' 0080'              	movwf	?_initOsc
  6836  0002' 3000               	movlw	0
  6837  0003' 0081'              	movwf	?_initOsc+1
  6838  0004' 120A' 118A' 2000' 120A' 118A' 	fcall	_initOsc
  6839  0009'                    l3290:
  6840                           
  6841                           ;main_final_lab3.c: 137:     ANSEL = 0b00000011;
  6842  0009' 3003               	movlw	3
  6843  000A' 1683               	bsf	3,5	;RP0=1, select bank3
  6844  000B' 1703               	bsf	3,6	;RP1=1, select bank3
  6845  000C' 0088               	movwf	8	;volatile
  6846  000D'                    l3292:
  6847                           
  6848                           ;main_final_lab3.c: 138:     ANSELH = 0;
  6849  000D' 0189               	clrf	9	;volatile
  6850  000E'                    l3294:
  6851                           
  6852                           ;main_final_lab3.c: 139:     TRISA = 0b00000011;
  6853  000E' 3003               	movlw	3
  6854  000F' 1683               	bsf	3,5	;RP0=1, select bank1
  6855  0010' 1303               	bcf	3,6	;RP1=0, select bank1
  6856  0011' 0085               	movwf	5	;volatile
  6857  0012'                    l3296:
  6858                           
  6859                           ;main_final_lab3.c: 140:     TRISB = 0;
  6860  0012' 0186               	clrf	6	;volatile
  6861  0013'                    l3298:
  6862                           
  6863                           ;main_final_lab3.c: 141:     TRISCbits.TRISC6 = 0;
  6864  0013' 1307               	bcf	7,6	;volatile
  6865  0014'                    l3300:
  6866                           
  6867                           ;main_final_lab3.c: 142:     TRISCbits.TRISC7 = 1;
  6868  0014' 1787               	bsf	7,7	;volatile
  6869  0015'                    l3302:
  6870                           
  6871                           ;main_final_lab3.c: 143:     TRISD = 0;
  6872  0015' 0188               	clrf	8	;volatile
  6873  0016'                    l3304:
  6874                           
  6875                           ;main_final_lab3.c: 144:     TRISE = 0;
  6876  0016' 0189               	clrf	9	;volatile
  6877  0017'                    l3306:
  6878                           
  6879                           ;main_final_lab3.c: 145:     PORTA = 0;
  6880  0017' 1283               	bcf	3,5	;RP0=0, select bank0
  6881  0018' 1303               	bcf	3,6	;RP1=0, select bank0
  6882  0019' 0185               	clrf	5	;volatile
  6883  001A'                    l3308:
  6884                           
  6885                           ;main_final_lab3.c: 146:     PORTB = 0;
  6886  001A' 0186               	clrf	6	;volatile
  6887  001B'                    l3310:
  6888                           
  6889                           ;main_final_lab3.c: 147:     PORTC = 0;
  6890  001B' 0187               	clrf	7	;volatile
  6891  001C'                    l3312:
  6892                           
  6893                           ;main_final_lab3.c: 148:     PORTD = 0;
  6894  001C' 0188               	clrf	8	;volatile
  6895  001D'                    l3314:
  6896                           
  6897                           ;main_final_lab3.c: 149:     PORTE = 0;
  6898  001D' 0189               	clrf	9	;volatile
  6899  001E'                    l3316:
  6900                           
  6901                           ;main_final_lab3.c: 150:     USART_Init_BaudRate();
  6902  001E' 120A' 118A' 2000' 120A' 118A' 	fcall	_USART_Init_BaudRate
  6903  0023'                    l3318:
  6904                           
  6905                           ;main_final_lab3.c: 151:     USART_Init();
  6906  0023' 120A' 118A' 2000' 120A' 118A' 	fcall	_USART_Init
  6907  0028'                    l3320:
  6908                           
  6909                           ;main_final_lab3.c: 152:     USART_INTERRUPT();
  6910  0028' 120A' 118A' 2000' 120A' 118A' 	fcall	_USART_INTERRUPT
  6911  002D'                    l94:
  6912  002D' 0008               	return
  6913  002E'                    __end_of_setup:
  6914                           
  6915                           	psect	text21
  6916  0000'                    __ptext21:	
  6917 ;; *************** function _ADC_channel2 *****************
  6918 ;; Defined at:
  6919 ;;		line 171 in file "main_final_lab3.c"
  6920 ;; Parameters:    Size  Location     Type
  6921 ;;		None
  6922 ;; Auto vars:     Size  Location     Type
  6923 ;;		None
  6924 ;; Return value:  Size  Location     Type
  6925 ;;                  1    wreg      void 
  6926 ;; Registers used:
  6927 ;;		wreg, fsr0l, fsr0h, fsr1l, fsr1h, fsr1l, fsr1h, status,2, status,0, btemp+1, pclath, cstack
  6928 ;; Tracked objects:
  6929 ;;		On entry : 0/0
  6930 ;;		On exit  : 0/0
  6931 ;;		Unchanged: 0/0
  6932 ;; Data sizes:     COMMON   BANK0   BANK1   BANK3   BANK2
  6933 ;;      Params:         0       0       0       0       0
  6934 ;;      Locals:         0       0       0       0       0
  6935 ;;      Temps:          0       4       0       0       0
  6936 ;;      Totals:         0       4       0       0       0
  6937 ;;Total ram usage:        4 bytes
  6938 ;; Hardware stack levels used:    1
  6939 ;; Hardware stack levels required when called:    3
  6940 ;; This function calls:
  6941 ;;		_ADC_Config
  6942 ;;		___fldiv
  6943 ;;		___flmul
  6944 ;;		___xxtofl
  6945 ;; This function is called by:
  6946 ;;		_main
  6947 ;; This function uses a non-reentrant model
  6948 ;;
  6949                           
  6950                           
  6951                           ;psect for function _ADC_channel2
  6952  0000'                    _ADC_channel2:
  6953  0000'                    l4054:	
  6954                           ;incstack = 0
  6955                           ; Regs used in _ADC_channel2: [allreg]
  6956                           
  6957                           
  6958                           ;main_final_lab3.c: 172:     ADC_Config (1);
  6959  0000' 3001               	movlw	1
  6960  0001' 120A' 118A' 2000' 120A' 118A' 	fcall	_ADC_Config
  6961  0006'                    l4056:
  6962                           
  6963                           ;main_final_lab3.c: 176:     _delay((unsigned long)((40)*(8000000/4000000.0)));
  6964  0006' 3019               	movlw	25
  6965  0007' 1283               	bcf	3,5	;RP0=0, select bank0
  6966  0008' 1303               	bcf	3,6	;RP1=0, select bank0
  6967  0009' 00BE'              	movwf	??_ADC_channel2
  6968  000A'                    u7677:
  6969  000A' 0BBE'              	decfsz	??_ADC_channel2,f
  6970  000B' 2800'              	goto	u7677
  6971  000C' 2800'              	nop2
  6972  000D'                    l4058:
  6973                           
  6974                           ;main_final_lab3.c: 177:     ADCON0bits.GO = 1;
  6975  000D' 1283               	bcf	3,5	;RP0=0, select bank0
  6976  000E' 1303               	bcf	3,6	;RP1=0, select bank0
  6977  000F' 149F               	bsf	31,1	;volatile
  6978                           
  6979                           ;main_final_lab3.c: 178:     while (ADCON0bits.GO != 0) {
  6980  0010' 2800'              	goto	l4062
  6981  0011'                    l4060:
  6982                           
  6983                           ;main_final_lab3.c: 179:         S2_val = ((ADRESH * 5.0) / 255);
  6984  0011' 3043               	movlw	67
  6985  0012' 00A7'              	movwf	___fldiv@a+3
  6986  0013' 307F               	movlw	127
  6987  0014' 00A6'              	movwf	___fldiv@a+2
  6988  0015' 3000               	movlw	0
  6989  0016' 00A5'              	movwf	___fldiv@a+1
  6990  0017' 3000               	movlw	0
  6991  0018' 00A4'              	movwf	___fldiv@a
  6992  0019' 3040               	movlw	64
  6993  001A' 008D'              	movwf	___flmul@b+3
  6994  001B' 30A0               	movlw	160
  6995  001C' 008C'              	movwf	___flmul@b+2
  6996  001D' 3000               	movlw	0
  6997  001E' 008B'              	movwf	___flmul@b+1
  6998  001F' 3000               	movlw	0
  6999  0020' 008A'              	movwf	___flmul@b
  7000  0021' 081E               	movf	30,w	;volatile
  7001  0022' 00BE'              	movwf	??_ADC_channel2
  7002  0023' 01BF'              	clrf	??_ADC_channel2+1
  7003  0024' 01C0'              	clrf	??_ADC_channel2+2
  7004  0025' 01C1'              	clrf	??_ADC_channel2+3
  7005  0026' 0841'              	movf	??_ADC_channel2+3,w
  7006  0027' 0086'              	movwf	___xxtofl@val+3
  7007  0028' 0840'              	movf	??_ADC_channel2+2,w
  7008  0029' 0085'              	movwf	___xxtofl@val+2
  7009  002A' 083F'              	movf	??_ADC_channel2+1,w
  7010  002B' 0084'              	movwf	___xxtofl@val+1
  7011  002C' 083E'              	movf	??_ADC_channel2,w
  7012  002D' 0083'              	movwf	___xxtofl@val
  7013  002E' 3001               	movlw	1
  7014  002F' 120A' 118A' 2000' 120A' 118A' 	fcall	___xxtofl
  7015  0034' 0806'              	movf	?___xxtofl+3,w
  7016  0035' 1283               	bcf	3,5	;RP0=0, select bank0
  7017  0036' 1303               	bcf	3,6	;RP1=0, select bank0
  7018  0037' 0091'              	movwf	___flmul@a+3
  7019  0038' 0805'              	movf	?___xxtofl+2,w
  7020  0039' 0090'              	movwf	___flmul@a+2
  7021  003A' 0804'              	movf	?___xxtofl+1,w
  7022  003B' 008F'              	movwf	___flmul@a+1
  7023  003C' 0803'              	movf	?___xxtofl,w
  7024  003D' 008E'              	movwf	___flmul@a
  7025  003E' 120A' 118A' 2000' 120A' 118A' 	fcall	___flmul
  7026  0043' 1283               	bcf	3,5	;RP0=0, select bank0
  7027  0044' 1303               	bcf	3,6	;RP1=0, select bank0
  7028  0045' 080D'              	movf	?___flmul+3,w
  7029  0046' 00AB'              	movwf	___fldiv@b+3
  7030  0047' 080C'              	movf	?___flmul+2,w
  7031  0048' 00AA'              	movwf	___fldiv@b+2
  7032  0049' 080B'              	movf	?___flmul+1,w
  7033  004A' 00A9'              	movwf	___fldiv@b+1
  7034  004B' 080A'              	movf	?___flmul,w
  7035  004C' 00A8'              	movwf	___fldiv@b
  7036  004D' 120A' 118A' 2000' 120A' 118A' 	fcall	___fldiv
  7037  0052' 1283               	bcf	3,5	;RP0=0, select bank0
  7038  0053' 1303               	bcf	3,6	;RP1=0, select bank0
  7039  0054' 0827'              	movf	?___fldiv+3,w
  7040  0055' 1683               	bsf	3,5	;RP0=1, select bank1
  7041  0056' 1303               	bcf	3,6	;RP1=0, select bank1
  7042  0057' 0080'              	movwf	(_S2_val+3)^(0+128)
  7043  0058' 1283               	bcf	3,5	;RP0=0, select bank0
  7044  0059' 1303               	bcf	3,6	;RP1=0, select bank0
  7045  005A' 0826'              	movf	?___fldiv+2,w
  7046  005B' 1683               	bsf	3,5	;RP0=1, select bank1
  7047  005C' 1303               	bcf	3,6	;RP1=0, select bank1
  7048  005D' 0080'              	movwf	(_S2_val+2)^(0+128)
  7049  005E' 1283               	bcf	3,5	;RP0=0, select bank0
  7050  005F' 1303               	bcf	3,6	;RP1=0, select bank0
  7051  0060' 0825'              	movf	?___fldiv+1,w
  7052  0061' 1683               	bsf	3,5	;RP0=1, select bank1
  7053  0062' 1303               	bcf	3,6	;RP1=0, select bank1
  7054  0063' 0080'              	movwf	(_S2_val+1)^(0+128)
  7055  0064' 1283               	bcf	3,5	;RP0=0, select bank0
  7056  0065' 1303               	bcf	3,6	;RP1=0, select bank0
  7057  0066' 0824'              	movf	?___fldiv,w
  7058  0067' 1683               	bsf	3,5	;RP0=1, select bank1
  7059  0068' 1303               	bcf	3,6	;RP1=0, select bank1
  7060  0069' 0080'              	movwf	_S2_val^(0+128)
  7061  006A'                    l4062:
  7062                           
  7063                           ;main_final_lab3.c: 178:     while (ADCON0bits.GO != 0) {
  7064  006A' 1283               	bcf	3,5	;RP0=0, select bank0
  7065  006B' 189F               	btfsc	31,1	;volatile
  7066  006C' 2800'              	goto	u7121
  7067  006D' 2800'              	goto	u7120
  7068  006E'                    u7121:
  7069  006E' 2800'              	goto	l4060
  7070  006F'                    u7120:
  7071  006F'                    l106:
  7072  006F' 0008               	return
  7073  0070'                    __end_of_ADC_channel2:
  7074                           
  7075                           	psect	text22
  7076  0000'                    __ptext22:	
  7077 ;; *************** function _ADC_channel1 *****************
  7078 ;; Defined at:
  7079 ;;		line 157 in file "main_final_lab3.c"
  7080 ;; Parameters:    Size  Location     Type
  7081 ;;		None
  7082 ;; Auto vars:     Size  Location     Type
  7083 ;;		None
  7084 ;; Return value:  Size  Location     Type
  7085 ;;                  1    wreg      void 
  7086 ;; Registers used:
  7087 ;;		wreg, fsr0l, fsr0h, fsr1l, fsr1h, fsr1l, fsr1h, status,2, status,0, btemp+1, pclath, cstack
  7088 ;; Tracked objects:
  7089 ;;		On entry : 0/0
  7090 ;;		On exit  : 0/0
  7091 ;;		Unchanged: 0/0
  7092 ;; Data sizes:     COMMON   BANK0   BANK1   BANK3   BANK2
  7093 ;;      Params:         0       0       0       0       0
  7094 ;;      Locals:         0       0       0       0       0
  7095 ;;      Temps:          0       4       0       0       0
  7096 ;;      Totals:         0       4       0       0       0
  7097 ;;Total ram usage:        4 bytes
  7098 ;; Hardware stack levels used:    1
  7099 ;; Hardware stack levels required when called:    3
  7100 ;; This function calls:
  7101 ;;		_ADC_Config
  7102 ;;		___fldiv
  7103 ;;		___flmul
  7104 ;;		___xxtofl
  7105 ;; This function is called by:
  7106 ;;		_main
  7107 ;; This function uses a non-reentrant model
  7108 ;;
  7109                           
  7110                           
  7111                           ;psect for function _ADC_channel1
  7112  0000'                    _ADC_channel1:
  7113  0000'                    l4044:	
  7114                           ;incstack = 0
  7115                           ; Regs used in _ADC_channel1: [allreg]
  7116                           
  7117                           
  7118                           ;main_final_lab3.c: 158:     ADC_Config (0);
  7119  0000' 3000               	movlw	0
  7120  0001' 120A' 118A' 2000' 120A' 118A' 	fcall	_ADC_Config
  7121  0006'                    l4046:
  7122                           
  7123                           ;main_final_lab3.c: 163:     _delay((unsigned long)((40)*(8000000/4000000.0)));
  7124  0006' 3019               	movlw	25
  7125  0007' 1283               	bcf	3,5	;RP0=0, select bank0
  7126  0008' 1303               	bcf	3,6	;RP1=0, select bank0
  7127  0009' 00BE'              	movwf	??_ADC_channel1
  7128  000A'                    u7687:
  7129  000A' 0BBE'              	decfsz	??_ADC_channel1,f
  7130  000B' 2800'              	goto	u7687
  7131  000C' 2800'              	nop2
  7132  000D'                    l4048:
  7133                           
  7134                           ;main_final_lab3.c: 164:     ADCON0bits.GO = 1;
  7135  000D' 1283               	bcf	3,5	;RP0=0, select bank0
  7136  000E' 1303               	bcf	3,6	;RP1=0, select bank0
  7137  000F' 149F               	bsf	31,1	;volatile
  7138                           
  7139                           ;main_final_lab3.c: 165:     while (ADCON0bits.GO != 0) {
  7140  0010' 2800'              	goto	l4052
  7141  0011'                    l4050:
  7142                           
  7143                           ;main_final_lab3.c: 166:         S1_val = ((ADRESH * 5.0) / 255);
  7144  0011' 3043               	movlw	67
  7145  0012' 00A7'              	movwf	___fldiv@a+3
  7146  0013' 307F               	movlw	127
  7147  0014' 00A6'              	movwf	___fldiv@a+2
  7148  0015' 3000               	movlw	0
  7149  0016' 00A5'              	movwf	___fldiv@a+1
  7150  0017' 3000               	movlw	0
  7151  0018' 00A4'              	movwf	___fldiv@a
  7152  0019' 3040               	movlw	64
  7153  001A' 008D'              	movwf	___flmul@b+3
  7154  001B' 30A0               	movlw	160
  7155  001C' 008C'              	movwf	___flmul@b+2
  7156  001D' 3000               	movlw	0
  7157  001E' 008B'              	movwf	___flmul@b+1
  7158  001F' 3000               	movlw	0
  7159  0020' 008A'              	movwf	___flmul@b
  7160  0021' 081E               	movf	30,w	;volatile
  7161  0022' 00BE'              	movwf	??_ADC_channel1
  7162  0023' 01BF'              	clrf	??_ADC_channel1+1
  7163  0024' 01C0'              	clrf	??_ADC_channel1+2
  7164  0025' 01C1'              	clrf	??_ADC_channel1+3
  7165  0026' 0841'              	movf	??_ADC_channel1+3,w
  7166  0027' 0086'              	movwf	___xxtofl@val+3
  7167  0028' 0840'              	movf	??_ADC_channel1+2,w
  7168  0029' 0085'              	movwf	___xxtofl@val+2
  7169  002A' 083F'              	movf	??_ADC_channel1+1,w
  7170  002B' 0084'              	movwf	___xxtofl@val+1
  7171  002C' 083E'              	movf	??_ADC_channel1,w
  7172  002D' 0083'              	movwf	___xxtofl@val
  7173  002E' 3001               	movlw	1
  7174  002F' 120A' 118A' 2000' 120A' 118A' 	fcall	___xxtofl
  7175  0034' 0806'              	movf	?___xxtofl+3,w
  7176  0035' 1283               	bcf	3,5	;RP0=0, select bank0
  7177  0036' 1303               	bcf	3,6	;RP1=0, select bank0
  7178  0037' 0091'              	movwf	___flmul@a+3
  7179  0038' 0805'              	movf	?___xxtofl+2,w
  7180  0039' 0090'              	movwf	___flmul@a+2
  7181  003A' 0804'              	movf	?___xxtofl+1,w
  7182  003B' 008F'              	movwf	___flmul@a+1
  7183  003C' 0803'              	movf	?___xxtofl,w
  7184  003D' 008E'              	movwf	___flmul@a
  7185  003E' 120A' 118A' 2000' 120A' 118A' 	fcall	___flmul
  7186  0043' 1283               	bcf	3,5	;RP0=0, select bank0
  7187  0044' 1303               	bcf	3,6	;RP1=0, select bank0
  7188  0045' 080D'              	movf	?___flmul+3,w
  7189  0046' 00AB'              	movwf	___fldiv@b+3
  7190  0047' 080C'              	movf	?___flmul+2,w
  7191  0048' 00AA'              	movwf	___fldiv@b+2
  7192  0049' 080B'              	movf	?___flmul+1,w
  7193  004A' 00A9'              	movwf	___fldiv@b+1
  7194  004B' 080A'              	movf	?___flmul,w
  7195  004C' 00A8'              	movwf	___fldiv@b
  7196  004D' 120A' 118A' 2000' 120A' 118A' 	fcall	___fldiv
  7197  0052' 1283               	bcf	3,5	;RP0=0, select bank0
  7198  0053' 1303               	bcf	3,6	;RP1=0, select bank0
  7199  0054' 0827'              	movf	?___fldiv+3,w
  7200  0055' 1683               	bsf	3,5	;RP0=1, select bank1
  7201  0056' 1303               	bcf	3,6	;RP1=0, select bank1
  7202  0057' 0080'              	movwf	(_S1_val+3)^(0+128)
  7203  0058' 1283               	bcf	3,5	;RP0=0, select bank0
  7204  0059' 1303               	bcf	3,6	;RP1=0, select bank0
  7205  005A' 0826'              	movf	?___fldiv+2,w
  7206  005B' 1683               	bsf	3,5	;RP0=1, select bank1
  7207  005C' 1303               	bcf	3,6	;RP1=0, select bank1
  7208  005D' 0080'              	movwf	(_S1_val+2)^(0+128)
  7209  005E' 1283               	bcf	3,5	;RP0=0, select bank0
  7210  005F' 1303               	bcf	3,6	;RP1=0, select bank0
  7211  0060' 0825'              	movf	?___fldiv+1,w
  7212  0061' 1683               	bsf	3,5	;RP0=1, select bank1
  7213  0062' 1303               	bcf	3,6	;RP1=0, select bank1
  7214  0063' 0080'              	movwf	(_S1_val+1)^(0+128)
  7215  0064' 1283               	bcf	3,5	;RP0=0, select bank0
  7216  0065' 1303               	bcf	3,6	;RP1=0, select bank0
  7217  0066' 0824'              	movf	?___fldiv,w
  7218  0067' 1683               	bsf	3,5	;RP0=1, select bank1
  7219  0068' 1303               	bcf	3,6	;RP1=0, select bank1
  7220  0069' 0080'              	movwf	_S1_val^(0+128)
  7221  006A'                    l4052:
  7222                           
  7223                           ;main_final_lab3.c: 165:     while (ADCON0bits.GO != 0) {
  7224  006A' 1283               	bcf	3,5	;RP0=0, select bank0
  7225  006B' 189F               	btfsc	31,1	;volatile
  7226  006C' 2800'              	goto	u7111
  7227  006D' 2800'              	goto	u7110
  7228  006E'                    u7111:
  7229  006E' 2800'              	goto	l4050
  7230  006F'                    u7110:
  7231  006F'                    l100:
  7232  006F' 0008               	return
  7233  0070'                    __end_of_ADC_channel1:
  7234                           
  7235                           	psect	text23
  7236  0000'                    __ptext23:	
  7237 ;; *************** function ___xxtofl *****************
  7238 ;; Defined at:
  7239 ;;		line 10 in file "C:\Program Files\Microchip\xc8\v2.31\pic\sources\c90\common\xxtofl.c"
  7240 ;; Parameters:    Size  Location     Type
  7241 ;;  sign            1    wreg     unsigned char 
  7242 ;;  val             4    3[COMMON] long 
  7243 ;; Auto vars:     Size  Location     Type
  7244 ;;  sign            1    4[BANK0 ] unsigned char 
  7245 ;;  arg             4    6[BANK0 ] unsigned long 
  7246 ;;  exp             1    5[BANK0 ] unsigned char 
  7247 ;; Return value:  Size  Location     Type
  7248 ;;                  4    3[COMMON] unsigned char 
  7249 ;; Registers used:
  7250 ;;		wreg, status,2, status,0
  7251 ;; Tracked objects:
  7252 ;;		On entry : 0/0
  7253 ;;		On exit  : 0/0
  7254 ;;		Unchanged: 0/0
  7255 ;; Data sizes:     COMMON   BANK0   BANK1   BANK3   BANK2
  7256 ;;      Params:         4       0       0       0       0
  7257 ;;      Locals:         0       6       0       0       0
  7258 ;;      Temps:          0       4       0       0       0
  7259 ;;      Totals:         4      10       0       0       0
  7260 ;;Total ram usage:       14 bytes
  7261 ;; Hardware stack levels used:    1
  7262 ;; Hardware stack levels required when called:    1
  7263 ;; This function calls:
  7264 ;;		Nothing
  7265 ;; This function is called by:
  7266 ;;		_ADC_channel1
  7267 ;;		_ADC_channel2
  7268 ;;		_sprintf
  7269 ;; This function uses a non-reentrant model
  7270 ;;
  7271                           
  7272                           
  7273                           ;psect for function ___xxtofl
  7274  0000'                    ___xxtofl:
  7275                           
  7276                           ;incstack = 0
  7277                           ; Regs used in ___xxtofl: [wreg+status,2+status,0]
  7278                           ;___xxtofl@sign stored from wreg
  7279  0000' 1283               	bcf	3,5	;RP0=0, select bank0
  7280  0001' 1303               	bcf	3,6	;RP1=0, select bank0
  7281  0002' 0084'              	movwf	___xxtofl@sign
  7282  0003'                    l4000:
  7283  0003' 0804'              	movf	___xxtofl@sign,w
  7284  0004' 1903               	btfsc	3,2
  7285  0005' 2800'              	goto	u6971
  7286  0006' 2800'              	goto	u6970
  7287  0007'                    u6971:
  7288  0007' 2800'              	goto	l4006
  7289  0008'                    u6970:
  7290  0008'                    l4002:
  7291  0008' 1F86'              	btfss	___xxtofl@val+3,7
  7292  0009' 2800'              	goto	u6981
  7293  000A' 2800'              	goto	u6980
  7294  000B'                    u6981:
  7295  000B' 2800'              	goto	l4006
  7296  000C'                    u6980:
  7297  000C'                    l4004:
  7298  000C' 0903'              	comf	___xxtofl@val,w
  7299  000D' 0086'              	movwf	___xxtofl@arg
  7300  000E' 0904'              	comf	___xxtofl@val+1,w
  7301  000F' 0087'              	movwf	___xxtofl@arg+1
  7302  0010' 0905'              	comf	___xxtofl@val+2,w
  7303  0011' 0088'              	movwf	___xxtofl@arg+2
  7304  0012' 0906'              	comf	___xxtofl@val+3,w
  7305  0013' 0089'              	movwf	___xxtofl@arg+3
  7306  0014' 0A86'              	incf	___xxtofl@arg,f
  7307  0015' 1903               	skipnz
  7308  0016' 0A87'              	incf	___xxtofl@arg+1,f
  7309  0017' 1903               	skipnz
  7310  0018' 0A88'              	incf	___xxtofl@arg+2,f
  7311  0019' 1903               	skipnz
  7312  001A' 0A89'              	incf	___xxtofl@arg+3,f
  7313  001B' 2800'              	goto	l778
  7314  001C'                    l4006:
  7315  001C' 0806'              	movf	___xxtofl@val+3,w
  7316  001D' 0089'              	movwf	___xxtofl@arg+3
  7317  001E' 0805'              	movf	___xxtofl@val+2,w
  7318  001F' 0088'              	movwf	___xxtofl@arg+2
  7319  0020' 0804'              	movf	___xxtofl@val+1,w
  7320  0021' 0087'              	movwf	___xxtofl@arg+1
  7321  0022' 0803'              	movf	___xxtofl@val,w
  7322  0023' 0086'              	movwf	___xxtofl@arg
  7323  0024'                    l778:
  7324  0024' 0806'              	movf	___xxtofl@val+3,w
  7325  0025' 0405'              	iorwf	___xxtofl@val+2,w
  7326  0026' 0404'              	iorwf	___xxtofl@val+1,w
  7327  0027' 0403'              	iorwf	___xxtofl@val,w
  7328  0028' 1D03               	skipz
  7329  0029' 2800'              	goto	u6991
  7330  002A' 2800'              	goto	u6990
  7331  002B'                    u6991:
  7332  002B' 2800'              	goto	l4012
  7333  002C'                    u6990:
  7334  002C'                    l4008:
  7335  002C' 3000               	movlw	0
  7336  002D' 0086'              	movwf	?___xxtofl+3
  7337  002E' 3000               	movlw	0
  7338  002F' 0085'              	movwf	?___xxtofl+2
  7339  0030' 3000               	movlw	0
  7340  0031' 0084'              	movwf	?___xxtofl+1
  7341  0032' 3000               	movlw	0
  7342  0033' 0083'              	movwf	?___xxtofl
  7343  0034' 2800'              	goto	l780
  7344  0035'                    l4012:
  7345  0035' 3096               	movlw	150
  7346  0036' 0080'              	movwf	??___xxtofl
  7347  0037' 0800'              	movf	??___xxtofl,w
  7348  0038' 0085'              	movwf	___xxtofl@exp
  7349  0039' 2800'              	goto	l4016
  7350  003A'                    l4014:
  7351  003A' 3001               	movlw	1
  7352  003B' 0080'              	movwf	??___xxtofl
  7353  003C' 0800'              	movf	??___xxtofl,w
  7354  003D' 0785'              	addwf	___xxtofl@exp,f
  7355  003E' 3001               	movlw	1
  7356  003F'                    u7005:
  7357  003F' 1003               	clrc
  7358  0040' 0C89'              	rrf	___xxtofl@arg+3,f
  7359  0041' 0C88'              	rrf	___xxtofl@arg+2,f
  7360  0042' 0C87'              	rrf	___xxtofl@arg+1,f
  7361  0043' 0C86'              	rrf	___xxtofl@arg,f
  7362  0044' 3EFF               	addlw	-1
  7363  0045' 1D03               	skipz
  7364  0046' 2800'              	goto	u7005
  7365  0047'                    l4016:
  7366  0047' 30FE               	movlw	254
  7367  0048' 0509'              	andwf	___xxtofl@arg+3,w
  7368  0049' 1D03               	btfss	3,2
  7369  004A' 2800'              	goto	u7011
  7370  004B' 2800'              	goto	u7010
  7371  004C'                    u7011:
  7372  004C' 2800'              	goto	l4014
  7373  004D'                    u7010:
  7374  004D' 2800'              	goto	l784
  7375  004E'                    l4018:
  7376  004E' 3001               	movlw	1
  7377  004F' 0080'              	movwf	??___xxtofl
  7378  0050' 0800'              	movf	??___xxtofl,w
  7379  0051' 0785'              	addwf	___xxtofl@exp,f
  7380  0052'                    l4020:
  7381  0052' 3001               	movlw	1
  7382  0053' 0786'              	addwf	___xxtofl@arg,f
  7383  0054' 3000               	movlw	0
  7384  0055' 1803               	skipnc
  7385  0056' 3001               	movlw	1
  7386  0057' 0787'              	addwf	___xxtofl@arg+1,f
  7387  0058' 3000               	movlw	0
  7388  0059' 1803               	skipnc
  7389  005A' 3001               	movlw	1
  7390  005B' 0788'              	addwf	___xxtofl@arg+2,f
  7391  005C' 3000               	movlw	0
  7392  005D' 1803               	skipnc
  7393  005E' 3001               	movlw	1
  7394  005F' 0789'              	addwf	___xxtofl@arg+3,f
  7395  0060'                    l4022:
  7396  0060' 3001               	movlw	1
  7397  0061'                    u7025:
  7398  0061' 1003               	clrc
  7399  0062' 0C89'              	rrf	___xxtofl@arg+3,f
  7400  0063' 0C88'              	rrf	___xxtofl@arg+2,f
  7401  0064' 0C87'              	rrf	___xxtofl@arg+1,f
  7402  0065' 0C86'              	rrf	___xxtofl@arg,f
  7403  0066' 3EFF               	addlw	-1
  7404  0067' 1D03               	skipz
  7405  0068' 2800'              	goto	u7025
  7406  0069'                    l784:
  7407  0069' 30FF               	movlw	255
  7408  006A' 0509'              	andwf	___xxtofl@arg+3,w
  7409  006B' 1D03               	btfss	3,2
  7410  006C' 2800'              	goto	u7031
  7411  006D' 2800'              	goto	u7030
  7412  006E'                    u7031:
  7413  006E' 2800'              	goto	l4018
  7414  006F'                    u7030:
  7415  006F' 2800'              	goto	l4026
  7416  0070'                    l4024:
  7417  0070' 3001               	movlw	1
  7418  0071' 0285'              	subwf	___xxtofl@exp,f
  7419  0072' 3001               	movlw	1
  7420  0073' 0080'              	movwf	??___xxtofl
  7421  0074'                    u7045:
  7422  0074' 1003               	clrc
  7423  0075' 0D86'              	rlf	___xxtofl@arg,f
  7424  0076' 0D87'              	rlf	___xxtofl@arg+1,f
  7425  0077' 0D88'              	rlf	___xxtofl@arg+2,f
  7426  0078' 0D89'              	rlf	___xxtofl@arg+3,f
  7427  0079' 0B80'              	decfsz	??___xxtofl,f
  7428  007A' 2800'              	goto	u7045
  7429  007B'                    l4026:
  7430  007B' 1B88'              	btfsc	___xxtofl@arg+2,7
  7431  007C' 2800'              	goto	u7051
  7432  007D' 2800'              	goto	u7050
  7433  007E'                    u7051:
  7434  007E' 2800'              	goto	l791
  7435  007F'                    u7050:
  7436  007F'                    l4028:
  7437  007F' 3002               	movlw	2
  7438  0080' 0205'              	subwf	___xxtofl@exp,w
  7439  0081' 1803               	skipnc
  7440  0082' 2800'              	goto	u7061
  7441  0083' 2800'              	goto	u7060
  7442  0084'                    u7061:
  7443  0084' 2800'              	goto	l4024
  7444  0085'                    u7060:
  7445  0085'                    l791:
  7446  0085' 1805'              	btfsc	___xxtofl@exp,0
  7447  0086' 2800'              	goto	u7071
  7448  0087' 2800'              	goto	u7070
  7449  0088'                    u7071:
  7450  0088' 2800'              	goto	l792
  7451  0089'                    u7070:
  7452  0089'                    l4030:
  7453  0089' 30FF               	movlw	255
  7454  008A' 0586'              	andwf	___xxtofl@arg,f
  7455  008B' 30FF               	movlw	255
  7456  008C' 0587'              	andwf	___xxtofl@arg+1,f
  7457  008D' 307F               	movlw	127
  7458  008E' 0588'              	andwf	___xxtofl@arg+2,f
  7459  008F' 30FF               	movlw	255
  7460  0090' 0589'              	andwf	___xxtofl@arg+3,f
  7461  0091'                    l792:
  7462  0091' 1003               	clrc
  7463  0092' 0C85'              	rrf	___xxtofl@exp,f
  7464  0093'                    l4032:
  7465  0093' 0805'              	movf	___xxtofl@exp,w
  7466  0094' 0080'              	movwf	??___xxtofl
  7467  0095' 0181'              	clrf	??___xxtofl+1
  7468  0096' 0182'              	clrf	??___xxtofl+2
  7469  0097' 0183'              	clrf	??___xxtofl+3
  7470  0098' 3018               	movlw	24
  7471  0099'                    u7085:
  7472  0099' 1003               	clrc
  7473  009A' 0D80'              	rlf	??___xxtofl,f
  7474  009B' 0D81'              	rlf	??___xxtofl+1,f
  7475  009C' 0D82'              	rlf	??___xxtofl+2,f
  7476  009D' 0D83'              	rlf	??___xxtofl+3,f
  7477  009E'                    u7080:
  7478  009E' 3EFF               	addlw	-1
  7479  009F' 1D03               	skipz
  7480  00A0' 2800'              	goto	u7085
  7481  00A1' 0800'              	movf	??___xxtofl,w
  7482  00A2' 0486'              	iorwf	___xxtofl@arg,f
  7483  00A3' 0801'              	movf	??___xxtofl+1,w
  7484  00A4' 0487'              	iorwf	___xxtofl@arg+1,f
  7485  00A5' 0802'              	movf	??___xxtofl+2,w
  7486  00A6' 0488'              	iorwf	___xxtofl@arg+2,f
  7487  00A7' 0803'              	movf	??___xxtofl+3,w
  7488  00A8' 0489'              	iorwf	___xxtofl@arg+3,f
  7489  00A9'                    l4034:
  7490  00A9' 0804'              	movf	___xxtofl@sign,w
  7491  00AA' 1903               	btfsc	3,2
  7492  00AB' 2800'              	goto	u7091
  7493  00AC' 2800'              	goto	u7090
  7494  00AD'                    u7091:
  7495  00AD' 2800'              	goto	l4040
  7496  00AE'                    u7090:
  7497  00AE'                    l4036:
  7498  00AE' 1F86'              	btfss	___xxtofl@val+3,7
  7499  00AF' 2800'              	goto	u7101
  7500  00B0' 2800'              	goto	u7100
  7501  00B1'                    u7101:
  7502  00B1' 2800'              	goto	l4040
  7503  00B2'                    u7100:
  7504  00B2'                    l4038:
  7505  00B2' 1789'              	bsf	___xxtofl@arg+3,7
  7506  00B3'                    l4040:
  7507  00B3' 0809'              	movf	___xxtofl@arg+3,w
  7508  00B4' 0086'              	movwf	?___xxtofl+3
  7509  00B5' 0808'              	movf	___xxtofl@arg+2,w
  7510  00B6' 0085'              	movwf	?___xxtofl+2
  7511  00B7' 0807'              	movf	___xxtofl@arg+1,w
  7512  00B8' 0084'              	movwf	?___xxtofl+1
  7513  00B9' 0806'              	movf	___xxtofl@arg,w
  7514  00BA' 0083'              	movwf	?___xxtofl
  7515  00BB'                    l780:
  7516  00BB' 0008               	return
  7517  00BC'                    __end_of___xxtofl:
  7518                           
  7519                           	psect	text24
  7520  0000'                    __ptext24:	
  7521 ;; *************** function ___flmul *****************
  7522 ;; Defined at:
  7523 ;;		line 8 in file "C:\Program Files\Microchip\xc8\v2.31\pic\sources\c90\common\sprcmul.c"
  7524 ;; Parameters:    Size  Location     Type
  7525 ;;  b               4   10[BANK0 ] unsigned char 
  7526 ;;  a               4   14[BANK0 ] unsigned char 
  7527 ;; Auto vars:     Size  Location     Type
  7528 ;;  prod            4   30[BANK0 ] struct .
  7529 ;;  grs             4   24[BANK0 ] unsigned long 
  7530 ;;  temp            2   34[BANK0 ] struct .
  7531 ;;  bexp            1   29[BANK0 ] unsigned char 
  7532 ;;  aexp            1   28[BANK0 ] unsigned char 
  7533 ;;  sign            1   23[BANK0 ] unsigned char 
  7534 ;; Return value:  Size  Location     Type
  7535 ;;                  4   10[BANK0 ] unsigned char 
  7536 ;; Registers used:
  7537 ;;		wreg, status,2, status,0, btemp+1, pclath, cstack
  7538 ;; Tracked objects:
  7539 ;;		On entry : 0/0
  7540 ;;		On exit  : 0/0
  7541 ;;		Unchanged: 0/0
  7542 ;; Data sizes:     COMMON   BANK0   BANK1   BANK3   BANK2
  7543 ;;      Params:         0       8       0       0       0
  7544 ;;      Locals:         0      13       0       0       0
  7545 ;;      Temps:          0       5       0       0       0
  7546 ;;      Totals:         0      26       0       0       0
  7547 ;;Total ram usage:       26 bytes
  7548 ;; Hardware stack levels used:    1
  7549 ;; Hardware stack levels required when called:    2
  7550 ;; This function calls:
  7551 ;;		__Umul8_16
  7552 ;; This function is called by:
  7553 ;;		_ADC_channel1
  7554 ;;		_ADC_channel2
  7555 ;;		_fround
  7556 ;;		_scale
  7557 ;;		_sprintf
  7558 ;; This function uses a non-reentrant model
  7559 ;;
  7560                           
  7561                           
  7562                           ;psect for function ___flmul
  7563  0000'                    ___flmul:
  7564  0000'                    l2648:	
  7565                           ;incstack = 0
  7566                           ; Regs used in ___flmul: [wreg+status,2+status,0+btemp+1+pclath+cstack]
  7567                           
  7568  0000' 1283               	bcf	3,5	;RP0=0, select bank0
  7569  0001' 1303               	bcf	3,6	;RP1=0, select bank0
  7570  0002' 080D'              	movf	___flmul@b+3,w
  7571  0003' 3980               	andlw	128
  7572  0004' 0092'              	movwf	??___flmul
  7573  0005' 0812'              	movf	??___flmul,w
  7574  0006' 0097'              	movwf	___flmul@sign
  7575  0007'                    l2650:
  7576  0007' 080D'              	movf	___flmul@b+3,w
  7577  0008' 0092'              	movwf	??___flmul
  7578  0009' 0712'              	addwf	??___flmul,w
  7579  000A' 0093'              	movwf	??___flmul+1
  7580  000B' 0813'              	movf	??___flmul+1,w
  7581  000C' 009D'              	movwf	___flmul@bexp
  7582  000D'                    l2652:
  7583  000D' 1F8C'              	btfss	___flmul@b+2,7
  7584  000E' 2800'              	goto	u3921
  7585  000F' 2800'              	goto	u3920
  7586  0010'                    u3921:
  7587  0010' 2800'              	goto	l2656
  7588  0011'                    u3920:
  7589  0011'                    l2654:
  7590  0011' 141D'              	bsf	___flmul@bexp,0
  7591  0012'                    l2656:
  7592  0012' 081D'              	movf	___flmul@bexp,w
  7593  0013' 1903               	btfsc	3,2
  7594  0014' 2800'              	goto	u3931
  7595  0015' 2800'              	goto	u3930
  7596  0016'                    u3931:
  7597  0016' 2800'              	goto	l2664
  7598  0017'                    u3930:
  7599  0017'                    l2658:
  7600  0017' 0A1D'              	incf	___flmul@bexp,w
  7601  0018' 1D03               	btfss	3,2
  7602  0019' 2800'              	goto	u3941
  7603  001A' 2800'              	goto	u3940
  7604  001B'                    u3941:
  7605  001B' 2800'              	goto	l2662
  7606  001C'                    u3940:
  7607  001C'                    l2660:
  7608  001C' 3000               	movlw	0
  7609  001D' 008D'              	movwf	___flmul@b+3
  7610  001E' 3000               	movlw	0
  7611  001F' 008C'              	movwf	___flmul@b+2
  7612  0020' 3000               	movlw	0
  7613  0021' 008B'              	movwf	___flmul@b+1
  7614  0022' 3000               	movlw	0
  7615  0023' 008A'              	movwf	___flmul@b
  7616  0024'                    l2662:
  7617  0024' 178C'              	bsf	___flmul@b+2,7
  7618  0025' 2800'              	goto	l2666
  7619  0026'                    l2664:
  7620  0026' 3000               	movlw	0
  7621  0027' 008D'              	movwf	___flmul@b+3
  7622  0028' 3000               	movlw	0
  7623  0029' 008C'              	movwf	___flmul@b+2
  7624  002A' 3000               	movlw	0
  7625  002B' 008B'              	movwf	___flmul@b+1
  7626  002C' 3000               	movlw	0
  7627  002D' 008A'              	movwf	___flmul@b
  7628  002E'                    l2666:
  7629  002E' 0811'              	movf	___flmul@a+3,w
  7630  002F' 3980               	andlw	128
  7631  0030' 0092'              	movwf	??___flmul
  7632  0031' 0812'              	movf	??___flmul,w
  7633  0032' 0697'              	xorwf	___flmul@sign,f
  7634  0033'                    l2668:
  7635  0033' 0811'              	movf	___flmul@a+3,w
  7636  0034' 0092'              	movwf	??___flmul
  7637  0035' 0712'              	addwf	??___flmul,w
  7638  0036' 0093'              	movwf	??___flmul+1
  7639  0037' 0813'              	movf	??___flmul+1,w
  7640  0038' 009C'              	movwf	___flmul@aexp
  7641  0039'                    l2670:
  7642  0039' 1F90'              	btfss	___flmul@a+2,7
  7643  003A' 2800'              	goto	u3951
  7644  003B' 2800'              	goto	u3950
  7645  003C'                    u3951:
  7646  003C' 2800'              	goto	l2674
  7647  003D'                    u3950:
  7648  003D'                    l2672:
  7649  003D' 141C'              	bsf	___flmul@aexp,0
  7650  003E'                    l2674:
  7651  003E' 081C'              	movf	___flmul@aexp,w
  7652  003F' 1903               	btfsc	3,2
  7653  0040' 2800'              	goto	u3961
  7654  0041' 2800'              	goto	u3960
  7655  0042'                    u3961:
  7656  0042' 2800'              	goto	l2682
  7657  0043'                    u3960:
  7658  0043'                    l2676:
  7659  0043' 0A1C'              	incf	___flmul@aexp,w
  7660  0044' 1D03               	btfss	3,2
  7661  0045' 2800'              	goto	u3971
  7662  0046' 2800'              	goto	u3970
  7663  0047'                    u3971:
  7664  0047' 2800'              	goto	l2680
  7665  0048'                    u3970:
  7666  0048'                    l2678:
  7667  0048' 3000               	movlw	0
  7668  0049' 0091'              	movwf	___flmul@a+3
  7669  004A' 3000               	movlw	0
  7670  004B' 0090'              	movwf	___flmul@a+2
  7671  004C' 3000               	movlw	0
  7672  004D' 008F'              	movwf	___flmul@a+1
  7673  004E' 3000               	movlw	0
  7674  004F' 008E'              	movwf	___flmul@a
  7675  0050'                    l2680:
  7676  0050' 1790'              	bsf	___flmul@a+2,7
  7677  0051' 2800'              	goto	l2684
  7678  0052'                    l2682:
  7679  0052' 3000               	movlw	0
  7680  0053' 0091'              	movwf	___flmul@a+3
  7681  0054' 3000               	movlw	0
  7682  0055' 0090'              	movwf	___flmul@a+2
  7683  0056' 3000               	movlw	0
  7684  0057' 008F'              	movwf	___flmul@a+1
  7685  0058' 3000               	movlw	0
  7686  0059' 008E'              	movwf	___flmul@a
  7687  005A'                    l2684:
  7688  005A' 081C'              	movf	___flmul@aexp,w
  7689  005B' 1903               	btfsc	3,2
  7690  005C' 2800'              	goto	u3981
  7691  005D' 2800'              	goto	u3980
  7692  005E'                    u3981:
  7693  005E' 2800'              	goto	l2688
  7694  005F'                    u3980:
  7695  005F'                    l2686:
  7696  005F' 081D'              	movf	___flmul@bexp,w
  7697  0060' 1D03               	btfss	3,2
  7698  0061' 2800'              	goto	u3991
  7699  0062' 2800'              	goto	u3990
  7700  0063'                    u3991:
  7701  0063' 2800'              	goto	l2692
  7702  0064'                    u3990:
  7703  0064'                    l2688:
  7704  0064' 3000               	movlw	0
  7705  0065' 008D'              	movwf	?___flmul+3
  7706  0066' 3000               	movlw	0
  7707  0067' 008C'              	movwf	?___flmul+2
  7708  0068' 3000               	movlw	0
  7709  0069' 008B'              	movwf	?___flmul+1
  7710  006A' 3000               	movlw	0
  7711  006B' 008A'              	movwf	?___flmul
  7712  006C' 2800'              	goto	l734
  7713  006D'                    l2692:
  7714  006D' 080A'              	movf	___flmul@b,w
  7715  006E' 0092'              	movwf	??___flmul
  7716  006F' 0812'              	movf	??___flmul,w
  7717  0070' 0083'              	movwf	__Umul8_16@multiplicand
  7718  0071' 0810'              	movf	___flmul@a+2,w
  7719  0072' 120A' 118A' 2000' 120A' 118A' 	fcall	__Umul8_16
  7720  0077' 0804'              	movf	?__Umul8_16+1,w
  7721  0078' 1283               	bcf	3,5	;RP0=0, select bank0
  7722  0079' 1303               	bcf	3,6	;RP1=0, select bank0
  7723  007A' 00A3'              	movwf	___flmul@temp+1
  7724  007B' 0803'              	movf	?__Umul8_16,w
  7725  007C' 00A2'              	movwf	___flmul@temp
  7726  007D'                    l2694:
  7727  007D' 0822'              	movf	___flmul@temp,w
  7728  007E' 0092'              	movwf	??___flmul
  7729  007F' 0193'              	clrf	??___flmul+1
  7730  0080' 0194'              	clrf	??___flmul+2
  7731  0081' 0195'              	clrf	??___flmul+3
  7732  0082' 0815'              	movf	??___flmul+3,w
  7733  0083' 009B'              	movwf	___flmul@grs+3
  7734  0084' 0814'              	movf	??___flmul+2,w
  7735  0085' 009A'              	movwf	___flmul@grs+2
  7736  0086' 0813'              	movf	??___flmul+1,w
  7737  0087' 0099'              	movwf	___flmul@grs+1
  7738  0088' 0812'              	movf	??___flmul,w
  7739  0089' 0098'              	movwf	___flmul@grs
  7740  008A'                    l2696:
  7741  008A' 0823'              	movf	___flmul@temp+1,w
  7742  008B' 0092'              	movwf	??___flmul
  7743  008C' 0193'              	clrf	??___flmul+1
  7744  008D' 0194'              	clrf	??___flmul+2
  7745  008E' 0195'              	clrf	??___flmul+3
  7746  008F' 0815'              	movf	??___flmul+3,w
  7747  0090' 00A1'              	movwf	___flmul@prod+3
  7748  0091' 0814'              	movf	??___flmul+2,w
  7749  0092' 00A0'              	movwf	___flmul@prod+2
  7750  0093' 0813'              	movf	??___flmul+1,w
  7751  0094' 009F'              	movwf	___flmul@prod+1
  7752  0095' 0812'              	movf	??___flmul,w
  7753  0096' 009E'              	movwf	___flmul@prod
  7754  0097' 080B'              	movf	___flmul@b+1,w
  7755  0098' 0092'              	movwf	??___flmul
  7756  0099' 0812'              	movf	??___flmul,w
  7757  009A' 0083'              	movwf	__Umul8_16@multiplicand
  7758  009B' 080F'              	movf	___flmul@a+1,w
  7759  009C' 120A' 118A' 2000' 120A' 118A' 	fcall	__Umul8_16
  7760  00A1' 0804'              	movf	?__Umul8_16+1,w
  7761  00A2' 1283               	bcf	3,5	;RP0=0, select bank0
  7762  00A3' 1303               	bcf	3,6	;RP1=0, select bank0
  7763  00A4' 00A3'              	movwf	___flmul@temp+1
  7764  00A5' 0803'              	movf	?__Umul8_16,w
  7765  00A6' 00A2'              	movwf	___flmul@temp
  7766  00A7'                    l2698:
  7767  00A7' 0822'              	movf	___flmul@temp,w
  7768  00A8' 0092'              	movwf	??___flmul
  7769  00A9' 0193'              	clrf	??___flmul+1
  7770  00AA' 0194'              	clrf	??___flmul+2
  7771  00AB' 0195'              	clrf	??___flmul+3
  7772  00AC' 0812'              	movf	??___flmul,w
  7773  00AD' 0798'              	addwf	___flmul@grs,f
  7774  00AE' 0813'              	movf	??___flmul+1,w
  7775  00AF' 1103               	clrz
  7776  00B0' 1803               	skipnc
  7777  00B1' 3E01               	addlw	1
  7778  00B2' 1903               	skipnz
  7779  00B3' 2800'              	goto	u4001
  7780  00B4' 0799'              	addwf	___flmul@grs+1,f
  7781  00B5'                    u4001:
  7782  00B5' 0814'              	movf	??___flmul+2,w
  7783  00B6' 1103               	clrz
  7784  00B7' 1803               	skipnc
  7785  00B8' 3E01               	addlw	1
  7786  00B9' 1903               	skipnz
  7787  00BA' 2800'              	goto	u4002
  7788  00BB' 079A'              	addwf	___flmul@grs+2,f
  7789  00BC'                    u4002:
  7790  00BC' 0815'              	movf	??___flmul+3,w
  7791  00BD' 1103               	clrz
  7792  00BE' 1803               	skipnc
  7793  00BF' 3E01               	addlw	1
  7794  00C0' 1903               	skipnz
  7795  00C1' 2800'              	goto	u4003
  7796  00C2' 079B'              	addwf	___flmul@grs+3,f
  7797  00C3'                    u4003:
  7798  00C3'                    l2700:
  7799  00C3' 0823'              	movf	___flmul@temp+1,w
  7800  00C4' 0092'              	movwf	??___flmul
  7801  00C5' 0193'              	clrf	??___flmul+1
  7802  00C6' 0194'              	clrf	??___flmul+2
  7803  00C7' 0195'              	clrf	??___flmul+3
  7804  00C8' 0812'              	movf	??___flmul,w
  7805  00C9' 079E'              	addwf	___flmul@prod,f
  7806  00CA' 0813'              	movf	??___flmul+1,w
  7807  00CB' 1103               	clrz
  7808  00CC' 1803               	skipnc
  7809  00CD' 3E01               	addlw	1
  7810  00CE' 1903               	skipnz
  7811  00CF' 2800'              	goto	u4011
  7812  00D0' 079F'              	addwf	___flmul@prod+1,f
  7813  00D1'                    u4011:
  7814  00D1' 0814'              	movf	??___flmul+2,w
  7815  00D2' 1103               	clrz
  7816  00D3' 1803               	skipnc
  7817  00D4' 3E01               	addlw	1
  7818  00D5' 1903               	skipnz
  7819  00D6' 2800'              	goto	u4012
  7820  00D7' 07A0'              	addwf	___flmul@prod+2,f
  7821  00D8'                    u4012:
  7822  00D8' 0815'              	movf	??___flmul+3,w
  7823  00D9' 1103               	clrz
  7824  00DA' 1803               	skipnc
  7825  00DB' 3E01               	addlw	1
  7826  00DC' 1903               	skipnz
  7827  00DD' 2800'              	goto	u4013
  7828  00DE' 07A1'              	addwf	___flmul@prod+3,f
  7829  00DF'                    u4013:
  7830  00DF' 080C'              	movf	___flmul@b+2,w
  7831  00E0' 0092'              	movwf	??___flmul
  7832  00E1' 0812'              	movf	??___flmul,w
  7833  00E2' 0083'              	movwf	__Umul8_16@multiplicand
  7834  00E3' 080E'              	movf	___flmul@a,w
  7835  00E4' 120A' 118A' 2000' 120A' 118A' 	fcall	__Umul8_16
  7836  00E9' 0804'              	movf	?__Umul8_16+1,w
  7837  00EA' 1283               	bcf	3,5	;RP0=0, select bank0
  7838  00EB' 1303               	bcf	3,6	;RP1=0, select bank0
  7839  00EC' 00A3'              	movwf	___flmul@temp+1
  7840  00ED' 0803'              	movf	?__Umul8_16,w
  7841  00EE' 00A2'              	movwf	___flmul@temp
  7842  00EF'                    l2702:
  7843  00EF' 0822'              	movf	___flmul@temp,w
  7844  00F0' 0092'              	movwf	??___flmul
  7845  00F1' 0193'              	clrf	??___flmul+1
  7846  00F2' 0194'              	clrf	??___flmul+2
  7847  00F3' 0195'              	clrf	??___flmul+3
  7848  00F4' 0812'              	movf	??___flmul,w
  7849  00F5' 0798'              	addwf	___flmul@grs,f
  7850  00F6' 0813'              	movf	??___flmul+1,w
  7851  00F7' 1103               	clrz
  7852  00F8' 1803               	skipnc
  7853  00F9' 3E01               	addlw	1
  7854  00FA' 1903               	skipnz
  7855  00FB' 2800'              	goto	u4021
  7856  00FC' 0799'              	addwf	___flmul@grs+1,f
  7857  00FD'                    u4021:
  7858  00FD' 0814'              	movf	??___flmul+2,w
  7859  00FE' 1103               	clrz
  7860  00FF' 1803               	skipnc
  7861  0100' 3E01               	addlw	1
  7862  0101' 1903               	skipnz
  7863  0102' 2800'              	goto	u4022
  7864  0103' 079A'              	addwf	___flmul@grs+2,f
  7865  0104'                    u4022:
  7866  0104' 0815'              	movf	??___flmul+3,w
  7867  0105' 1103               	clrz
  7868  0106' 1803               	skipnc
  7869  0107' 3E01               	addlw	1
  7870  0108' 1903               	skipnz
  7871  0109' 2800'              	goto	u4023
  7872  010A' 079B'              	addwf	___flmul@grs+3,f
  7873  010B'                    u4023:
  7874  010B'                    l2704:
  7875  010B' 0823'              	movf	___flmul@temp+1,w
  7876  010C' 0092'              	movwf	??___flmul
  7877  010D' 0193'              	clrf	??___flmul+1
  7878  010E' 0194'              	clrf	??___flmul+2
  7879  010F' 0195'              	clrf	??___flmul+3
  7880  0110' 0812'              	movf	??___flmul,w
  7881  0111' 079E'              	addwf	___flmul@prod,f
  7882  0112' 0813'              	movf	??___flmul+1,w
  7883  0113' 1103               	clrz
  7884  0114' 1803               	skipnc
  7885  0115' 3E01               	addlw	1
  7886  0116' 1903               	skipnz
  7887  0117' 2800'              	goto	u4031
  7888  0118' 079F'              	addwf	___flmul@prod+1,f
  7889  0119'                    u4031:
  7890  0119' 0814'              	movf	??___flmul+2,w
  7891  011A' 1103               	clrz
  7892  011B' 1803               	skipnc
  7893  011C' 3E01               	addlw	1
  7894  011D' 1903               	skipnz
  7895  011E' 2800'              	goto	u4032
  7896  011F' 07A0'              	addwf	___flmul@prod+2,f
  7897  0120'                    u4032:
  7898  0120' 0815'              	movf	??___flmul+3,w
  7899  0121' 1103               	clrz
  7900  0122' 1803               	skipnc
  7901  0123' 3E01               	addlw	1
  7902  0124' 1903               	skipnz
  7903  0125' 2800'              	goto	u4033
  7904  0126' 07A1'              	addwf	___flmul@prod+3,f
  7905  0127'                    u4033:
  7906  0127'                    l2706:
  7907  0127' 3008               	movlw	8
  7908  0128' 0092'              	movwf	??___flmul
  7909  0129'                    u4045:
  7910  0129' 1003               	clrc
  7911  012A' 0D98'              	rlf	___flmul@grs,f
  7912  012B' 0D99'              	rlf	___flmul@grs+1,f
  7913  012C' 0D9A'              	rlf	___flmul@grs+2,f
  7914  012D' 0D9B'              	rlf	___flmul@grs+3,f
  7915  012E' 0B92'              	decfsz	??___flmul,f
  7916  012F' 2800'              	goto	u4045
  7917  0130'                    l2708:
  7918  0130' 080B'              	movf	___flmul@b+1,w
  7919  0131' 0092'              	movwf	??___flmul
  7920  0132' 0812'              	movf	??___flmul,w
  7921  0133' 0083'              	movwf	__Umul8_16@multiplicand
  7922  0134' 080E'              	movf	___flmul@a,w
  7923  0135' 120A' 118A' 2000' 120A' 118A' 	fcall	__Umul8_16
  7924  013A' 0804'              	movf	?__Umul8_16+1,w
  7925  013B' 1283               	bcf	3,5	;RP0=0, select bank0
  7926  013C' 1303               	bcf	3,6	;RP1=0, select bank0
  7927  013D' 00A3'              	movwf	___flmul@temp+1
  7928  013E' 0803'              	movf	?__Umul8_16,w
  7929  013F' 00A2'              	movwf	___flmul@temp
  7930  0140'                    l2710:
  7931  0140' 0822'              	movf	___flmul@temp,w
  7932  0141' 0092'              	movwf	??___flmul
  7933  0142' 0823'              	movf	___flmul@temp+1,w
  7934  0143' 0093'              	movwf	??___flmul+1
  7935  0144' 0194'              	clrf	??___flmul+2
  7936  0145' 0195'              	clrf	??___flmul+3
  7937  0146' 0812'              	movf	??___flmul,w
  7938  0147' 0798'              	addwf	___flmul@grs,f
  7939  0148' 0813'              	movf	??___flmul+1,w
  7940  0149' 1103               	clrz
  7941  014A' 1803               	skipnc
  7942  014B' 3E01               	addlw	1
  7943  014C' 1903               	skipnz
  7944  014D' 2800'              	goto	u4051
  7945  014E' 0799'              	addwf	___flmul@grs+1,f
  7946  014F'                    u4051:
  7947  014F' 0814'              	movf	??___flmul+2,w
  7948  0150' 1103               	clrz
  7949  0151' 1803               	skipnc
  7950  0152' 3E01               	addlw	1
  7951  0153' 1903               	skipnz
  7952  0154' 2800'              	goto	u4052
  7953  0155' 079A'              	addwf	___flmul@grs+2,f
  7954  0156'                    u4052:
  7955  0156' 0815'              	movf	??___flmul+3,w
  7956  0157' 1103               	clrz
  7957  0158' 1803               	skipnc
  7958  0159' 3E01               	addlw	1
  7959  015A' 1903               	skipnz
  7960  015B' 2800'              	goto	u4053
  7961  015C' 079B'              	addwf	___flmul@grs+3,f
  7962  015D'                    u4053:
  7963  015D'                    l2712:
  7964  015D' 080A'              	movf	___flmul@b,w
  7965  015E' 0092'              	movwf	??___flmul
  7966  015F' 0812'              	movf	??___flmul,w
  7967  0160' 0083'              	movwf	__Umul8_16@multiplicand
  7968  0161' 080F'              	movf	___flmul@a+1,w
  7969  0162' 120A' 118A' 2000' 120A' 118A' 	fcall	__Umul8_16
  7970  0167' 0804'              	movf	?__Umul8_16+1,w
  7971  0168' 1283               	bcf	3,5	;RP0=0, select bank0
  7972  0169' 1303               	bcf	3,6	;RP1=0, select bank0
  7973  016A' 00A3'              	movwf	___flmul@temp+1
  7974  016B' 0803'              	movf	?__Umul8_16,w
  7975  016C' 00A2'              	movwf	___flmul@temp
  7976  016D'                    l2714:
  7977  016D' 0822'              	movf	___flmul@temp,w
  7978  016E' 0092'              	movwf	??___flmul
  7979  016F' 0823'              	movf	___flmul@temp+1,w
  7980  0170' 0093'              	movwf	??___flmul+1
  7981  0171' 0194'              	clrf	??___flmul+2
  7982  0172' 0195'              	clrf	??___flmul+3
  7983  0173' 0812'              	movf	??___flmul,w
  7984  0174' 0798'              	addwf	___flmul@grs,f
  7985  0175' 0813'              	movf	??___flmul+1,w
  7986  0176' 1103               	clrz
  7987  0177' 1803               	skipnc
  7988  0178' 3E01               	addlw	1
  7989  0179' 1903               	skipnz
  7990  017A' 2800'              	goto	u4061
  7991  017B' 0799'              	addwf	___flmul@grs+1,f
  7992  017C'                    u4061:
  7993  017C' 0814'              	movf	??___flmul+2,w
  7994  017D' 1103               	clrz
  7995  017E' 1803               	skipnc
  7996  017F' 3E01               	addlw	1
  7997  0180' 1903               	skipnz
  7998  0181' 2800'              	goto	u4062
  7999  0182' 079A'              	addwf	___flmul@grs+2,f
  8000  0183'                    u4062:
  8001  0183' 0815'              	movf	??___flmul+3,w
  8002  0184' 1103               	clrz
  8003  0185' 1803               	skipnc
  8004  0186' 3E01               	addlw	1
  8005  0187' 1903               	skipnz
  8006  0188' 2800'              	goto	u4063
  8007  0189' 079B'              	addwf	___flmul@grs+3,f
  8008  018A'                    u4063:
  8009  018A'                    l2716:
  8010  018A' 3008               	movlw	8
  8011  018B' 0092'              	movwf	??___flmul
  8012  018C'                    u4075:
  8013  018C' 1003               	clrc
  8014  018D' 0D98'              	rlf	___flmul@grs,f
  8015  018E' 0D99'              	rlf	___flmul@grs+1,f
  8016  018F' 0D9A'              	rlf	___flmul@grs+2,f
  8017  0190' 0D9B'              	rlf	___flmul@grs+3,f
  8018  0191' 0B92'              	decfsz	??___flmul,f
  8019  0192' 2800'              	goto	u4075
  8020  0193' 080A'              	movf	___flmul@b,w
  8021  0194' 0092'              	movwf	??___flmul
  8022  0195' 0812'              	movf	??___flmul,w
  8023  0196' 0083'              	movwf	__Umul8_16@multiplicand
  8024  0197' 080E'              	movf	___flmul@a,w
  8025  0198' 120A' 118A' 2000' 120A' 118A' 	fcall	__Umul8_16
  8026  019D' 0804'              	movf	?__Umul8_16+1,w
  8027  019E' 1283               	bcf	3,5	;RP0=0, select bank0
  8028  019F' 1303               	bcf	3,6	;RP1=0, select bank0
  8029  01A0' 00A3'              	movwf	___flmul@temp+1
  8030  01A1' 0803'              	movf	?__Umul8_16,w
  8031  01A2' 00A2'              	movwf	___flmul@temp
  8032  01A3'                    l2718:
  8033  01A3' 0822'              	movf	___flmul@temp,w
  8034  01A4' 0092'              	movwf	??___flmul
  8035  01A5' 0823'              	movf	___flmul@temp+1,w
  8036  01A6' 0093'              	movwf	??___flmul+1
  8037  01A7' 0194'              	clrf	??___flmul+2
  8038  01A8' 0195'              	clrf	??___flmul+3
  8039  01A9' 0812'              	movf	??___flmul,w
  8040  01AA' 0798'              	addwf	___flmul@grs,f
  8041  01AB' 0813'              	movf	??___flmul+1,w
  8042  01AC' 1103               	clrz
  8043  01AD' 1803               	skipnc
  8044  01AE' 3E01               	addlw	1
  8045  01AF' 1903               	skipnz
  8046  01B0' 2800'              	goto	u4081
  8047  01B1' 0799'              	addwf	___flmul@grs+1,f
  8048  01B2'                    u4081:
  8049  01B2' 0814'              	movf	??___flmul+2,w
  8050  01B3' 1103               	clrz
  8051  01B4' 1803               	skipnc
  8052  01B5' 3E01               	addlw	1
  8053  01B6' 1903               	skipnz
  8054  01B7' 2800'              	goto	u4082
  8055  01B8' 079A'              	addwf	___flmul@grs+2,f
  8056  01B9'                    u4082:
  8057  01B9' 0815'              	movf	??___flmul+3,w
  8058  01BA' 1103               	clrz
  8059  01BB' 1803               	skipnc
  8060  01BC' 3E01               	addlw	1
  8061  01BD' 1903               	skipnz
  8062  01BE' 2800'              	goto	u4083
  8063  01BF' 079B'              	addwf	___flmul@grs+3,f
  8064  01C0'                    u4083:
  8065  01C0'                    l2720:
  8066  01C0' 080B'              	movf	___flmul@b+1,w
  8067  01C1' 0092'              	movwf	??___flmul
  8068  01C2' 0812'              	movf	??___flmul,w
  8069  01C3' 0083'              	movwf	__Umul8_16@multiplicand
  8070  01C4' 0810'              	movf	___flmul@a+2,w
  8071  01C5' 120A' 118A' 2000' 120A' 118A' 	fcall	__Umul8_16
  8072  01CA' 0804'              	movf	?__Umul8_16+1,w
  8073  01CB' 1283               	bcf	3,5	;RP0=0, select bank0
  8074  01CC' 1303               	bcf	3,6	;RP1=0, select bank0
  8075  01CD' 00A3'              	movwf	___flmul@temp+1
  8076  01CE' 0803'              	movf	?__Umul8_16,w
  8077  01CF' 00A2'              	movwf	___flmul@temp
  8078  01D0' 0822'              	movf	___flmul@temp,w
  8079  01D1' 0092'              	movwf	??___flmul
  8080  01D2' 0823'              	movf	___flmul@temp+1,w
  8081  01D3' 0093'              	movwf	??___flmul+1
  8082  01D4' 0194'              	clrf	??___flmul+2
  8083  01D5' 0195'              	clrf	??___flmul+3
  8084  01D6' 0812'              	movf	??___flmul,w
  8085  01D7' 079E'              	addwf	___flmul@prod,f
  8086  01D8' 0813'              	movf	??___flmul+1,w
  8087  01D9' 1103               	clrz
  8088  01DA' 1803               	skipnc
  8089  01DB' 3E01               	addlw	1
  8090  01DC' 1903               	skipnz
  8091  01DD' 2800'              	goto	u4091
  8092  01DE' 079F'              	addwf	___flmul@prod+1,f
  8093  01DF'                    u4091:
  8094  01DF' 0814'              	movf	??___flmul+2,w
  8095  01E0' 1103               	clrz
  8096  01E1' 1803               	skipnc
  8097  01E2' 3E01               	addlw	1
  8098  01E3' 1903               	skipnz
  8099  01E4' 2800'              	goto	u4092
  8100  01E5' 07A0'              	addwf	___flmul@prod+2,f
  8101  01E6'                    u4092:
  8102  01E6' 0815'              	movf	??___flmul+3,w
  8103  01E7' 1103               	clrz
  8104  01E8' 1803               	skipnc
  8105  01E9' 3E01               	addlw	1
  8106  01EA' 1903               	skipnz
  8107  01EB' 2800'              	goto	u4093
  8108  01EC' 07A1'              	addwf	___flmul@prod+3,f
  8109  01ED'                    u4093:
  8110  01ED'                    l2722:
  8111  01ED' 080C'              	movf	___flmul@b+2,w
  8112  01EE' 0092'              	movwf	??___flmul
  8113  01EF' 0812'              	movf	??___flmul,w
  8114  01F0' 0083'              	movwf	__Umul8_16@multiplicand
  8115  01F1' 080F'              	movf	___flmul@a+1,w
  8116  01F2' 120A' 118A' 2000' 120A' 118A' 	fcall	__Umul8_16
  8117  01F7' 0804'              	movf	?__Umul8_16+1,w
  8118  01F8' 1283               	bcf	3,5	;RP0=0, select bank0
  8119  01F9' 1303               	bcf	3,6	;RP1=0, select bank0
  8120  01FA' 00A3'              	movwf	___flmul@temp+1
  8121  01FB' 0803'              	movf	?__Umul8_16,w
  8122  01FC' 00A2'              	movwf	___flmul@temp
  8123  01FD'                    l2724:
  8124  01FD' 0822'              	movf	___flmul@temp,w
  8125  01FE' 0092'              	movwf	??___flmul
  8126  01FF' 0823'              	movf	___flmul@temp+1,w
  8127  0200' 0093'              	movwf	??___flmul+1
  8128  0201' 0194'              	clrf	??___flmul+2
  8129  0202' 0195'              	clrf	??___flmul+3
  8130  0203' 0812'              	movf	??___flmul,w
  8131  0204' 079E'              	addwf	___flmul@prod,f
  8132  0205' 0813'              	movf	??___flmul+1,w
  8133  0206' 1103               	clrz
  8134  0207' 1803               	skipnc
  8135  0208' 3E01               	addlw	1
  8136  0209' 1903               	skipnz
  8137  020A' 2800'              	goto	u4101
  8138  020B' 079F'              	addwf	___flmul@prod+1,f
  8139  020C'                    u4101:
  8140  020C' 0814'              	movf	??___flmul+2,w
  8141  020D' 1103               	clrz
  8142  020E' 1803               	skipnc
  8143  020F' 3E01               	addlw	1
  8144  0210' 1903               	skipnz
  8145  0211' 2800'              	goto	u4102
  8146  0212' 07A0'              	addwf	___flmul@prod+2,f
  8147  0213'                    u4102:
  8148  0213' 0815'              	movf	??___flmul+3,w
  8149  0214' 1103               	clrz
  8150  0215' 1803               	skipnc
  8151  0216' 3E01               	addlw	1
  8152  0217' 1903               	skipnz
  8153  0218' 2800'              	goto	u4103
  8154  0219' 07A1'              	addwf	___flmul@prod+3,f
  8155  021A'                    u4103:
  8156  021A' 080C'              	movf	___flmul@b+2,w
  8157  021B' 0092'              	movwf	??___flmul
  8158  021C' 0812'              	movf	??___flmul,w
  8159  021D' 0083'              	movwf	__Umul8_16@multiplicand
  8160  021E' 0810'              	movf	___flmul@a+2,w
  8161  021F' 120A' 118A' 2000' 120A' 118A' 	fcall	__Umul8_16
  8162  0224' 0804'              	movf	?__Umul8_16+1,w
  8163  0225' 1283               	bcf	3,5	;RP0=0, select bank0
  8164  0226' 1303               	bcf	3,6	;RP1=0, select bank0
  8165  0227' 00A3'              	movwf	___flmul@temp+1
  8166  0228' 0803'              	movf	?__Umul8_16,w
  8167  0229' 00A2'              	movwf	___flmul@temp
  8168  022A'                    l2726:
  8169  022A' 0822'              	movf	___flmul@temp,w
  8170  022B' 0092'              	movwf	??___flmul
  8171  022C' 0823'              	movf	___flmul@temp+1,w
  8172  022D' 0093'              	movwf	??___flmul+1
  8173  022E' 0194'              	clrf	??___flmul+2
  8174  022F' 0195'              	clrf	??___flmul+3
  8175  0230' 3008               	movlw	8
  8176  0231'                    u4115:
  8177  0231' 1003               	clrc
  8178  0232' 0D92'              	rlf	??___flmul,f
  8179  0233' 0D93'              	rlf	??___flmul+1,f
  8180  0234' 0D94'              	rlf	??___flmul+2,f
  8181  0235' 0D95'              	rlf	??___flmul+3,f
  8182  0236'                    u4110:
  8183  0236' 3EFF               	addlw	-1
  8184  0237' 1D03               	skipz
  8185  0238' 2800'              	goto	u4115
  8186  0239' 0812'              	movf	??___flmul,w
  8187  023A' 079E'              	addwf	___flmul@prod,f
  8188  023B' 0813'              	movf	??___flmul+1,w
  8189  023C' 1103               	clrz
  8190  023D' 1803               	skipnc
  8191  023E' 3E01               	addlw	1
  8192  023F' 1903               	skipnz
  8193  0240' 2800'              	goto	u4121
  8194  0241' 079F'              	addwf	___flmul@prod+1,f
  8195  0242'                    u4121:
  8196  0242' 0814'              	movf	??___flmul+2,w
  8197  0243' 1103               	clrz
  8198  0244' 1803               	skipnc
  8199  0245' 3E01               	addlw	1
  8200  0246' 1903               	skipnz
  8201  0247' 2800'              	goto	u4122
  8202  0248' 07A0'              	addwf	___flmul@prod+2,f
  8203  0249'                    u4122:
  8204  0249' 0815'              	movf	??___flmul+3,w
  8205  024A' 1103               	clrz
  8206  024B' 1803               	skipnc
  8207  024C' 3E01               	addlw	1
  8208  024D' 1903               	skipnz
  8209  024E' 2800'              	goto	u4123
  8210  024F' 07A1'              	addwf	___flmul@prod+3,f
  8211  0250'                    u4123:
  8212  0250'                    l2728:
  8213  0250' 0818'              	movf	___flmul@grs,w
  8214  0251' 0092'              	movwf	??___flmul
  8215  0252' 0819'              	movf	___flmul@grs+1,w
  8216  0253' 0093'              	movwf	??___flmul+1
  8217  0254' 081A'              	movf	___flmul@grs+2,w
  8218  0255' 0094'              	movwf	??___flmul+2
  8219  0256' 081B'              	movf	___flmul@grs+3,w
  8220  0257' 0095'              	movwf	??___flmul+3
  8221  0258' 3018               	movlw	24
  8222  0259'                    u4135:
  8223  0259' 1003               	clrc
  8224  025A' 0C95'              	rrf	??___flmul+3,f
  8225  025B' 0C94'              	rrf	??___flmul+2,f
  8226  025C' 0C93'              	rrf	??___flmul+1,f
  8227  025D' 0C92'              	rrf	??___flmul,f
  8228  025E'                    u4130:
  8229  025E' 3EFF               	addlw	-1
  8230  025F' 1D03               	skipz
  8231  0260' 2800'              	goto	u4135
  8232  0261' 0812'              	movf	??___flmul,w
  8233  0262' 079E'              	addwf	___flmul@prod,f
  8234  0263' 0813'              	movf	??___flmul+1,w
  8235  0264' 1103               	clrz
  8236  0265' 1803               	skipnc
  8237  0266' 3E01               	addlw	1
  8238  0267' 1903               	skipnz
  8239  0268' 2800'              	goto	u4141
  8240  0269' 079F'              	addwf	___flmul@prod+1,f
  8241  026A'                    u4141:
  8242  026A' 0814'              	movf	??___flmul+2,w
  8243  026B' 1103               	clrz
  8244  026C' 1803               	skipnc
  8245  026D' 3E01               	addlw	1
  8246  026E' 1903               	skipnz
  8247  026F' 2800'              	goto	u4142
  8248  0270' 07A0'              	addwf	___flmul@prod+2,f
  8249  0271'                    u4142:
  8250  0271' 0815'              	movf	??___flmul+3,w
  8251  0272' 1103               	clrz
  8252  0273' 1803               	skipnc
  8253  0274' 3E01               	addlw	1
  8254  0275' 1903               	skipnz
  8255  0276' 2800'              	goto	u4143
  8256  0277' 07A1'              	addwf	___flmul@prod+3,f
  8257  0278'                    u4143:
  8258  0278'                    l2730:
  8259  0278' 3008               	movlw	8
  8260  0279' 0092'              	movwf	??___flmul
  8261  027A'                    u4155:
  8262  027A' 1003               	clrc
  8263  027B' 0D98'              	rlf	___flmul@grs,f
  8264  027C' 0D99'              	rlf	___flmul@grs+1,f
  8265  027D' 0D9A'              	rlf	___flmul@grs+2,f
  8266  027E' 0D9B'              	rlf	___flmul@grs+3,f
  8267  027F' 0B92'              	decfsz	??___flmul,f
  8268  0280' 2800'              	goto	u4155
  8269  0281'                    l2732:
  8270  0281' 081D'              	movf	___flmul@bexp,w
  8271  0282' 071C'              	addwf	___flmul@aexp,w
  8272  0283' 0092'              	movwf	??___flmul
  8273  0284' 0193'              	clrf	??___flmul+1
  8274  0285' 0D93'              	rlf	??___flmul+1,f
  8275  0286' 0812'              	movf	??___flmul,w
  8276  0287' 3E82               	addlw	130
  8277  0288' 00A2'              	movwf	___flmul@temp
  8278  0289' 0813'              	movf	??___flmul+1,w
  8279  028A' 1803               	skipnc
  8280  028B' 3E01               	addlw	1
  8281  028C' 3EFF               	addlw	255
  8282  028D' 00A3'              	movwf	___flmul@temp+1
  8283  028E' 2800'              	goto	l2744
  8284  028F'                    l2734:
  8285  028F' 3001               	movlw	1
  8286  0290' 0092'              	movwf	??___flmul
  8287  0291'                    u4165:
  8288  0291' 1003               	clrc
  8289  0292' 0D9E'              	rlf	___flmul@prod,f
  8290  0293' 0D9F'              	rlf	___flmul@prod+1,f
  8291  0294' 0DA0'              	rlf	___flmul@prod+2,f
  8292  0295' 0DA1'              	rlf	___flmul@prod+3,f
  8293  0296' 0B92'              	decfsz	??___flmul,f
  8294  0297' 2800'              	goto	u4165
  8295  0298'                    l2736:
  8296  0298' 1F9B'              	btfss	___flmul@grs+3,7
  8297  0299' 2800'              	goto	u4171
  8298  029A' 2800'              	goto	u4170
  8299  029B'                    u4171:
  8300  029B' 2800'              	goto	l2740
  8301  029C'                    u4170:
  8302  029C'                    l2738:
  8303  029C' 141E'              	bsf	___flmul@prod,0
  8304  029D'                    l2740:
  8305  029D' 3001               	movlw	1
  8306  029E' 0092'              	movwf	??___flmul
  8307  029F'                    u4185:
  8308  029F' 1003               	clrc
  8309  02A0' 0D98'              	rlf	___flmul@grs,f
  8310  02A1' 0D99'              	rlf	___flmul@grs+1,f
  8311  02A2' 0D9A'              	rlf	___flmul@grs+2,f
  8312  02A3' 0D9B'              	rlf	___flmul@grs+3,f
  8313  02A4' 0B92'              	decfsz	??___flmul,f
  8314  02A5' 2800'              	goto	u4185
  8315  02A6'                    l2742:
  8316  02A6' 30FF               	movlw	255
  8317  02A7' 07A2'              	addwf	___flmul@temp,f
  8318  02A8' 1803               	skipnc
  8319  02A9' 0AA3'              	incf	___flmul@temp+1,f
  8320  02AA' 30FF               	movlw	255
  8321  02AB' 07A3'              	addwf	___flmul@temp+1,f
  8322  02AC'                    l2744:
  8323  02AC' 1FA0'              	btfss	___flmul@prod+2,7
  8324  02AD' 2800'              	goto	u4191
  8325  02AE' 2800'              	goto	u4190
  8326  02AF'                    u4191:
  8327  02AF' 2800'              	goto	l2734
  8328  02B0'                    u4190:
  8329  02B0'                    l2746:
  8330  02B0' 019C'              	clrf	___flmul@aexp
  8331  02B1'                    l2748:
  8332  02B1' 1F9B'              	btfss	___flmul@grs+3,7
  8333  02B2' 2800'              	goto	u4201
  8334  02B3' 2800'              	goto	u4200
  8335  02B4'                    u4201:
  8336  02B4' 2800'              	goto	l2756
  8337  02B5'                    u4200:
  8338  02B5'                    l2750:
  8339  02B5' 30FF               	movlw	255
  8340  02B6' 0518'              	andwf	___flmul@grs,w
  8341  02B7' 0092'              	movwf	??___flmul
  8342  02B8' 30FF               	movlw	255
  8343  02B9' 0519'              	andwf	___flmul@grs+1,w
  8344  02BA' 0093'              	movwf	??___flmul+1
  8345  02BB' 30FF               	movlw	255
  8346  02BC' 051A'              	andwf	___flmul@grs+2,w
  8347  02BD' 0094'              	movwf	??___flmul+2
  8348  02BE' 307F               	movlw	127
  8349  02BF' 051B'              	andwf	___flmul@grs+3,w
  8350  02C0' 0095'              	movwf	??___flmul+3
  8351  02C1' 0815'              	movf	??___flmul+3,w
  8352  02C2' 0414'              	iorwf	??___flmul+2,w
  8353  02C3' 0413'              	iorwf	??___flmul+1,w
  8354  02C4' 0412'              	iorwf	??___flmul,w
  8355  02C5' 1903               	skipnz
  8356  02C6' 2800'              	goto	u4211
  8357  02C7' 2800'              	goto	u4210
  8358  02C8'                    u4211:
  8359  02C8' 2800'              	goto	l740
  8360  02C9'                    u4210:
  8361  02C9'                    l2752:
  8362  02C9' 019C'              	clrf	___flmul@aexp
  8363  02CA' 0A9C'              	incf	___flmul@aexp,f
  8364  02CB' 2800'              	goto	l2756
  8365  02CC'                    l740:
  8366  02CC' 1C1E'              	btfss	___flmul@prod,0
  8367  02CD' 2800'              	goto	u4221
  8368  02CE' 2800'              	goto	u4220
  8369  02CF'                    u4221:
  8370  02CF' 2800'              	goto	l2756
  8371  02D0'                    u4220:
  8372  02D0' 2800'              	goto	l2752
  8373  02D1'                    l2756:
  8374  02D1' 081C'              	movf	___flmul@aexp,w
  8375  02D2' 1903               	btfsc	3,2
  8376  02D3' 2800'              	goto	u4231
  8377  02D4' 2800'              	goto	u4230
  8378  02D5'                    u4231:
  8379  02D5' 2800'              	goto	l2766
  8380  02D6'                    u4230:
  8381  02D6'                    l2758:
  8382  02D6' 3001               	movlw	1
  8383  02D7' 079E'              	addwf	___flmul@prod,f
  8384  02D8' 3000               	movlw	0
  8385  02D9' 1803               	skipnc
  8386  02DA' 3001               	movlw	1
  8387  02DB' 079F'              	addwf	___flmul@prod+1,f
  8388  02DC' 3000               	movlw	0
  8389  02DD' 1803               	skipnc
  8390  02DE' 3001               	movlw	1
  8391  02DF' 07A0'              	addwf	___flmul@prod+2,f
  8392  02E0' 3000               	movlw	0
  8393  02E1' 1803               	skipnc
  8394  02E2' 3001               	movlw	1
  8395  02E3' 07A1'              	addwf	___flmul@prod+3,f
  8396  02E4'                    l2760:
  8397  02E4' 1C21'              	btfss	___flmul@prod+3,0
  8398  02E5' 2800'              	goto	u4241
  8399  02E6' 2800'              	goto	u4240
  8400  02E7'                    u4241:
  8401  02E7' 2800'              	goto	l2766
  8402  02E8'                    u4240:
  8403  02E8'                    l2762:
  8404  02E8' 081E'              	movf	___flmul@prod,w
  8405  02E9' 0092'              	movwf	??___flmul
  8406  02EA' 081F'              	movf	___flmul@prod+1,w
  8407  02EB' 0093'              	movwf	??___flmul+1
  8408  02EC' 0820'              	movf	___flmul@prod+2,w
  8409  02ED' 0094'              	movwf	??___flmul+2
  8410  02EE' 0821'              	movf	___flmul@prod+3,w
  8411  02EF' 0095'              	movwf	??___flmul+3
  8412  02F0' 3001               	movlw	1
  8413  02F1' 0096'              	movwf	??___flmul+4
  8414  02F2'                    u4255:
  8415  02F2' 0D15'              	rlf	??___flmul+3,w
  8416  02F3' 0C95'              	rrf	??___flmul+3,f
  8417  02F4' 0C94'              	rrf	??___flmul+2,f
  8418  02F5' 0C93'              	rrf	??___flmul+1,f
  8419  02F6' 0C92'              	rrf	??___flmul,f
  8420  02F7'                    u4250:
  8421  02F7' 0B96'              	decfsz	??___flmul+4,f
  8422  02F8' 2800'              	goto	u4255
  8423  02F9' 0815'              	movf	??___flmul+3,w
  8424  02FA' 00A1'              	movwf	___flmul@prod+3
  8425  02FB' 0814'              	movf	??___flmul+2,w
  8426  02FC' 00A0'              	movwf	___flmul@prod+2
  8427  02FD' 0813'              	movf	??___flmul+1,w
  8428  02FE' 009F'              	movwf	___flmul@prod+1
  8429  02FF' 0812'              	movf	??___flmul,w
  8430  0300' 009E'              	movwf	___flmul@prod
  8431  0301'                    l2764:
  8432  0301' 3001               	movlw	1
  8433  0302' 07A2'              	addwf	___flmul@temp,f
  8434  0303' 1803               	skipnc
  8435  0304' 0AA3'              	incf	___flmul@temp+1,f
  8436  0305' 3000               	movlw	0
  8437  0306' 07A3'              	addwf	___flmul@temp+1,f
  8438  0307'                    l2766:
  8439  0307' 0823'              	movf	___flmul@temp+1,w
  8440  0308' 3A80               	xorlw	128
  8441  0309' 00FF               	movwf	btemp+1
  8442  030A' 3080               	movlw	128
  8443  030B' 027F               	subwf	btemp+1,w
  8444  030C' 1D03               	skipz
  8445  030D' 2800'              	goto	u4265
  8446  030E' 30FF               	movlw	255
  8447  030F' 0222'              	subwf	___flmul@temp,w
  8448  0310'                    u4265:
  8449  0310' 1C03               	skipc
  8450  0311' 2800'              	goto	u4261
  8451  0312' 2800'              	goto	u4260
  8452  0313'                    u4261:
  8453  0313' 2800'              	goto	l2770
  8454  0314'                    u4260:
  8455  0314'                    l2768:
  8456  0314' 307F               	movlw	127
  8457  0315' 1283               	bcf	3,5	;RP0=0, select bank0
  8458  0316' 1303               	bcf	3,6	;RP1=0, select bank0
  8459  0317' 00A1'              	movwf	___flmul@prod+3
  8460  0318' 3080               	movlw	128
  8461  0319' 00A0'              	movwf	___flmul@prod+2
  8462  031A' 3000               	movlw	0
  8463  031B' 009F'              	movwf	___flmul@prod+1
  8464  031C' 3000               	movlw	0
  8465  031D' 009E'              	movwf	___flmul@prod
  8466  031E' 2800'              	goto	l746
  8467  031F'                    l2770:
  8468  031F' 1283               	bcf	3,5	;RP0=0, select bank0
  8469  0320' 1303               	bcf	3,6	;RP1=0, select bank0
  8470  0321' 0823'              	movf	___flmul@temp+1,w
  8471  0322' 3A80               	xorlw	128
  8472  0323' 00FF               	movwf	btemp+1
  8473  0324' 3080               	movlw	128
  8474  0325' 027F               	subwf	btemp+1,w
  8475  0326' 1D03               	skipz
  8476  0327' 2800'              	goto	u4275
  8477  0328' 3001               	movlw	1
  8478  0329' 0222'              	subwf	___flmul@temp,w
  8479  032A'                    u4275:
  8480  032A' 1803               	skipnc
  8481  032B' 2800'              	goto	u4271
  8482  032C' 2800'              	goto	u4270
  8483  032D'                    u4271:
  8484  032D' 2800'              	goto	l2776
  8485  032E'                    u4270:
  8486  032E'                    l2772:
  8487  032E' 3000               	movlw	0
  8488  032F' 1283               	bcf	3,5	;RP0=0, select bank0
  8489  0330' 1303               	bcf	3,6	;RP1=0, select bank0
  8490  0331' 00A1'              	movwf	___flmul@prod+3
  8491  0332' 3000               	movlw	0
  8492  0333' 00A0'              	movwf	___flmul@prod+2
  8493  0334' 3000               	movlw	0
  8494  0335' 009F'              	movwf	___flmul@prod+1
  8495  0336' 3000               	movlw	0
  8496  0337' 009E'              	movwf	___flmul@prod
  8497  0338'                    l2774:
  8498  0338' 0197'              	clrf	___flmul@sign
  8499  0339' 2800'              	goto	l746
  8500  033A'                    l2776:
  8501  033A' 1283               	bcf	3,5	;RP0=0, select bank0
  8502  033B' 1303               	bcf	3,6	;RP1=0, select bank0
  8503  033C' 0822'              	movf	___flmul@temp,w
  8504  033D' 0092'              	movwf	??___flmul
  8505  033E' 0812'              	movf	??___flmul,w
  8506  033F' 009D'              	movwf	___flmul@bexp
  8507  0340' 30FF               	movlw	255
  8508  0341' 059E'              	andwf	___flmul@prod,f
  8509  0342' 30FF               	movlw	255
  8510  0343' 059F'              	andwf	___flmul@prod+1,f
  8511  0344' 307F               	movlw	127
  8512  0345' 05A0'              	andwf	___flmul@prod+2,f
  8513  0346' 3000               	movlw	0
  8514  0347' 05A1'              	andwf	___flmul@prod+3,f
  8515  0348'                    l2778:
  8516  0348' 1C1D'              	btfss	___flmul@bexp,0
  8517  0349' 2800'              	goto	u4281
  8518  034A' 2800'              	goto	u4280
  8519  034B'                    u4281:
  8520  034B' 2800'              	goto	l2782
  8521  034C'                    u4280:
  8522  034C'                    l2780:
  8523  034C' 17A0'              	bsf	___flmul@prod+2,7
  8524  034D'                    l2782:
  8525  034D' 081D'              	movf	___flmul@bexp,w
  8526  034E' 0092'              	movwf	??___flmul
  8527  034F' 1003               	clrc
  8528  0350' 0C12'              	rrf	??___flmul,w
  8529  0351' 0093'              	movwf	??___flmul+1
  8530  0352' 0813'              	movf	??___flmul+1,w
  8531  0353' 00A1'              	movwf	___flmul@prod+3
  8532  0354'                    l746:
  8533  0354' 0817'              	movf	___flmul@sign,w
  8534  0355' 0092'              	movwf	??___flmul
  8535  0356' 0812'              	movf	??___flmul,w
  8536  0357' 04A1'              	iorwf	___flmul@prod+3,f
  8537  0358'                    l2784:
  8538  0358' 0821'              	movf	___flmul@prod+3,w
  8539  0359' 008D'              	movwf	?___flmul+3
  8540  035A' 0820'              	movf	___flmul@prod+2,w
  8541  035B' 008C'              	movwf	?___flmul+2
  8542  035C' 081F'              	movf	___flmul@prod+1,w
  8543  035D' 008B'              	movwf	?___flmul+1
  8544  035E' 081E'              	movf	___flmul@prod,w
  8545  035F' 008A'              	movwf	?___flmul
  8546  0360'                    l734:
  8547  0360' 0008               	return
  8548  0361'                    __end_of___flmul:
  8549                           
  8550                           	psect	text25
  8551  0000'                    __ptext25:	
  8552 ;; *************** function __Umul8_16 *****************
  8553 ;; Defined at:
  8554 ;;		line 4 in file "C:\Program Files\Microchip\xc8\v2.31\pic\sources\c90\common\Umul8_16.c"
  8555 ;; Parameters:    Size  Location     Type
  8556 ;;  multiplier      1    wreg     unsigned char 
  8557 ;;  multiplicand    1    3[COMMON] unsigned char 
  8558 ;; Auto vars:     Size  Location     Type
  8559 ;;  multiplier      1    4[BANK0 ] unsigned char 
  8560 ;;  word_mpld       2    2[BANK0 ] unsigned int 
  8561 ;;  product         2    0[BANK0 ] unsigned int 
  8562 ;; Return value:  Size  Location     Type
  8563 ;;                  2    3[COMMON] unsigned int 
  8564 ;; Registers used:
  8565 ;;		wreg, status,2, status,0
  8566 ;; Tracked objects:
  8567 ;;		On entry : 0/0
  8568 ;;		On exit  : 0/0
  8569 ;;		Unchanged: 0/0
  8570 ;; Data sizes:     COMMON   BANK0   BANK1   BANK3   BANK2
  8571 ;;      Params:         2       0       0       0       0
  8572 ;;      Locals:         0       5       0       0       0
  8573 ;;      Temps:          2       0       0       0       0
  8574 ;;      Totals:         4       5       0       0       0
  8575 ;;Total ram usage:        9 bytes
  8576 ;; Hardware stack levels used:    1
  8577 ;; Hardware stack levels required when called:    1
  8578 ;; This function calls:
  8579 ;;		Nothing
  8580 ;; This function is called by:
  8581 ;;		___flmul
  8582 ;; This function uses a non-reentrant model
  8583 ;;
  8584                           
  8585                           
  8586                           ;psect for function __Umul8_16
  8587  0000'                    __Umul8_16:
  8588                           
  8589                           ;incstack = 0
  8590                           ; Regs used in __Umul8_16: [wreg+status,2+status,0]
  8591                           ;__Umul8_16@multiplier stored from wreg
  8592  0000' 1283               	bcf	3,5	;RP0=0, select bank0
  8593  0001' 1303               	bcf	3,6	;RP1=0, select bank0
  8594  0002' 0084'              	movwf	__Umul8_16@multiplier
  8595  0003'                    l2310:
  8596  0003' 0180'              	clrf	__Umul8_16@product
  8597  0004' 0181'              	clrf	__Umul8_16@product+1
  8598  0005'                    l2312:
  8599  0005' 0803'              	movf	__Umul8_16@multiplicand,w
  8600  0006' 0085'              	movwf	??__Umul8_16
  8601  0007' 0186'              	clrf	??__Umul8_16+1
  8602  0008' 0805'              	movf	??__Umul8_16,w
  8603  0009' 0082'              	movwf	__Umul8_16@word_mpld
  8604  000A' 0806'              	movf	??__Umul8_16+1,w
  8605  000B' 0083'              	movwf	__Umul8_16@word_mpld+1
  8606  000C'                    l2314:
  8607  000C' 1C04'              	btfss	__Umul8_16@multiplier,0
  8608  000D' 2800'              	goto	u3111
  8609  000E' 2800'              	goto	u3110
  8610  000F'                    u3111:
  8611  000F' 2800'              	goto	l753
  8612  0010'                    u3110:
  8613  0010'                    l2316:
  8614  0010' 0802'              	movf	__Umul8_16@word_mpld,w
  8615  0011' 0780'              	addwf	__Umul8_16@product,f
  8616  0012' 1803               	skipnc
  8617  0013' 0A81'              	incf	__Umul8_16@product+1,f
  8618  0014' 0803'              	movf	__Umul8_16@word_mpld+1,w
  8619  0015' 0781'              	addwf	__Umul8_16@product+1,f
  8620  0016'                    l753:
  8621  0016' 3001               	movlw	1
  8622  0017'                    u3125:
  8623  0017' 1003               	clrc
  8624  0018' 0D82'              	rlf	__Umul8_16@word_mpld,f
  8625  0019' 0D83'              	rlf	__Umul8_16@word_mpld+1,f
  8626  001A' 3EFF               	addlw	-1
  8627  001B' 1D03               	skipz
  8628  001C' 2800'              	goto	u3125
  8629  001D' 1003               	clrc
  8630  001E' 0C84'              	rrf	__Umul8_16@multiplier,f
  8631  001F'                    l2318:
  8632  001F' 0804'              	movf	__Umul8_16@multiplier,w
  8633  0020' 1D03               	btfss	3,2
  8634  0021' 2800'              	goto	u3131
  8635  0022' 2800'              	goto	u3130
  8636  0023'                    u3131:
  8637  0023' 2800'              	goto	l2314
  8638  0024'                    u3130:
  8639  0024'                    l2320:
  8640  0024' 0801'              	movf	__Umul8_16@product+1,w
  8641  0025' 0084'              	movwf	?__Umul8_16+1
  8642  0026' 0800'              	movf	__Umul8_16@product,w
  8643  0027' 0083'              	movwf	?__Umul8_16
  8644  0028'                    l755:
  8645  0028' 0008               	return
  8646  0029'                    __end_of__Umul8_16:
  8647                           
  8648                           	psect	text26
  8649  0000'                    __ptext26:	
  8650 ;; *************** function ___fldiv *****************
  8651 ;; Defined at:
  8652 ;;		line 8 in file "C:\Program Files\Microchip\xc8\v2.31\pic\sources\c90\common\sprcdiv.c"
  8653 ;; Parameters:    Size  Location     Type
  8654 ;;  a               4   36[BANK0 ] unsigned int 
  8655 ;;  b               4   40[BANK0 ] unsigned int 
  8656 ;; Auto vars:     Size  Location     Type
  8657 ;;  grs             4   56[BANK0 ] unsigned long 
  8658 ;;  rem             4   49[BANK0 ] unsigned long 
  8659 ;;  new_exp         2   54[BANK0 ] int 
  8660 ;;  aexp            1   61[BANK0 ] unsigned char 
  8661 ;;  bexp            1   60[BANK0 ] unsigned char 
  8662 ;;  sign            1   53[BANK0 ] unsigned char 
  8663 ;; Return value:  Size  Location     Type
  8664 ;;                  4   36[BANK0 ] unsigned char 
  8665 ;; Registers used:
  8666 ;;		wreg, status,2, status,0, btemp+1
  8667 ;; Tracked objects:
  8668 ;;		On entry : 0/0
  8669 ;;		On exit  : 0/0
  8670 ;;		Unchanged: 0/0
  8671 ;; Data sizes:     COMMON   BANK0   BANK1   BANK3   BANK2
  8672 ;;      Params:         0       8       0       0       0
  8673 ;;      Locals:         0      13       0       0       0
  8674 ;;      Temps:          0       5       0       0       0
  8675 ;;      Totals:         0      26       0       0       0
  8676 ;;Total ram usage:       26 bytes
  8677 ;; Hardware stack levels used:    1
  8678 ;; Hardware stack levels required when called:    1
  8679 ;; This function calls:
  8680 ;;		Nothing
  8681 ;; This function is called by:
  8682 ;;		_ADC_channel1
  8683 ;;		_ADC_channel2
  8684 ;; This function uses a non-reentrant model
  8685 ;;
  8686                           
  8687                           
  8688                           ;psect for function ___fldiv
  8689  0000'                    ___fldiv:
  8690  0000'                    l3102:	
  8691                           ;incstack = 0
  8692                           ; Regs used in ___fldiv: [wreg+status,2+status,0+btemp+1]
  8693                           
  8694  0000' 1283               	bcf	3,5	;RP0=0, select bank0
  8695  0001' 1303               	bcf	3,6	;RP1=0, select bank0
  8696  0002' 082B'              	movf	___fldiv@b+3,w
  8697  0003' 3980               	andlw	128
  8698  0004' 00AC'              	movwf	??___fldiv
  8699  0005' 082C'              	movf	??___fldiv,w
  8700  0006' 00B5'              	movwf	___fldiv@sign
  8701  0007'                    l3104:
  8702  0007' 082B'              	movf	___fldiv@b+3,w
  8703  0008' 00AC'              	movwf	??___fldiv
  8704  0009' 072C'              	addwf	??___fldiv,w
  8705  000A' 00AD'              	movwf	??___fldiv+1
  8706  000B' 082D'              	movf	??___fldiv+1,w
  8707  000C' 00BC'              	movwf	___fldiv@bexp
  8708  000D'                    l3106:
  8709  000D' 1FAA'              	btfss	___fldiv@b+2,7
  8710  000E' 2800'              	goto	u5201
  8711  000F' 2800'              	goto	u5200
  8712  0010'                    u5201:
  8713  0010' 2800'              	goto	l3110
  8714  0011'                    u5200:
  8715  0011'                    l3108:
  8716  0011' 143C'              	bsf	___fldiv@bexp,0
  8717  0012'                    l3110:
  8718  0012' 083C'              	movf	___fldiv@bexp,w
  8719  0013' 1903               	btfsc	3,2
  8720  0014' 2800'              	goto	u5211
  8721  0015' 2800'              	goto	u5210
  8722  0016'                    u5211:
  8723  0016' 2800'              	goto	l3120
  8724  0017'                    u5210:
  8725  0017'                    l3112:
  8726  0017' 0A3C'              	incf	___fldiv@bexp,w
  8727  0018' 1D03               	btfss	3,2
  8728  0019' 2800'              	goto	u5221
  8729  001A' 2800'              	goto	u5220
  8730  001B'                    u5221:
  8731  001B' 2800'              	goto	l3116
  8732  001C'                    u5220:
  8733  001C'                    l3114:
  8734  001C' 3000               	movlw	0
  8735  001D' 00AB'              	movwf	___fldiv@b+3
  8736  001E' 3000               	movlw	0
  8737  001F' 00AA'              	movwf	___fldiv@b+2
  8738  0020' 3000               	movlw	0
  8739  0021' 00A9'              	movwf	___fldiv@b+1
  8740  0022' 3000               	movlw	0
  8741  0023' 00A8'              	movwf	___fldiv@b
  8742  0024'                    l3116:
  8743  0024' 17AA'              	bsf	___fldiv@b+2,7
  8744  0025'                    l3118:
  8745  0025' 01AB'              	clrf	___fldiv@b+3
  8746  0026' 2800'              	goto	l3122
  8747  0027'                    l3120:
  8748  0027' 3000               	movlw	0
  8749  0028' 00AB'              	movwf	___fldiv@b+3
  8750  0029' 3000               	movlw	0
  8751  002A' 00AA'              	movwf	___fldiv@b+2
  8752  002B' 3000               	movlw	0
  8753  002C' 00A9'              	movwf	___fldiv@b+1
  8754  002D' 3000               	movlw	0
  8755  002E' 00A8'              	movwf	___fldiv@b
  8756  002F'                    l3122:
  8757  002F' 0827'              	movf	___fldiv@a+3,w
  8758  0030' 3980               	andlw	128
  8759  0031' 00AC'              	movwf	??___fldiv
  8760  0032' 082C'              	movf	??___fldiv,w
  8761  0033' 06B5'              	xorwf	___fldiv@sign,f
  8762  0034'                    l3124:
  8763  0034' 0827'              	movf	___fldiv@a+3,w
  8764  0035' 00AC'              	movwf	??___fldiv
  8765  0036' 072C'              	addwf	??___fldiv,w
  8766  0037' 00AD'              	movwf	??___fldiv+1
  8767  0038' 082D'              	movf	??___fldiv+1,w
  8768  0039' 00BD'              	movwf	___fldiv@aexp
  8769  003A'                    l3126:
  8770  003A' 1FA6'              	btfss	___fldiv@a+2,7
  8771  003B' 2800'              	goto	u5231
  8772  003C' 2800'              	goto	u5230
  8773  003D'                    u5231:
  8774  003D' 2800'              	goto	l3130
  8775  003E'                    u5230:
  8776  003E'                    l3128:
  8777  003E' 143D'              	bsf	___fldiv@aexp,0
  8778  003F'                    l3130:
  8779  003F' 083D'              	movf	___fldiv@aexp,w
  8780  0040' 1903               	btfsc	3,2
  8781  0041' 2800'              	goto	u5241
  8782  0042' 2800'              	goto	u5240
  8783  0043'                    u5241:
  8784  0043' 2800'              	goto	l3140
  8785  0044'                    u5240:
  8786  0044'                    l3132:
  8787  0044' 0A3D'              	incf	___fldiv@aexp,w
  8788  0045' 1D03               	btfss	3,2
  8789  0046' 2800'              	goto	u5251
  8790  0047' 2800'              	goto	u5250
  8791  0048'                    u5251:
  8792  0048' 2800'              	goto	l3136
  8793  0049'                    u5250:
  8794  0049'                    l3134:
  8795  0049' 3000               	movlw	0
  8796  004A' 00A7'              	movwf	___fldiv@a+3
  8797  004B' 3000               	movlw	0
  8798  004C' 00A6'              	movwf	___fldiv@a+2
  8799  004D' 3000               	movlw	0
  8800  004E' 00A5'              	movwf	___fldiv@a+1
  8801  004F' 3000               	movlw	0
  8802  0050' 00A4'              	movwf	___fldiv@a
  8803  0051'                    l3136:
  8804  0051' 17A6'              	bsf	___fldiv@a+2,7
  8805  0052'                    l3138:
  8806  0052' 01A7'              	clrf	___fldiv@a+3
  8807  0053' 2800'              	goto	l694
  8808  0054'                    l3140:
  8809  0054' 3000               	movlw	0
  8810  0055' 00A7'              	movwf	___fldiv@a+3
  8811  0056' 3000               	movlw	0
  8812  0057' 00A6'              	movwf	___fldiv@a+2
  8813  0058' 3000               	movlw	0
  8814  0059' 00A5'              	movwf	___fldiv@a+1
  8815  005A' 3000               	movlw	0
  8816  005B' 00A4'              	movwf	___fldiv@a
  8817  005C'                    l694:
  8818  005C' 0827'              	movf	___fldiv@a+3,w
  8819  005D' 0426'              	iorwf	___fldiv@a+2,w
  8820  005E' 0425'              	iorwf	___fldiv@a+1,w
  8821  005F' 0424'              	iorwf	___fldiv@a,w
  8822  0060' 1D03               	skipz
  8823  0061' 2800'              	goto	u5261
  8824  0062' 2800'              	goto	u5260
  8825  0063'                    u5261:
  8826  0063' 2800'              	goto	l3150
  8827  0064'                    u5260:
  8828  0064'                    l3142:
  8829  0064' 3000               	movlw	0
  8830  0065' 00AB'              	movwf	___fldiv@b+3
  8831  0066' 3000               	movlw	0
  8832  0067' 00AA'              	movwf	___fldiv@b+2
  8833  0068' 3000               	movlw	0
  8834  0069' 00A9'              	movwf	___fldiv@b+1
  8835  006A' 3000               	movlw	0
  8836  006B' 00A8'              	movwf	___fldiv@b
  8837  006C' 3080               	movlw	128
  8838  006D' 04AA'              	iorwf	___fldiv@b+2,f
  8839  006E' 307F               	movlw	127
  8840  006F' 04AB'              	iorwf	___fldiv@b+3,f
  8841  0070'                    l3144:
  8842  0070' 0835'              	movf	___fldiv@sign,w
  8843  0071' 00AC'              	movwf	??___fldiv
  8844  0072' 082C'              	movf	??___fldiv,w
  8845  0073' 04AB'              	iorwf	___fldiv@b+3,f
  8846  0074'                    l3146:
  8847  0074' 082B'              	movf	___fldiv@b+3,w
  8848  0075' 00A7'              	movwf	?___fldiv+3
  8849  0076' 082A'              	movf	___fldiv@b+2,w
  8850  0077' 00A6'              	movwf	?___fldiv+2
  8851  0078' 0829'              	movf	___fldiv@b+1,w
  8852  0079' 00A5'              	movwf	?___fldiv+1
  8853  007A' 0828'              	movf	___fldiv@b,w
  8854  007B' 00A4'              	movwf	?___fldiv
  8855  007C' 2800'              	goto	l696
  8856  007D'                    l3150:
  8857  007D' 083C'              	movf	___fldiv@bexp,w
  8858  007E' 1D03               	btfss	3,2
  8859  007F' 2800'              	goto	u5271
  8860  0080' 2800'              	goto	u5270
  8861  0081'                    u5271:
  8862  0081' 2800'              	goto	l3156
  8863  0082'                    u5270:
  8864  0082'                    l3152:
  8865  0082' 3000               	movlw	0
  8866  0083' 00A7'              	movwf	?___fldiv+3
  8867  0084' 3000               	movlw	0
  8868  0085' 00A6'              	movwf	?___fldiv+2
  8869  0086' 3000               	movlw	0
  8870  0087' 00A5'              	movwf	?___fldiv+1
  8871  0088' 3000               	movlw	0
  8872  0089' 00A4'              	movwf	?___fldiv
  8873  008A' 2800'              	goto	l696
  8874  008B'                    l3156:
  8875  008B' 083C'              	movf	___fldiv@bexp,w
  8876  008C' 00AC'              	movwf	??___fldiv
  8877  008D' 01AD'              	clrf	??___fldiv+1
  8878  008E' 082D'              	movf	??___fldiv+1,w
  8879  008F' 00AF'              	movwf	??___fldiv+3
  8880  0090' 083D'              	movf	___fldiv@aexp,w
  8881  0091' 022C'              	subwf	??___fldiv,w
  8882  0092' 00AE'              	movwf	??___fldiv+2
  8883  0093' 1C03               	skipc
  8884  0094' 03AF'              	decf	??___fldiv+3,f
  8885  0095' 082E'              	movf	??___fldiv+2,w
  8886  0096' 3E7F               	addlw	127
  8887  0097' 00B6'              	movwf	___fldiv@new_exp
  8888  0098' 082F'              	movf	??___fldiv+3,w
  8889  0099' 1803               	skipnc
  8890  009A' 3E01               	addlw	1
  8891  009B' 3E00               	addlw	0
  8892  009C' 00B7'              	movwf	___fldiv@new_exp+1
  8893  009D'                    l3158:
  8894  009D' 082B'              	movf	___fldiv@b+3,w
  8895  009E' 00B4'              	movwf	___fldiv@rem+3
  8896  009F' 082A'              	movf	___fldiv@b+2,w
  8897  00A0' 00B3'              	movwf	___fldiv@rem+2
  8898  00A1' 0829'              	movf	___fldiv@b+1,w
  8899  00A2' 00B2'              	movwf	___fldiv@rem+1
  8900  00A3' 0828'              	movf	___fldiv@b,w
  8901  00A4' 00B1'              	movwf	___fldiv@rem
  8902  00A5'                    l3160:
  8903  00A5' 3000               	movlw	0
  8904  00A6' 00AB'              	movwf	___fldiv@b+3
  8905  00A7' 3000               	movlw	0
  8906  00A8' 00AA'              	movwf	___fldiv@b+2
  8907  00A9' 3000               	movlw	0
  8908  00AA' 00A9'              	movwf	___fldiv@b+1
  8909  00AB' 3000               	movlw	0
  8910  00AC' 00A8'              	movwf	___fldiv@b
  8911  00AD'                    l3162:
  8912  00AD' 3000               	movlw	0
  8913  00AE' 00BB'              	movwf	___fldiv@grs+3
  8914  00AF' 3000               	movlw	0
  8915  00B0' 00BA'              	movwf	___fldiv@grs+2
  8916  00B1' 3000               	movlw	0
  8917  00B2' 00B9'              	movwf	___fldiv@grs+1
  8918  00B3' 3000               	movlw	0
  8919  00B4' 00B8'              	movwf	___fldiv@grs
  8920  00B5'                    l3164:
  8921  00B5' 01BD'              	clrf	___fldiv@aexp
  8922  00B6' 2800'              	goto	l3184
  8923  00B7'                    l3166:
  8924  00B7' 083D'              	movf	___fldiv@aexp,w
  8925  00B8' 1903               	btfsc	3,2
  8926  00B9' 2800'              	goto	u5281
  8927  00BA' 2800'              	goto	u5280
  8928  00BB'                    u5281:
  8929  00BB' 2800'              	goto	l3176
  8930  00BC'                    u5280:
  8931  00BC'                    l3168:
  8932  00BC' 3001               	movlw	1
  8933  00BD' 00AC'              	movwf	??___fldiv
  8934  00BE'                    u5295:
  8935  00BE' 1003               	clrc
  8936  00BF' 0DB1'              	rlf	___fldiv@rem,f
  8937  00C0' 0DB2'              	rlf	___fldiv@rem+1,f
  8938  00C1' 0DB3'              	rlf	___fldiv@rem+2,f
  8939  00C2' 0DB4'              	rlf	___fldiv@rem+3,f
  8940  00C3' 0BAC'              	decfsz	??___fldiv,f
  8941  00C4' 2800'              	goto	u5295
  8942  00C5' 3001               	movlw	1
  8943  00C6' 00AC'              	movwf	??___fldiv
  8944  00C7'                    u5305:
  8945  00C7' 1003               	clrc
  8946  00C8' 0DA8'              	rlf	___fldiv@b,f
  8947  00C9' 0DA9'              	rlf	___fldiv@b+1,f
  8948  00CA' 0DAA'              	rlf	___fldiv@b+2,f
  8949  00CB' 0DAB'              	rlf	___fldiv@b+3,f
  8950  00CC' 0BAC'              	decfsz	??___fldiv,f
  8951  00CD' 2800'              	goto	u5305
  8952  00CE'                    l3170:
  8953  00CE' 1FBB'              	btfss	___fldiv@grs+3,7
  8954  00CF' 2800'              	goto	u5311
  8955  00D0' 2800'              	goto	u5310
  8956  00D1'                    u5311:
  8957  00D1' 2800'              	goto	l3174
  8958  00D2'                    u5310:
  8959  00D2'                    l3172:
  8960  00D2' 1428'              	bsf	___fldiv@b,0
  8961  00D3'                    l3174:
  8962  00D3' 3001               	movlw	1
  8963  00D4' 00AC'              	movwf	??___fldiv
  8964  00D5'                    u5325:
  8965  00D5' 1003               	clrc
  8966  00D6' 0DB8'              	rlf	___fldiv@grs,f
  8967  00D7' 0DB9'              	rlf	___fldiv@grs+1,f
  8968  00D8' 0DBA'              	rlf	___fldiv@grs+2,f
  8969  00D9' 0DBB'              	rlf	___fldiv@grs+3,f
  8970  00DA' 0BAC'              	decfsz	??___fldiv,f
  8971  00DB' 2800'              	goto	u5325
  8972  00DC'                    l3176:
  8973  00DC' 0827'              	movf	___fldiv@a+3,w
  8974  00DD' 0234'              	subwf	___fldiv@rem+3,w
  8975  00DE' 1D03               	skipz
  8976  00DF' 2800'              	goto	u5335
  8977  00E0' 0826'              	movf	___fldiv@a+2,w
  8978  00E1' 0233'              	subwf	___fldiv@rem+2,w
  8979  00E2' 1D03               	skipz
  8980  00E3' 2800'              	goto	u5335
  8981  00E4' 0825'              	movf	___fldiv@a+1,w
  8982  00E5' 0232'              	subwf	___fldiv@rem+1,w
  8983  00E6' 1D03               	skipz
  8984  00E7' 2800'              	goto	u5335
  8985  00E8' 0824'              	movf	___fldiv@a,w
  8986  00E9' 0231'              	subwf	___fldiv@rem,w
  8987  00EA'                    u5335:
  8988  00EA' 1C03               	skipc
  8989  00EB' 2800'              	goto	u5331
  8990  00EC' 2800'              	goto	u5330
  8991  00ED'                    u5331:
  8992  00ED' 2800'              	goto	l3182
  8993  00EE'                    u5330:
  8994  00EE'                    l3178:
  8995  00EE' 173B'              	bsf	___fldiv@grs+3,6
  8996  00EF'                    l3180:
  8997  00EF' 0824'              	movf	___fldiv@a,w
  8998  00F0' 02B1'              	subwf	___fldiv@rem,f
  8999  00F1' 0825'              	movf	___fldiv@a+1,w
  9000  00F2' 1C03               	skipc
  9001  00F3' 0F25'              	incfsz	___fldiv@a+1,w
  9002  00F4' 02B2'              	subwf	___fldiv@rem+1,f
  9003  00F5' 0826'              	movf	___fldiv@a+2,w
  9004  00F6' 1C03               	skipc
  9005  00F7' 0F26'              	incfsz	___fldiv@a+2,w
  9006  00F8' 02B3'              	subwf	___fldiv@rem+2,f
  9007  00F9' 0827'              	movf	___fldiv@a+3,w
  9008  00FA' 1C03               	skipc
  9009  00FB' 0F27'              	incfsz	___fldiv@a+3,w
  9010  00FC' 02B4'              	subwf	___fldiv@rem+3,f
  9011  00FD'                    l3182:
  9012  00FD' 3001               	movlw	1
  9013  00FE' 00AC'              	movwf	??___fldiv
  9014  00FF' 082C'              	movf	??___fldiv,w
  9015  0100' 07BD'              	addwf	___fldiv@aexp,f
  9016  0101'                    l3184:
  9017  0101' 301A               	movlw	26
  9018  0102' 023D'              	subwf	___fldiv@aexp,w
  9019  0103' 1C03               	skipc
  9020  0104' 2800'              	goto	u5341
  9021  0105' 2800'              	goto	u5340
  9022  0106'                    u5341:
  9023  0106' 2800'              	goto	l3166
  9024  0107'                    u5340:
  9025  0107'                    l3186:
  9026  0107' 0834'              	movf	___fldiv@rem+3,w
  9027  0108' 0433'              	iorwf	___fldiv@rem+2,w
  9028  0109' 0432'              	iorwf	___fldiv@rem+1,w
  9029  010A' 0431'              	iorwf	___fldiv@rem,w
  9030  010B' 1903               	skipnz
  9031  010C' 2800'              	goto	u5351
  9032  010D' 2800'              	goto	u5350
  9033  010E'                    u5351:
  9034  010E' 2800'              	goto	l3200
  9035  010F'                    u5350:
  9036  010F'                    l3188:
  9037  010F' 1438'              	bsf	___fldiv@grs,0
  9038  0110' 2800'              	goto	l3200
  9039  0111'                    l3190:
  9040  0111' 3001               	movlw	1
  9041  0112' 00AC'              	movwf	??___fldiv
  9042  0113'                    u5365:
  9043  0113' 1003               	clrc
  9044  0114' 0DA8'              	rlf	___fldiv@b,f
  9045  0115' 0DA9'              	rlf	___fldiv@b+1,f
  9046  0116' 0DAA'              	rlf	___fldiv@b+2,f
  9047  0117' 0DAB'              	rlf	___fldiv@b+3,f
  9048  0118' 0BAC'              	decfsz	??___fldiv,f
  9049  0119' 2800'              	goto	u5365
  9050  011A'                    l3192:
  9051  011A' 1FBB'              	btfss	___fldiv@grs+3,7
  9052  011B' 2800'              	goto	u5371
  9053  011C' 2800'              	goto	u5370
  9054  011D'                    u5371:
  9055  011D' 2800'              	goto	l3196
  9056  011E'                    u5370:
  9057  011E'                    l3194:
  9058  011E' 1428'              	bsf	___fldiv@b,0
  9059  011F'                    l3196:
  9060  011F' 3001               	movlw	1
  9061  0120' 00AC'              	movwf	??___fldiv
  9062  0121'                    u5385:
  9063  0121' 1003               	clrc
  9064  0122' 0DB8'              	rlf	___fldiv@grs,f
  9065  0123' 0DB9'              	rlf	___fldiv@grs+1,f
  9066  0124' 0DBA'              	rlf	___fldiv@grs+2,f
  9067  0125' 0DBB'              	rlf	___fldiv@grs+3,f
  9068  0126' 0BAC'              	decfsz	??___fldiv,f
  9069  0127' 2800'              	goto	u5385
  9070  0128'                    l3198:
  9071  0128' 30FF               	movlw	255
  9072  0129' 07B6'              	addwf	___fldiv@new_exp,f
  9073  012A' 1803               	skipnc
  9074  012B' 0AB7'              	incf	___fldiv@new_exp+1,f
  9075  012C' 30FF               	movlw	255
  9076  012D' 07B7'              	addwf	___fldiv@new_exp+1,f
  9077  012E'                    l3200:
  9078  012E' 1FAA'              	btfss	___fldiv@b+2,7
  9079  012F' 2800'              	goto	u5391
  9080  0130' 2800'              	goto	u5390
  9081  0131'                    u5391:
  9082  0131' 2800'              	goto	l3190
  9083  0132'                    u5390:
  9084  0132'                    l3202:
  9085  0132' 01BD'              	clrf	___fldiv@aexp
  9086  0133'                    l3204:
  9087  0133' 1FBB'              	btfss	___fldiv@grs+3,7
  9088  0134' 2800'              	goto	u5401
  9089  0135' 2800'              	goto	u5400
  9090  0136'                    u5401:
  9091  0136' 2800'              	goto	l3212
  9092  0137'                    u5400:
  9093  0137'                    l3206:
  9094  0137' 30FF               	movlw	255
  9095  0138' 0538'              	andwf	___fldiv@grs,w
  9096  0139' 00AC'              	movwf	??___fldiv
  9097  013A' 30FF               	movlw	255
  9098  013B' 0539'              	andwf	___fldiv@grs+1,w
  9099  013C' 00AD'              	movwf	??___fldiv+1
  9100  013D' 30FF               	movlw	255
  9101  013E' 053A'              	andwf	___fldiv@grs+2,w
  9102  013F' 00AE'              	movwf	??___fldiv+2
  9103  0140' 307F               	movlw	127
  9104  0141' 053B'              	andwf	___fldiv@grs+3,w
  9105  0142' 00AF'              	movwf	??___fldiv+3
  9106  0143' 082F'              	movf	??___fldiv+3,w
  9107  0144' 042E'              	iorwf	??___fldiv+2,w
  9108  0145' 042D'              	iorwf	??___fldiv+1,w
  9109  0146' 042C'              	iorwf	??___fldiv,w
  9110  0147' 1903               	skipnz
  9111  0148' 2800'              	goto	u5411
  9112  0149' 2800'              	goto	u5410
  9113  014A'                    u5411:
  9114  014A' 2800'              	goto	l710
  9115  014B'                    u5410:
  9116  014B'                    l3208:
  9117  014B' 01BD'              	clrf	___fldiv@aexp
  9118  014C' 0ABD'              	incf	___fldiv@aexp,f
  9119  014D' 2800'              	goto	l3212
  9120  014E'                    l710:
  9121  014E' 1C28'              	btfss	___fldiv@b,0
  9122  014F' 2800'              	goto	u5421
  9123  0150' 2800'              	goto	u5420
  9124  0151'                    u5421:
  9125  0151' 2800'              	goto	l3212
  9126  0152'                    u5420:
  9127  0152' 2800'              	goto	l3208
  9128  0153'                    l3212:
  9129  0153' 083D'              	movf	___fldiv@aexp,w
  9130  0154' 1903               	btfsc	3,2
  9131  0155' 2800'              	goto	u5431
  9132  0156' 2800'              	goto	u5430
  9133  0157'                    u5431:
  9134  0157' 2800'              	goto	l3222
  9135  0158'                    u5430:
  9136  0158'                    l3214:
  9137  0158' 3001               	movlw	1
  9138  0159' 07A8'              	addwf	___fldiv@b,f
  9139  015A' 3000               	movlw	0
  9140  015B' 1803               	skipnc
  9141  015C' 3001               	movlw	1
  9142  015D' 07A9'              	addwf	___fldiv@b+1,f
  9143  015E' 3000               	movlw	0
  9144  015F' 1803               	skipnc
  9145  0160' 3001               	movlw	1
  9146  0161' 07AA'              	addwf	___fldiv@b+2,f
  9147  0162' 3000               	movlw	0
  9148  0163' 1803               	skipnc
  9149  0164' 3001               	movlw	1
  9150  0165' 07AB'              	addwf	___fldiv@b+3,f
  9151  0166'                    l3216:
  9152  0166' 1C2B'              	btfss	___fldiv@b+3,0
  9153  0167' 2800'              	goto	u5441
  9154  0168' 2800'              	goto	u5440
  9155  0169'                    u5441:
  9156  0169' 2800'              	goto	l3222
  9157  016A'                    u5440:
  9158  016A'                    l3218:
  9159  016A' 0828'              	movf	___fldiv@b,w
  9160  016B' 00AC'              	movwf	??___fldiv
  9161  016C' 0829'              	movf	___fldiv@b+1,w
  9162  016D' 00AD'              	movwf	??___fldiv+1
  9163  016E' 082A'              	movf	___fldiv@b+2,w
  9164  016F' 00AE'              	movwf	??___fldiv+2
  9165  0170' 082B'              	movf	___fldiv@b+3,w
  9166  0171' 00AF'              	movwf	??___fldiv+3
  9167  0172' 3001               	movlw	1
  9168  0173' 00B0'              	movwf	??___fldiv+4
  9169  0174'                    u5455:
  9170  0174' 0D2F'              	rlf	??___fldiv+3,w
  9171  0175' 0CAF'              	rrf	??___fldiv+3,f
  9172  0176' 0CAE'              	rrf	??___fldiv+2,f
  9173  0177' 0CAD'              	rrf	??___fldiv+1,f
  9174  0178' 0CAC'              	rrf	??___fldiv,f
  9175  0179'                    u5450:
  9176  0179' 0BB0'              	decfsz	??___fldiv+4,f
  9177  017A' 2800'              	goto	u5455
  9178  017B' 082F'              	movf	??___fldiv+3,w
  9179  017C' 00AB'              	movwf	___fldiv@b+3
  9180  017D' 082E'              	movf	??___fldiv+2,w
  9181  017E' 00AA'              	movwf	___fldiv@b+2
  9182  017F' 082D'              	movf	??___fldiv+1,w
  9183  0180' 00A9'              	movwf	___fldiv@b+1
  9184  0181' 082C'              	movf	??___fldiv,w
  9185  0182' 00A8'              	movwf	___fldiv@b
  9186  0183'                    l3220:
  9187  0183' 3001               	movlw	1
  9188  0184' 07B6'              	addwf	___fldiv@new_exp,f
  9189  0185' 1803               	skipnc
  9190  0186' 0AB7'              	incf	___fldiv@new_exp+1,f
  9191  0187' 3000               	movlw	0
  9192  0188' 07B7'              	addwf	___fldiv@new_exp+1,f
  9193  0189'                    l3222:
  9194  0189' 0837'              	movf	___fldiv@new_exp+1,w
  9195  018A' 3A80               	xorlw	128
  9196  018B' 00FF               	movwf	btemp+1
  9197  018C' 3080               	movlw	128
  9198  018D' 027F               	subwf	btemp+1,w
  9199  018E' 1D03               	skipz
  9200  018F' 2800'              	goto	u5465
  9201  0190' 30FF               	movlw	255
  9202  0191' 0236'              	subwf	___fldiv@new_exp,w
  9203  0192'                    u5465:
  9204  0192' 1C03               	skipc
  9205  0193' 2800'              	goto	u5461
  9206  0194' 2800'              	goto	u5460
  9207  0195'                    u5461:
  9208  0195' 2800'              	goto	l3226
  9209  0196'                    u5460:
  9210  0196'                    l3224:
  9211  0196' 30FF               	movlw	255
  9212  0197' 1283               	bcf	3,5	;RP0=0, select bank0
  9213  0198' 1303               	bcf	3,6	;RP1=0, select bank0
  9214  0199' 00B6'              	movwf	___fldiv@new_exp
  9215  019A' 3000               	movlw	0
  9216  019B' 00B7'              	movwf	___fldiv@new_exp+1
  9217  019C' 3000               	movlw	0
  9218  019D' 00AB'              	movwf	___fldiv@b+3
  9219  019E' 3000               	movlw	0
  9220  019F' 00AA'              	movwf	___fldiv@b+2
  9221  01A0' 3000               	movlw	0
  9222  01A1' 00A9'              	movwf	___fldiv@b+1
  9223  01A2' 3000               	movlw	0
  9224  01A3' 00A8'              	movwf	___fldiv@b
  9225  01A4'                    l3226:
  9226  01A4' 1283               	bcf	3,5	;RP0=0, select bank0
  9227  01A5' 1303               	bcf	3,6	;RP1=0, select bank0
  9228  01A6' 0837'              	movf	___fldiv@new_exp+1,w
  9229  01A7' 3A80               	xorlw	128
  9230  01A8' 00FF               	movwf	btemp+1
  9231  01A9' 3080               	movlw	128
  9232  01AA' 027F               	subwf	btemp+1,w
  9233  01AB' 1D03               	skipz
  9234  01AC' 2800'              	goto	u5475
  9235  01AD' 3001               	movlw	1
  9236  01AE' 0236'              	subwf	___fldiv@new_exp,w
  9237  01AF'                    u5475:
  9238  01AF' 1803               	skipnc
  9239  01B0' 2800'              	goto	u5471
  9240  01B1' 2800'              	goto	u5470
  9241  01B2'                    u5471:
  9242  01B2' 2800'              	goto	l716
  9243  01B3'                    u5470:
  9244  01B3'                    l3228:
  9245  01B3' 1283               	bcf	3,5	;RP0=0, select bank0
  9246  01B4' 1303               	bcf	3,6	;RP1=0, select bank0
  9247  01B5' 01B6'              	clrf	___fldiv@new_exp
  9248  01B6' 01B7'              	clrf	___fldiv@new_exp+1
  9249  01B7'                    l3230:
  9250  01B7' 3000               	movlw	0
  9251  01B8' 00AB'              	movwf	___fldiv@b+3
  9252  01B9' 3000               	movlw	0
  9253  01BA' 00AA'              	movwf	___fldiv@b+2
  9254  01BB' 3000               	movlw	0
  9255  01BC' 00A9'              	movwf	___fldiv@b+1
  9256  01BD' 3000               	movlw	0
  9257  01BE' 00A8'              	movwf	___fldiv@b
  9258  01BF'                    l3232:
  9259  01BF' 01B5'              	clrf	___fldiv@sign
  9260  01C0'                    l716:
  9261  01C0' 1283               	bcf	3,5	;RP0=0, select bank0
  9262  01C1' 1303               	bcf	3,6	;RP1=0, select bank0
  9263  01C2' 0836'              	movf	___fldiv@new_exp,w
  9264  01C3' 00AC'              	movwf	??___fldiv
  9265  01C4' 082C'              	movf	??___fldiv,w
  9266  01C5' 00BC'              	movwf	___fldiv@bexp
  9267  01C6'                    l3234:
  9268  01C6' 1C3C'              	btfss	___fldiv@bexp,0
  9269  01C7' 2800'              	goto	u5481
  9270  01C8' 2800'              	goto	u5480
  9271  01C9'                    u5481:
  9272  01C9' 2800'              	goto	l3238
  9273  01CA'                    u5480:
  9274  01CA'                    l3236:
  9275  01CA' 17AA'              	bsf	___fldiv@b+2,7
  9276  01CB' 2800'              	goto	l718
  9277  01CC'                    l3238:
  9278  01CC' 307F               	movlw	127
  9279  01CD' 00AC'              	movwf	??___fldiv
  9280  01CE' 082C'              	movf	??___fldiv,w
  9281  01CF' 05AA'              	andwf	___fldiv@b+2,f
  9282  01D0'                    l718:
  9283  01D0' 083C'              	movf	___fldiv@bexp,w
  9284  01D1' 00AC'              	movwf	??___fldiv
  9285  01D2' 1003               	clrc
  9286  01D3' 0C2C'              	rrf	??___fldiv,w
  9287  01D4' 00AD'              	movwf	??___fldiv+1
  9288  01D5' 082D'              	movf	??___fldiv+1,w
  9289  01D6' 00AB'              	movwf	___fldiv@b+3
  9290  01D7' 0835'              	movf	___fldiv@sign,w
  9291  01D8' 00AC'              	movwf	??___fldiv
  9292  01D9' 082C'              	movf	??___fldiv,w
  9293  01DA' 04AB'              	iorwf	___fldiv@b+3,f
  9294  01DB' 2800'              	goto	l3146
  9295  01DC'                    l696:
  9296  01DC' 0008               	return
  9297  01DD'                    __end_of___fldiv:
  9298                           
  9299                           	psect	text27
  9300  0000'                    __ptext27:	
  9301 ;; *************** function _ISR *****************
  9302 ;; Defined at:
  9303 ;;		line 65 in file "main_final_lab3.c"
  9304 ;; Parameters:    Size  Location     Type
  9305 ;;		None
  9306 ;; Auto vars:     Size  Location     Type
  9307 ;;		None
  9308 ;; Return value:  Size  Location     Type
  9309 ;;                  1    wreg      void 
  9310 ;; Registers used:
  9311 ;;		wreg, status,2, status,0
  9312 ;; Tracked objects:
  9313 ;;		On entry : 0/0
  9314 ;;		On exit  : 0/0
  9315 ;;		Unchanged: 0/0
  9316 ;; Data sizes:     COMMON   BANK0   BANK1   BANK3   BANK2
  9317 ;;      Params:         0       0       0       0       0
  9318 ;;      Locals:         0       0       0       0       0
  9319 ;;      Temps:          3       0       0       0       0
  9320 ;;      Totals:         3       0       0       0       0
  9321 ;;Total ram usage:        3 bytes
  9322 ;; Hardware stack levels used:    1
  9323 ;; This function calls:
  9324 ;;		Nothing
  9325 ;; This function is called by:
  9326 ;;		Interrupt level 1
  9327 ;; This function uses a non-reentrant model
  9328 ;;
  9329                           
  9330                           
  9331                           ;psect for function _ISR
  9332  0000'                    _ISR:
  9333  0000'                    i1l3636:
  9334                           
  9335                           ;main_final_lab3.c: 66:     if(RCIF == 1){
  9336  0000' 1283               	bcf	3,5	;RP0=0, select bank0
  9337  0001' 1303               	bcf	3,6	;RP1=0, select bank0
  9338  0002' 1E8C               	btfss	12,5	;volatile
  9339  0003' 2800'              	goto	u618_21
  9340  0004' 2800'              	goto	u618_20
  9341  0005'                    u618_21:
  9342  0005' 2800'              	goto	i1l83
  9343  0006'                    u618_20:
  9344  0006'                    i1l3638:
  9345                           
  9346                           ;main_final_lab3.c: 67:         data_recive = RCREG;
  9347  0006' 081A               	movf	26,w	;volatile
  9348  0007' 0080'              	movwf	??_ISR
  9349  0008' 0800'              	movf	??_ISR,w
  9350  0009' 0080'              	movwf	_data_recive
  9351  000A'                    i1l3640:
  9352                           
  9353                           ;main_final_lab3.c: 70:         if (data_recive == '+'){
  9354  000A' 302B               	movlw	43
  9355  000B' 0600'              	xorwf	_data_recive,w
  9356  000C' 1D03               	btfss	3,2
  9357  000D' 2800'              	goto	u619_21
  9358  000E' 2800'              	goto	u619_20
  9359  000F'                    u619_21:
  9360  000F' 2800'              	goto	i1l3646
  9361  0010'                    u619_20:
  9362  0010'                    i1l3642:
  9363                           
  9364                           ;main_final_lab3.c: 71:             cont++;
  9365  0010' 3001               	movlw	1
  9366  0011' 0080'              	movwf	??_ISR
  9367  0012' 0800'              	movf	??_ISR,w
  9368  0013' 1683               	bsf	3,5	;RP0=1, select bank1
  9369  0014' 1303               	bcf	3,6	;RP1=0, select bank1
  9370  0015' 0780'              	addwf	_cont^(0+128),f
  9371  0016'                    i1l3644:
  9372                           
  9373                           ;main_final_lab3.c: 72:             PORTB = cont;
  9374  0016' 0800'              	movf	_cont^(0+128),w
  9375  0017' 1283               	bcf	3,5	;RP0=0, select bank0
  9376  0018' 1303               	bcf	3,6	;RP1=0, select bank0
  9377  0019' 0086               	movwf	6	;volatile
  9378                           
  9379                           ;main_final_lab3.c: 73:         }
  9380  001A' 2800'              	goto	i1l3650
  9381  001B'                    i1l3646:
  9382  001B' 302D               	movlw	45
  9383  001C' 0600'              	xorwf	_data_recive,w
  9384  001D' 1D03               	btfss	3,2
  9385  001E' 2800'              	goto	u620_21
  9386  001F' 2800'              	goto	u620_20
  9387  0020'                    u620_21:
  9388  0020' 2800'              	goto	i1l3650
  9389  0021'                    u620_20:
  9390  0021'                    i1l3648:
  9391                           
  9392                           ;main_final_lab3.c: 75:             cont--;
  9393  0021' 3001               	movlw	1
  9394  0022' 1683               	bsf	3,5	;RP0=1, select bank1
  9395  0023' 1303               	bcf	3,6	;RP1=0, select bank1
  9396  0024' 0280'              	subwf	_cont^(0+128),f
  9397  0025'                    i1l3650:
  9398                           
  9399                           ;main_final_lab3.c: 77:         data_recive = 0;
  9400  0025' 0180'              	clrf	_data_recive
  9401  0026'                    i1l83:
  9402  0026' 0802'              	movf	??_ISR+2,w
  9403  0027' 008A               	movwf	10
  9404  0028' 0E01'              	swapf	??_ISR+1,w
  9405  0029' 0083               	movwf	3
  9406  002A' 0EFE               	swapf	btemp,f
  9407  002B' 0E7E               	swapf	btemp,w
  9408  002C' 0009               	retfie
  9409  002D'                    __end_of_ISR:
  9410  007E                     btemp	set	126	;btemp
  9411  007E                     wtemp0	set	126
  9412                           
  9413                           	psect	intentry
  9414  0000'                    __pintentry:	
  9415                           ;incstack = 0
  9416                           ; Regs used in _ISR: [wreg+status,2+status,0]
  9417                           
  9418  0000'                    interrupt_function:
  9419  007E                     saved_w	set	btemp
  9420  0000' 00FE               	movwf	btemp
  9421  0001' 0E03               	swapf	3,w
  9422  0002' 0081'              	movwf	??_ISR+1
  9423  0003' 080A               	movf	10,w
  9424  0004' 0082'              	movwf	??_ISR+2
  9425  0005' 120A' 118A' 2800'  	ljmp	_ISR
  9426                           
  9427                           	psect	config
  9428                           
  9429                           ;Config register CONFIG1 @ 0x2007
  9430                           ;	Oscillator Selection bits
  9431                           ;	FOSC = HS, HS oscillator: High-speed crystal/resonator on RA6/OSC2/CLKOUT and RA7/OSC1
      +                          /CLKIN
  9432                           ;	Watchdog Timer Enable bit
  9433                           ;	WDTE = OFF, WDT disabled and can be enabled by SWDTEN bit of the WDTCON register
  9434                           ;	Power-up Timer Enable bit
  9435                           ;	PWRTE = OFF, PWRT disabled
  9436                           ;	RE3/MCLR pin function select bit
  9437                           ;	MCLRE = OFF, RE3/MCLR pin function is digital input, MCLR internally tied to VDD
  9438                           ;	Code Protection bit
  9439                           ;	CP = OFF, Program memory code protection is disabled
  9440                           ;	Data Code Protection bit
  9441                           ;	CPD = OFF, Data memory code protection is disabled
  9442                           ;	Brown Out Reset Selection bits
  9443                           ;	BOREN = OFF, BOR disabled
  9444                           ;	Internal External Switchover bit
  9445                           ;	IESO = OFF, Internal/External Switchover mode is disabled
  9446                           ;	Fail-Safe Clock Monitor Enabled bit
  9447                           ;	FCMEN = OFF, Fail-Safe Clock Monitor is disabled
  9448                           ;	Low Voltage Programming Enable bit
  9449                           ;	LVP = OFF, RB3 pin has digital I/O, HV on MCLR must be used for programming
  9450                           ;	In-Circuit Debugger Mode bit
  9451                           ;	DEBUG = 0x1, unprogrammed default
  9452  2007                     	org	8199
  9453  2007  20D2               	dw	8402
  9454                           
  9455                           ;Config register CONFIG2 @ 0x2008
  9456                           ;	Brown-out Reset Selection bit
  9457                           ;	BOR4V = BOR40V, Brown-out Reset set to 4.0V
  9458                           ;	Flash Program Memory Self Write Enable bits
  9459                           ;	WRT = OFF, Write protection off
  9460  2008                     	org	8200
  9461  2008  3FFF               	dw	16383
  9462                           
  9463                           	psect	text1_split_1
  9464  0000'                    u7260:
  9465  0000'                    l4160:
  9466  0000' 1683               	bsf	3,5	;RP0=1, select bank1
  9467  0001' 1303               	bcf	3,6	;RP1=0, select bank1
  9468  0002' 0800'              	movf	(sprintf@fval+3)^(0+128),w
  9469  0003' 1283               	bcf	3,5	;RP0=0, select bank0
  9470  0004' 1303               	bcf	3,6	;RP1=0, select bank0
  9471  0005' 0083'              	movwf	___fleq@ff1+3
  9472  0006' 1683               	bsf	3,5	;RP0=1, select bank1
  9473  0007' 1303               	bcf	3,6	;RP1=0, select bank1
  9474  0008' 0800'              	movf	(sprintf@fval+2)^(0+128),w
  9475  0009' 1283               	bcf	3,5	;RP0=0, select bank0
  9476  000A' 1303               	bcf	3,6	;RP1=0, select bank0
  9477  000B' 0082'              	movwf	___fleq@ff1+2
  9478  000C' 1683               	bsf	3,5	;RP0=1, select bank1
  9479  000D' 1303               	bcf	3,6	;RP1=0, select bank1
  9480  000E' 0800'              	movf	(sprintf@fval+1)^(0+128),w
  9481  000F' 1283               	bcf	3,5	;RP0=0, select bank0
  9482  0010' 1303               	bcf	3,6	;RP1=0, select bank0
  9483  0011' 0081'              	movwf	___fleq@ff1+1
  9484  0012' 1683               	bsf	3,5	;RP0=1, select bank1
  9485  0013' 1303               	bcf	3,6	;RP1=0, select bank1
  9486  0014' 0800'              	movf	sprintf@fval^(0+128),w
  9487  0015' 1283               	bcf	3,5	;RP0=0, select bank0
  9488  0016' 1303               	bcf	3,6	;RP1=0, select bank0
  9489  0017' 0080'              	movwf	___fleq@ff1
  9490  0018' 3000               	movlw	0
  9491  0019' 0087'              	movwf	___fleq@ff2+3
  9492  001A' 3000               	movlw	0
  9493  001B' 0086'              	movwf	___fleq@ff2+2
  9494  001C' 3000               	movlw	0
  9495  001D' 0085'              	movwf	___fleq@ff2+1
  9496  001E' 3000               	movlw	0
  9497  001F' 0084'              	movwf	___fleq@ff2
  9498  0020' 120A' 118A' 2000' 120A' 118A' 	fcall	___fleq
  9499  0025' 1803               	btfsc	3,0
  9500  0026' 2800'              	goto	u7271
  9501  0027' 2800'              	goto	u7270
  9502  0028'                    u7271:
  9503  0028' 2800'              	goto	l4180
  9504  0029'                    u7270:
  9505  0029'                    l4162:
  9506  0029' 1683               	bsf	3,5	;RP0=1, select bank1
  9507  002A' 1303               	bcf	3,6	;RP1=0, select bank1
  9508  002B' 0800'              	movf	(sprintf@fval+3)^(0+128),w
  9509  002C' 1283               	bcf	3,5	;RP0=0, select bank0
  9510  002D' 1303               	bcf	3,6	;RP1=0, select bank0
  9511  002E' 00BA'              	movwf	___fltol@f1+3
  9512  002F' 1683               	bsf	3,5	;RP0=1, select bank1
  9513  0030' 1303               	bcf	3,6	;RP1=0, select bank1
  9514  0031' 0800'              	movf	(sprintf@fval+2)^(0+128),w
  9515  0032' 1283               	bcf	3,5	;RP0=0, select bank0
  9516  0033' 1303               	bcf	3,6	;RP1=0, select bank0
  9517  0034' 00B9'              	movwf	___fltol@f1+2
  9518  0035' 1683               	bsf	3,5	;RP0=1, select bank1
  9519  0036' 1303               	bcf	3,6	;RP1=0, select bank1
  9520  0037' 0800'              	movf	(sprintf@fval+1)^(0+128),w
  9521  0038' 1283               	bcf	3,5	;RP0=0, select bank0
  9522  0039' 1303               	bcf	3,6	;RP1=0, select bank0
  9523  003A' 00B8'              	movwf	___fltol@f1+1
  9524  003B' 1683               	bsf	3,5	;RP0=1, select bank1
  9525  003C' 1303               	bcf	3,6	;RP1=0, select bank1
  9526  003D' 0800'              	movf	sprintf@fval^(0+128),w
  9527  003E' 1283               	bcf	3,5	;RP0=0, select bank0
  9528  003F' 1303               	bcf	3,6	;RP1=0, select bank0
  9529  0040' 00B7'              	movwf	___fltol@f1
  9530  0041' 120A' 118A' 2000' 120A' 118A' 	fcall	___fltol
  9531  0046' 1283               	bcf	3,5	;RP0=0, select bank0
  9532  0047' 1303               	bcf	3,6	;RP1=0, select bank0
  9533  0048' 083A'              	movf	?___fltol+3,w
  9534  0049' 0439'              	iorwf	?___fltol+2,w
  9535  004A' 0438'              	iorwf	?___fltol+1,w
  9536  004B' 0437'              	iorwf	?___fltol,w
  9537  004C' 1D03               	skipz
  9538  004D' 2800'              	goto	u7281
  9539  004E' 2800'              	goto	u7280
  9540  004F'                    u7281:
  9541  004F' 2800'              	goto	l4180
  9542  0050'                    u7280:
  9543  0050'                    l4164:
  9544  0050' 1683               	bsf	3,5	;RP0=1, select bank1
  9545  0051' 1303               	bcf	3,6	;RP1=0, select bank1
  9546  0052' 0800'              	movf	(sprintf@eexp+1)^(0+128),w
  9547  0053' 3A80               	xorlw	128
  9548  0054' 00FF               	movwf	btemp+1
  9549  0055' 3080               	movlw	128
  9550  0056' 027F               	subwf	btemp+1,w
  9551  0057' 1D03               	skipz
  9552  0058' 2800'              	goto	u7295
  9553  0059' 3002               	movlw	2
  9554  005A' 0200'              	subwf	sprintf@eexp^(0+128),w
  9555  005B'                    u7295:
  9556  005B' 1C03               	skipc
  9557  005C' 2800'              	goto	u7291
  9558  005D' 2800'              	goto	u7290
  9559  005E'                    u7291:
  9560  005E' 2800'              	goto	l4180
  9561  005F'                    u7290:
  9562  005F'                    l4166:
  9563                           
  9564                           ;C:\Program Files\Microchip\xc8\v2.31\pic\sources\c90\common\doprnt.c: 1146:      if(tmp
      +                          val.integ < 4.294967296){
  9565  005F' 1683               	bsf	3,5	;RP0=1, select bank1
  9566  0060' 1303               	bcf	3,6	;RP1=0, select bank1
  9567  0061' 0800'              	movf	(sprintf@tmpval+3)^(0+128),w
  9568  0062' 1283               	bcf	3,5	;RP0=0, select bank0
  9569  0063' 1303               	bcf	3,6	;RP1=0, select bank0
  9570  0064' 0083'              	movwf	___flge@ff1+3
  9571  0065' 1683               	bsf	3,5	;RP0=1, select bank1
  9572  0066' 1303               	bcf	3,6	;RP1=0, select bank1
  9573  0067' 0800'              	movf	(sprintf@tmpval+2)^(0+128),w
  9574  0068' 1283               	bcf	3,5	;RP0=0, select bank0
  9575  0069' 1303               	bcf	3,6	;RP1=0, select bank0
  9576  006A' 0082'              	movwf	___flge@ff1+2
  9577  006B' 1683               	bsf	3,5	;RP0=1, select bank1
  9578  006C' 1303               	bcf	3,6	;RP1=0, select bank1
  9579  006D' 0800'              	movf	(sprintf@tmpval+1)^(0+128),w
  9580  006E' 1283               	bcf	3,5	;RP0=0, select bank0
  9581  006F' 1303               	bcf	3,6	;RP1=0, select bank0
  9582  0070' 0081'              	movwf	___flge@ff1+1
  9583  0071' 1683               	bsf	3,5	;RP0=1, select bank1
  9584  0072' 1303               	bcf	3,6	;RP1=0, select bank1
  9585  0073' 0800'              	movf	sprintf@tmpval^(0+128),w
  9586  0074' 1283               	bcf	3,5	;RP0=0, select bank0
  9587  0075' 1303               	bcf	3,6	;RP1=0, select bank0
  9588  0076' 0080'              	movwf	___flge@ff1
  9589  0077' 3040               	movlw	64
  9590  0078' 0087'              	movwf	___flge@ff2+3
  9591  0079' 3089               	movlw	137
  9592  007A' 0086'              	movwf	___flge@ff2+2
  9593  007B' 3070               	movlw	112
  9594  007C' 0085'              	movwf	___flge@ff2+1
  9595  007D' 305F               	movlw	95
  9596  007E' 0084'              	movwf	___flge@ff2
  9597  007F' 120A' 118A' 2000' 120A' 118A' 	fcall	___flge
  9598  0084' 1803               	btfsc	3,0
  9599  0085' 2800'              	goto	u7301
  9600  0086' 2800'              	goto	u7300
  9601  0087'                    u7301:
  9602  0087' 2800'              	goto	l4170
  9603  0088'                    u7300:
  9604  0088'                    l4168:
  9605                           
  9606                           ;C:\Program Files\Microchip\xc8\v2.31\pic\sources\c90\common\doprnt.c: 1147:       eexp 
      +                          -= (sizeof dpowers/sizeof dpowers[0])-1;
  9607  0088' 30F7               	movlw	247
  9608  0089' 1683               	bsf	3,5	;RP0=1, select bank1
  9609  008A' 1303               	bcf	3,6	;RP1=0, select bank1
  9610  008B' 0780'              	addwf	sprintf@eexp^(0+128),f
  9611  008C' 1803               	skipnc
  9612  008D' 0A80'              	incf	(sprintf@eexp+1)^(0+128),f
  9613  008E' 30FF               	movlw	255
  9614  008F' 0780'              	addwf	(sprintf@eexp+1)^(0+128),f
  9615                           
  9616                           ;C:\Program Files\Microchip\xc8\v2.31\pic\sources\c90\common\doprnt.c: 1148:      }else{
  9617  0090' 2800'              	goto	l4172
  9618  0091'                    l4170:
  9619                           
  9620                           ;C:\Program Files\Microchip\xc8\v2.31\pic\sources\c90\common\doprnt.c: 1149:       eexp 
      +                          -= (sizeof dpowers/sizeof dpowers[0])-2;
  9621  0091' 30F8               	movlw	248
  9622  0092' 1683               	bsf	3,5	;RP0=1, select bank1
  9623  0093' 1303               	bcf	3,6	;RP1=0, select bank1
  9624  0094' 0780'              	addwf	sprintf@eexp^(0+128),f
  9625  0095' 1803               	skipnc
  9626  0096' 0A80'              	incf	(sprintf@eexp+1)^(0+128),f
  9627  0097' 30FF               	movlw	255
  9628  0098' 0780'              	addwf	(sprintf@eexp+1)^(0+128),f
  9629  0099'                    l4172:
  9630                           
  9631                           ;C:\Program Files\Microchip\xc8\v2.31\pic\sources\c90\common\doprnt.c: 1152:      val = 
      +                          ((sizeof(double)== 3) ? _tdiv_to_l_(fval,tmpval.integ) : _div_to_l_(fval,tmpval.integ));
  9632  0099' 0800'              	movf	sprintf@eexp^(0+128),w
  9633  009A' 120A' 118A' 2000' 120A' 118A' 	fcall	_scale
  9634  009F' 1283               	bcf	3,5	;RP0=0, select bank0
  9635  00A0' 1303               	bcf	3,6	;RP1=0, select bank0
  9636  00A1' 0827'              	movf	?_scale+3,w
  9637  00A2' 1683               	bsf	3,5	;RP0=1, select bank1
  9638  00A3' 1303               	bcf	3,6	;RP1=0, select bank1
  9639  00A4' 0080'              	movwf	(sprintf@tmpval+3)^(0+128)
  9640  00A5' 1283               	bcf	3,5	;RP0=0, select bank0
  9641  00A6' 1303               	bcf	3,6	;RP1=0, select bank0
  9642  00A7' 0826'              	movf	?_scale+2,w
  9643  00A8' 1683               	bsf	3,5	;RP0=1, select bank1
  9644  00A9' 1303               	bcf	3,6	;RP1=0, select bank1
  9645  00AA' 0080'              	movwf	(sprintf@tmpval+2)^(0+128)
  9646  00AB' 1283               	bcf	3,5	;RP0=0, select bank0
  9647  00AC' 1303               	bcf	3,6	;RP1=0, select bank0
  9648  00AD' 0825'              	movf	?_scale+1,w
  9649  00AE' 1683               	bsf	3,5	;RP0=1, select bank1
  9650  00AF' 1303               	bcf	3,6	;RP1=0, select bank1
  9651  00B0' 0080'              	movwf	(sprintf@tmpval+1)^(0+128)
  9652  00B1' 1283               	bcf	3,5	;RP0=0, select bank0
  9653  00B2' 1303               	bcf	3,6	;RP1=0, select bank0
  9654  00B3' 0824'              	movf	?_scale,w
  9655  00B4' 1683               	bsf	3,5	;RP0=1, select bank1
  9656  00B5' 1303               	bcf	3,6	;RP1=0, select bank1
  9657  00B6' 0080'              	movwf	sprintf@tmpval^(0+128)
  9658  00B7'                    l4174:
  9659  00B7' 0800'              	movf	(sprintf@fval+3)^(0+128),w
  9660  00B8' 1283               	bcf	3,5	;RP0=0, select bank0
  9661  00B9' 1303               	bcf	3,6	;RP1=0, select bank0
  9662  00BA' 0083'              	movwf	__div_to_l_@f1+3
  9663  00BB' 1683               	bsf	3,5	;RP0=1, select bank1
  9664  00BC' 1303               	bcf	3,6	;RP1=0, select bank1
  9665  00BD' 0800'              	movf	(sprintf@fval+2)^(0+128),w
  9666  00BE' 1283               	bcf	3,5	;RP0=0, select bank0
  9667  00BF' 1303               	bcf	3,6	;RP1=0, select bank0
  9668  00C0' 0082'              	movwf	__div_to_l_@f1+2
  9669  00C1' 1683               	bsf	3,5	;RP0=1, select bank1
  9670  00C2' 1303               	bcf	3,6	;RP1=0, select bank1
  9671  00C3' 0800'              	movf	(sprintf@fval+1)^(0+128),w
  9672  00C4' 1283               	bcf	3,5	;RP0=0, select bank0
  9673  00C5' 1303               	bcf	3,6	;RP1=0, select bank0
  9674  00C6' 0081'              	movwf	__div_to_l_@f1+1
  9675  00C7' 1683               	bsf	3,5	;RP0=1, select bank1
  9676  00C8' 1303               	bcf	3,6	;RP1=0, select bank1
  9677  00C9' 0800'              	movf	sprintf@fval^(0+128),w
  9678  00CA' 1283               	bcf	3,5	;RP0=0, select bank0
  9679  00CB' 1303               	bcf	3,6	;RP1=0, select bank0
  9680  00CC' 0080'              	movwf	__div_to_l_@f1
  9681  00CD' 1683               	bsf	3,5	;RP0=1, select bank1
  9682  00CE' 1303               	bcf	3,6	;RP1=0, select bank1
  9683  00CF' 0800'              	movf	(sprintf@tmpval+3)^(0+128),w
  9684  00D0' 1283               	bcf	3,5	;RP0=0, select bank0
  9685  00D1' 1303               	bcf	3,6	;RP1=0, select bank0
  9686  00D2' 0087'              	movwf	__div_to_l_@f2+3
  9687  00D3' 1683               	bsf	3,5	;RP0=1, select bank1
  9688  00D4' 1303               	bcf	3,6	;RP1=0, select bank1
  9689  00D5' 0800'              	movf	(sprintf@tmpval+2)^(0+128),w
  9690  00D6' 1283               	bcf	3,5	;RP0=0, select bank0
  9691  00D7' 1303               	bcf	3,6	;RP1=0, select bank0
  9692  00D8' 0086'              	movwf	__div_to_l_@f2+2
  9693  00D9' 1683               	bsf	3,5	;RP0=1, select bank1
  9694  00DA' 1303               	bcf	3,6	;RP1=0, select bank1
  9695  00DB' 0800'              	movf	(sprintf@tmpval+1)^(0+128),w
  9696  00DC' 1283               	bcf	3,5	;RP0=0, select bank0
  9697  00DD' 1303               	bcf	3,6	;RP1=0, select bank0
  9698  00DE' 0085'              	movwf	__div_to_l_@f2+1
  9699  00DF' 1683               	bsf	3,5	;RP0=1, select bank1
  9700  00E0' 1303               	bcf	3,6	;RP1=0, select bank1
  9701  00E1' 0800'              	movf	sprintf@tmpval^(0+128),w
  9702  00E2' 1283               	bcf	3,5	;RP0=0, select bank0
  9703  00E3' 1303               	bcf	3,6	;RP1=0, select bank0
  9704  00E4' 0084'              	movwf	__div_to_l_@f2
  9705  00E5' 120A' 118A' 2000' 120A' 118A' 	fcall	__div_to_l_
  9706  00EA' 1283               	bcf	3,5	;RP0=0, select bank0
  9707  00EB' 1303               	bcf	3,6	;RP1=0, select bank0
  9708  00EC' 0803'              	movf	?__div_to_l_+3,w
  9709  00ED' 1683               	bsf	3,5	;RP0=1, select bank1
  9710  00EE' 1303               	bcf	3,6	;RP1=0, select bank1
  9711  00EF' 0080'              	movwf	(sprintf@val+3)^(0+128)
  9712  00F0' 1283               	bcf	3,5	;RP0=0, select bank0
  9713  00F1' 1303               	bcf	3,6	;RP1=0, select bank0
  9714  00F2' 0802'              	movf	?__div_to_l_+2,w
  9715  00F3' 1683               	bsf	3,5	;RP0=1, select bank1
  9716  00F4' 1303               	bcf	3,6	;RP1=0, select bank1
  9717  00F5' 0080'              	movwf	(sprintf@val+2)^(0+128)
  9718  00F6' 1283               	bcf	3,5	;RP0=0, select bank0
  9719  00F7' 1303               	bcf	3,6	;RP1=0, select bank0
  9720  00F8' 0801'              	movf	?__div_to_l_+1,w
  9721  00F9' 1683               	bsf	3,5	;RP0=1, select bank1
  9722  00FA' 1303               	bcf	3,6	;RP1=0, select bank1
  9723  00FB' 0080'              	movwf	(sprintf@val+1)^(0+128)
  9724  00FC' 1283               	bcf	3,5	;RP0=0, select bank0
  9725  00FD' 1303               	bcf	3,6	;RP1=0, select bank0
  9726  00FE' 0800'              	movf	?__div_to_l_,w
  9727  00FF' 1683               	bsf	3,5	;RP0=1, select bank1
  9728  0100' 1303               	bcf	3,6	;RP1=0, select bank1
  9729  0101' 0080'              	movwf	sprintf@val^(0+128)
  9730  0102'                    l4178:
  9731                           
  9732                           ;C:\Program Files\Microchip\xc8\v2.31\pic\sources\c90\common\doprnt.c: 1155:      fval =
      +                           0.0;
  9733  0102' 3000               	movlw	0
  9734  0103' 0080'              	movwf	(sprintf@fval+3)^(0+128)
  9735  0104' 3000               	movlw	0
  9736  0105' 0080'              	movwf	(sprintf@fval+2)^(0+128)
  9737  0106' 3000               	movlw	0
  9738  0107' 0080'              	movwf	(sprintf@fval+1)^(0+128)
  9739  0108' 3000               	movlw	0
  9740  0109' 0080'              	movwf	sprintf@fval^(0+128)
  9741                           
  9742                           ;C:\Program Files\Microchip\xc8\v2.31\pic\sources\c90\common\doprnt.c: 1156:     } else 
      +                          {
  9743  010A' 2800'              	goto	l4186
  9744  010B'                    l4180:
  9745                           
  9746                           ;C:\Program Files\Microchip\xc8\v2.31\pic\sources\c90\common\doprnt.c: 1157:      val = 
      +                          (unsigned long)fval;
  9747  010B' 1683               	bsf	3,5	;RP0=1, select bank1
  9748  010C' 1303               	bcf	3,6	;RP1=0, select bank1
  9749  010D' 0800'              	movf	(sprintf@fval+3)^(0+128),w
  9750  010E' 1283               	bcf	3,5	;RP0=0, select bank0
  9751  010F' 1303               	bcf	3,6	;RP1=0, select bank0
  9752  0110' 00BA'              	movwf	___fltol@f1+3
  9753  0111' 1683               	bsf	3,5	;RP0=1, select bank1
  9754  0112' 1303               	bcf	3,6	;RP1=0, select bank1
  9755  0113' 0800'              	movf	(sprintf@fval+2)^(0+128),w
  9756  0114' 1283               	bcf	3,5	;RP0=0, select bank0
  9757  0115' 1303               	bcf	3,6	;RP1=0, select bank0
  9758  0116' 00B9'              	movwf	___fltol@f1+2
  9759  0117' 1683               	bsf	3,5	;RP0=1, select bank1
  9760  0118' 1303               	bcf	3,6	;RP1=0, select bank1
  9761  0119' 0800'              	movf	(sprintf@fval+1)^(0+128),w
  9762  011A' 1283               	bcf	3,5	;RP0=0, select bank0
  9763  011B' 1303               	bcf	3,6	;RP1=0, select bank0
  9764  011C' 00B8'              	movwf	___fltol@f1+1
  9765  011D' 1683               	bsf	3,5	;RP0=1, select bank1
  9766  011E' 1303               	bcf	3,6	;RP1=0, select bank1
  9767  011F' 0800'              	movf	sprintf@fval^(0+128),w
  9768  0120' 1283               	bcf	3,5	;RP0=0, select bank0
  9769  0121' 1303               	bcf	3,6	;RP1=0, select bank0
  9770  0122' 00B7'              	movwf	___fltol@f1
  9771  0123' 120A' 118A' 2000' 120A' 118A' 	fcall	___fltol
  9772  0128' 1283               	bcf	3,5	;RP0=0, select bank0
  9773  0129' 1303               	bcf	3,6	;RP1=0, select bank0
  9774  012A' 083A'              	movf	?___fltol+3,w
  9775  012B' 1683               	bsf	3,5	;RP0=1, select bank1
  9776  012C' 1303               	bcf	3,6	;RP1=0, select bank1
  9777  012D' 0080'              	movwf	(sprintf@val+3)^(0+128)
  9778  012E' 1283               	bcf	3,5	;RP0=0, select bank0
  9779  012F' 1303               	bcf	3,6	;RP1=0, select bank0
  9780  0130' 0839'              	movf	?___fltol+2,w
  9781  0131' 1683               	bsf	3,5	;RP0=1, select bank1
  9782  0132' 1303               	bcf	3,6	;RP1=0, select bank1
  9783  0133' 0080'              	movwf	(sprintf@val+2)^(0+128)
  9784  0134' 1283               	bcf	3,5	;RP0=0, select bank0
  9785  0135' 1303               	bcf	3,6	;RP1=0, select bank0
  9786  0136' 0838'              	movf	?___fltol+1,w
  9787  0137' 1683               	bsf	3,5	;RP0=1, select bank1
  9788  0138' 1303               	bcf	3,6	;RP1=0, select bank1
  9789  0139' 0080'              	movwf	(sprintf@val+1)^(0+128)
  9790  013A' 1283               	bcf	3,5	;RP0=0, select bank0
  9791  013B' 1303               	bcf	3,6	;RP1=0, select bank0
  9792  013C' 0837'              	movf	?___fltol,w
  9793  013D' 1683               	bsf	3,5	;RP0=1, select bank1
  9794  013E' 1303               	bcf	3,6	;RP1=0, select bank1
  9795  013F' 0080'              	movwf	sprintf@val^(0+128)
  9796  0140'                    l4182:
  9797                           
  9798                           ;C:\Program Files\Microchip\xc8\v2.31\pic\sources\c90\common\doprnt.c: 1158:      fval -
      +                          = (double)val;
  9799  0140' 0800'              	movf	(sprintf@val+3)^(0+128),w
  9800  0141' 0086'              	movwf	___xxtofl@val+3
  9801  0142' 0800'              	movf	(sprintf@val+2)^(0+128),w
  9802  0143' 0085'              	movwf	___xxtofl@val+2
  9803  0144' 0800'              	movf	(sprintf@val+1)^(0+128),w
  9804  0145' 0084'              	movwf	___xxtofl@val+1
  9805  0146' 0800'              	movf	sprintf@val^(0+128),w
  9806  0147' 0083'              	movwf	___xxtofl@val
  9807  0148' 3000               	movlw	0
  9808  0149' 120A' 118A' 2000' 120A' 118A' 	fcall	___xxtofl
  9809  014E' 0806'              	movf	?___xxtofl+3,w
  9810  014F' 1683               	bsf	3,5	;RP0=1, select bank1
  9811  0150' 1303               	bcf	3,6	;RP1=0, select bank1
  9812  0151' 0080'              	movwf	(___flsub@a+3)^(0+128)
  9813  0152' 0805'              	movf	?___xxtofl+2,w
  9814  0153' 0080'              	movwf	(___flsub@a+2)^(0+128)
  9815  0154' 0804'              	movf	?___xxtofl+1,w
  9816  0155' 0080'              	movwf	(___flsub@a+1)^(0+128)
  9817  0156' 0803'              	movf	?___xxtofl,w
  9818  0157' 0080'              	movwf	___flsub@a^(0+128)
  9819  0158' 0800'              	movf	(sprintf@fval+3)^(0+128),w
  9820  0159' 0080'              	movwf	(___flsub@b+3)^(0+128)
  9821  015A' 0800'              	movf	(sprintf@fval+2)^(0+128),w
  9822  015B' 0080'              	movwf	(___flsub@b+2)^(0+128)
  9823  015C' 0800'              	movf	(sprintf@fval+1)^(0+128),w
  9824  015D' 0080'              	movwf	(___flsub@b+1)^(0+128)
  9825  015E' 0800'              	movf	sprintf@fval^(0+128),w
  9826  015F' 0080'              	movwf	___flsub@b^(0+128)
  9827  0160' 120A' 118A' 2000' 120A' 118A' 	fcall	___flsub
  9828  0165' 1683               	bsf	3,5	;RP0=1, select bank1
  9829  0166' 1303               	bcf	3,6	;RP1=0, select bank1
  9830  0167' 0800'              	movf	(?___flsub+3)^(0+128),w
  9831  0168' 0080'              	movwf	(sprintf@fval+3)^(0+128)
  9832  0169' 0800'              	movf	(?___flsub+2)^(0+128),w
  9833  016A' 0080'              	movwf	(sprintf@fval+2)^(0+128)
  9834  016B' 0800'              	movf	(?___flsub+1)^(0+128),w
  9835  016C' 0080'              	movwf	(sprintf@fval+1)^(0+128)
  9836  016D' 0800'              	movf	?___flsub^(0+128),w
  9837  016E' 0080'              	movwf	sprintf@fval^(0+128)
  9838  016F'                    l4184:
  9839                           
  9840                           ;C:\Program Files\Microchip\xc8\v2.31\pic\sources\c90\common\doprnt.c: 1159:      eexp =
      +                           0;
  9841  016F' 0180'              	clrf	sprintf@eexp^(0+128)
  9842  0170' 0180'              	clrf	(sprintf@eexp+1)^(0+128)
  9843  0171'                    l4186:
  9844                           
  9845                           ;C:\Program Files\Microchip\xc8\v2.31\pic\sources\c90\common\doprnt.c: 1162:     for(c =
      +                           1 ; c != (sizeof dpowers/sizeof dpowers[0]) ; c++)
  9846  0171' 0180'              	clrf	sprintf@c^(0+128)
  9847  0172' 0A80'              	incf	sprintf@c^(0+128),f
  9848  0173'                    l4192:
  9849                           
  9850                           ;C:\Program Files\Microchip\xc8\v2.31\pic\sources\c90\common\doprnt.c: 1163:      if(val
      +                           < dpowers[c])
  9851  0173' 0800'              	movf	sprintf@c^(0+128),w
  9852  0174' 0080'              	movwf	??_sprintf^(0+128)
  9853  0175' 3001               	movlw	1
  9854  0176'                    u7315:
  9855  0176' 1003               	clrc
  9856  0177' 0D80'              	rlf	??_sprintf^(0+128),f
  9857  0178' 3EFF               	addlw	-1
  9858  0179' 1D03               	skipz
  9859  017A' 2800'              	goto	u7315
  9860  017B' 1003               	clrc
  9861  017C' 0D00'              	rlf	??_sprintf^(0+128),w
  9862  017D' 3E69               	addlw	low ((_dpowers-__stringbase)| (0+32768))
  9863  017E' 0084               	movwf	4
  9864  017F' 120A' 118A' 2000' 120A' 118A' 	fcall	stringdir
  9865  0184' 0080'              	movwf	(??_sprintf+1)^(0+128)
  9866  0185' 120A' 118A' 2000' 120A' 118A' 	fcall	stringdir
  9867  018A' 0081'              	movwf	((??_sprintf+1)^(0+128)+1)
  9868  018B' 120A' 118A' 2000' 120A' 118A' 	fcall	stringdir
  9869  0190' 0082'              	movwf	((??_sprintf+1)^(0+128)+2)
  9870  0191' 120A' 118A' 2000' 120A' 118A' 	fcall	stringdir
  9871  0196' 0083'              	movwf	((??_sprintf+1)^(0+128)+3)
  9872  0197' 0800'              	movf	(??_sprintf+4)^(0+128),w
  9873  0198' 0200'              	subwf	(sprintf@val+3)^(0+128),w
  9874  0199' 1D03               	skipz
  9875  019A' 2800'              	goto	u7325
  9876  019B' 0800'              	movf	(??_sprintf+3)^(0+128),w
  9877  019C' 0200'              	subwf	(sprintf@val+2)^(0+128),w
  9878  019D' 1D03               	skipz
  9879  019E' 2800'              	goto	u7325
  9880  019F' 0800'              	movf	(??_sprintf+2)^(0+128),w
  9881  01A0' 0200'              	subwf	(sprintf@val+1)^(0+128),w
  9882  01A1' 1D03               	skipz
  9883  01A2' 2800'              	goto	u7325
  9884  01A3' 0800'              	movf	(??_sprintf+1)^(0+128),w
  9885  01A4' 0200'              	subwf	sprintf@val^(0+128),w
  9886  01A5'                    u7325:
  9887  01A5' 1803               	skipnc
  9888  01A6' 2800'              	goto	u7321
  9889  01A7' 2800'              	goto	u7320
  9890  01A8'                    u7321:
  9891  01A8' 2800'              	goto	l4196
  9892  01A9'                    u7320:
  9893  01A9' 2800'              	goto	l4198
  9894  01AA'                    l4196:
  9895  01AA' 3001               	movlw	1
  9896  01AB' 0080'              	movwf	??_sprintf^(0+128)
  9897  01AC' 0800'              	movf	??_sprintf^(0+128),w
  9898  01AD' 0780'              	addwf	sprintf@c^(0+128),f
  9899  01AE' 300A               	movlw	10
  9900  01AF' 0600'              	xorwf	sprintf@c^(0+128),w
  9901  01B0' 1D03               	btfss	3,2
  9902  01B1' 2800'              	goto	u7331
  9903  01B2' 2800'              	goto	u7330
  9904  01B3'                    u7331:
  9905  01B3' 2800'              	goto	l4192
  9906  01B4'                    u7330:
  9907  01B4'                    l4198:
  9908                           
  9909                           ;C:\Program Files\Microchip\xc8\v2.31\pic\sources\c90\common\doprnt.c: 1168:     width -
      +                          = prec + c + eexp;
  9910  01B4' 0800'              	movf	sprintf@c^(0+128),w
  9911  01B5' 0700'              	addwf	sprintf@prec^(0+128),w
  9912  01B6' 0080'              	movwf	??_sprintf^(0+128)
  9913  01B7' 0800'              	movf	(sprintf@prec+1)^(0+128),w
  9914  01B8' 1803               	skipnc
  9915  01B9' 0A00'              	incf	(sprintf@prec+1)^(0+128),w
  9916  01BA' 0081'              	movwf	(??_sprintf^(0+128)+1)
  9917  01BB' 0800'              	movf	sprintf@eexp^(0+128),w
  9918  01BC' 0700'              	addwf	??_sprintf^(0+128),w
  9919  01BD' 0080'              	movwf	(??_sprintf+2)^(0+128)
  9920  01BE' 0800'              	movf	(sprintf@eexp+1)^(0+128),w
  9921  01BF' 1803               	skipnc
  9922  01C0' 0A00'              	incf	(sprintf@eexp+1)^(0+128),w
  9923  01C1' 0700'              	addwf	(??_sprintf+1)^(0+128),w
  9924  01C2' 0080'              	movwf	(??_sprintf+3)^(0+128)
  9925  01C3' 0800'              	movf	(??_sprintf+2)^(0+128),w
  9926  01C4' 0280'              	subwf	sprintf@width^(0+128),f
  9927  01C5' 0800'              	movf	(??_sprintf+3)^(0+128),w
  9928  01C6' 1C03               	skipc
  9929  01C7' 0380'              	decf	(sprintf@width+1)^(0+128),f
  9930  01C8' 0280'              	subwf	(sprintf@width+1)^(0+128),f
  9931                           
  9932                           ;C:\Program Files\Microchip\xc8\v2.31\pic\sources\c90\common\doprnt.c: 1169:     if(
  9933  01C9' 0800'              	movf	sprintf@prec^(0+128),w
  9934  01CA' 0400'              	iorwf	(sprintf@prec+1)^(0+128),w
  9935  01CB' 1903               	btfsc	3,2
  9936  01CC' 2800'              	goto	u7341
  9937  01CD' 2800'              	goto	u7340
  9938  01CE'                    u7341:
  9939  01CE' 2800'              	goto	l4202
  9940  01CF'                    u7340:
  9941  01CF'                    l4200:
  9942                           
  9943                           ;C:\Program Files\Microchip\xc8\v2.31\pic\sources\c90\common\doprnt.c: 1174:      width-
      +                          -;
  9944  01CF' 30FF               	movlw	255
  9945  01D0' 0780'              	addwf	sprintf@width^(0+128),f
  9946  01D1' 1803               	skipnc
  9947  01D2' 0A80'              	incf	(sprintf@width+1)^(0+128),f
  9948  01D3' 30FF               	movlw	255
  9949  01D4' 0780'              	addwf	(sprintf@width+1)^(0+128),f
  9950  01D5'                    l4202:
  9951                           
  9952                           ;C:\Program Files\Microchip\xc8\v2.31\pic\sources\c90\common\doprnt.c: 1175:     if(flag
      +                           & 0x03)
  9953  01D5' 3003               	movlw	3
  9954  01D6' 0500'              	andwf	sprintf@flag^(0+128),w
  9955  01D7' 0080'              	movwf	??_sprintf^(0+128)
  9956  01D8' 3000               	movlw	0
  9957  01D9' 0500'              	andwf	(sprintf@flag+1)^(0+128),w
  9958  01DA' 0080'              	movwf	(??_sprintf+1)^(0+128)
  9959  01DB' 0800'              	movf	??_sprintf^(0+128),w
  9960  01DC' 0401'              	iorwf	(??_sprintf^(0+128)+1),w
  9961  01DD' 1903               	btfsc	3,2
  9962  01DE' 2800'              	goto	u7351
  9963  01DF' 2800'              	goto	u7350
  9964  01E0'                    u7351:
  9965  01E0' 2800'              	goto	l4212
  9966  01E1'                    u7350:
  9967  01E1'                    l4204:
  9968                           
  9969                           ;C:\Program Files\Microchip\xc8\v2.31\pic\sources\c90\common\doprnt.c: 1176:      width-
      +                          -;
  9970  01E1' 30FF               	movlw	255
  9971  01E2' 0780'              	addwf	sprintf@width^(0+128),f
  9972  01E3' 1803               	skipnc
  9973  01E4' 0A80'              	incf	(sprintf@width+1)^(0+128),f
  9974  01E5' 30FF               	movlw	255
  9975  01E6' 0780'              	addwf	(sprintf@width+1)^(0+128),f
  9976  01E7' 2800'              	goto	l4212
  9977  01E8'                    l4206:
  9978                           
  9979                           ;C:\Program Files\Microchip\xc8\v2.31\pic\sources\c90\common\doprnt.c: 1207:       ((*sp
      +                          ++ = (' ')));
  9980  01E8' 3020               	movlw	32
  9981  01E9' 1683               	bsf	3,5	;RP0=1, select bank1
  9982  01EA' 1303               	bcf	3,6	;RP1=0, select bank1
  9983  01EB' 0080'              	movwf	??_sprintf^(0+128)
  9984  01EC' 0800'              	movf	sprintf@sp^(0+128),w
  9985  01ED' 0084               	movwf	4
  9986  01EE' 0800'              	movf	??_sprintf^(0+128),w
  9987  01EF' 1383               	bcf	3,7	;select IRP bank0
  9988  01F0' 0080               	movwf	0
  9989  01F1'                    l4208:
  9990  01F1' 3001               	movlw	1
  9991  01F2' 0080'              	movwf	??_sprintf^(0+128)
  9992  01F3' 0800'              	movf	??_sprintf^(0+128),w
  9993  01F4' 0780'              	addwf	sprintf@sp^(0+128),f
  9994  01F5' 2800'              	goto	l4204
  9995  01F6'                    l4212:
  9996                           
  9997                           ;C:\Program Files\Microchip\xc8\v2.31\pic\sources\c90\common\doprnt.c: 1206:      while(
      +                          width > 0) {
  9998  01F6' 0800'              	movf	(sprintf@width+1)^(0+128),w
  9999  01F7' 3A80               	xorlw	128
 10000  01F8' 00FF               	movwf	btemp+1
 10001  01F9' 3080               	movlw	128
 10002  01FA' 027F               	subwf	btemp+1,w
 10003  01FB' 1D03               	skipz
 10004  01FC' 2800'              	goto	u7365
 10005  01FD' 3001               	movlw	1
 10006  01FE' 0200'              	subwf	sprintf@width^(0+128),w
 10007  01FF'                    u7365:
 10008  01FF' 1803               	skipnc
 10009  0200' 2800'              	goto	u7361
 10010  0201' 2800'              	goto	u7360
 10011  0202'                    u7361:
 10012  0202' 2800'              	goto	l4206
 10013  0203'                    u7360:
 10014  0203'                    l4214:
 10015                           
 10016                           ;C:\Program Files\Microchip\xc8\v2.31\pic\sources\c90\common\doprnt.c: 1214:     if(flag
      +                           & 0x03)
 10017  0203' 3003               	movlw	3
 10018  0204' 1683               	bsf	3,5	;RP0=1, select bank1
 10019  0205' 1303               	bcf	3,6	;RP1=0, select bank1
 10020  0206' 0500'              	andwf	sprintf@flag^(0+128),w
 10021  0207' 0080'              	movwf	??_sprintf^(0+128)
 10022  0208' 3000               	movlw	0
 10023  0209' 0500'              	andwf	(sprintf@flag+1)^(0+128),w
 10024  020A' 0080'              	movwf	(??_sprintf+1)^(0+128)
 10025  020B' 0800'              	movf	??_sprintf^(0+128),w
 10026  020C' 0401'              	iorwf	(??_sprintf^(0+128)+1),w
 10027  020D' 1903               	btfsc	3,2
 10028  020E' 2800'              	goto	u7371
 10029  020F' 2800'              	goto	u7370
 10030  0210'                    u7371:
 10031  0210' 2800'              	goto	l270
 10032  0211'                    u7370:
 10033  0211'                    l4216:
 10034                           
 10035                           ;C:\Program Files\Microchip\xc8\v2.31\pic\sources\c90\common\doprnt.c: 1216:      ((*sp+
      +                          + = ('-')));
 10036  0211' 302D               	movlw	45
 10037  0212' 0080'              	movwf	??_sprintf^(0+128)
 10038  0213' 0800'              	movf	sprintf@sp^(0+128),w
 10039  0214' 0084               	movwf	4
 10040  0215' 0800'              	movf	??_sprintf^(0+128),w
 10041  0216' 1383               	bcf	3,7	;select IRP bank0
 10042  0217' 0080               	movwf	0
 10043  0218'                    l4218:
 10044  0218' 3001               	movlw	1
 10045  0219' 0080'              	movwf	??_sprintf^(0+128)
 10046  021A' 0800'              	movf	??_sprintf^(0+128),w
 10047  021B' 0780'              	addwf	sprintf@sp^(0+128),f
 10048  021C' 2800'              	goto	l270
 10049  021D'                    l4220:
 10050                           
 10051                           ;C:\Program Files\Microchip\xc8\v2.31\pic\sources\c90\common\doprnt.c: 1226:     {;C:\Pr
      +                          ogram Files\Microchip\xc8\v2.31\pic\sources\c90\common\doprnt.c: 1227:      tmpval.vd = 
      +                          val/dpowers[c];
 10052  021D' 0800'              	movf	sprintf@c^(0+128),w
 10053  021E' 0080'              	movwf	??_sprintf^(0+128)
 10054  021F' 3001               	movlw	1
 10055  0220'                    u7385:
 10056  0220' 1003               	clrc
 10057  0221' 0D80'              	rlf	??_sprintf^(0+128),f
 10058  0222' 3EFF               	addlw	-1
 10059  0223' 1D03               	skipz
 10060  0224' 2800'              	goto	u7385
 10061  0225' 1003               	clrc
 10062  0226' 0D00'              	rlf	??_sprintf^(0+128),w
 10063  0227' 3E69               	addlw	low ((_dpowers-__stringbase)| (0+32768))
 10064  0228' 0084               	movwf	4
 10065  0229' 120A' 118A' 2000' 120A' 118A' 	fcall	stringdir
 10066  022E' 1283               	bcf	3,5	;RP0=0, select bank0
 10067  022F' 1303               	bcf	3,6	;RP1=0, select bank0
 10068  0230' 0080'              	movwf	___lldiv@divisor
 10069  0231' 120A' 118A' 2000' 120A' 118A' 	fcall	stringdir
 10070  0236' 0081'              	movwf	___lldiv@divisor+1
 10071  0237' 120A' 118A' 2000' 120A' 118A' 	fcall	stringdir
 10072  023C' 0082'              	movwf	___lldiv@divisor+2
 10073  023D' 120A' 118A' 2000' 120A' 118A' 	fcall	stringdir
 10074  0242' 0083'              	movwf	___lldiv@divisor+3
 10075  0243' 1683               	bsf	3,5	;RP0=1, select bank1
 10076  0244' 1303               	bcf	3,6	;RP1=0, select bank1
 10077  0245' 0800'              	movf	(sprintf@val+3)^(0+128),w
 10078  0246' 1283               	bcf	3,5	;RP0=0, select bank0
 10079  0247' 1303               	bcf	3,6	;RP1=0, select bank0
 10080  0248' 0087'              	movwf	___lldiv@dividend+3
 10081  0249' 1683               	bsf	3,5	;RP0=1, select bank1
 10082  024A' 1303               	bcf	3,6	;RP1=0, select bank1
 10083  024B' 0800'              	movf	(sprintf@val+2)^(0+128),w
 10084  024C' 1283               	bcf	3,5	;RP0=0, select bank0
 10085  024D' 1303               	bcf	3,6	;RP1=0, select bank0
 10086  024E' 0086'              	movwf	___lldiv@dividend+2
 10087  024F' 1683               	bsf	3,5	;RP0=1, select bank1
 10088  0250' 1303               	bcf	3,6	;RP1=0, select bank1
 10089  0251' 0800'              	movf	(sprintf@val+1)^(0+128),w
 10090  0252' 1283               	bcf	3,5	;RP0=0, select bank0
 10091  0253' 1303               	bcf	3,6	;RP1=0, select bank0
 10092  0254' 0085'              	movwf	___lldiv@dividend+1
 10093  0255' 1683               	bsf	3,5	;RP0=1, select bank1
 10094  0256' 1303               	bcf	3,6	;RP1=0, select bank1
 10095  0257' 0800'              	movf	sprintf@val^(0+128),w
 10096  0258' 1283               	bcf	3,5	;RP0=0, select bank0
 10097  0259' 1303               	bcf	3,6	;RP1=0, select bank0
 10098  025A' 0084'              	movwf	___lldiv@dividend
 10099  025B' 120A' 118A' 2000' 120A' 118A' 	fcall	___lldiv
 10100  0260' 1283               	bcf	3,5	;RP0=0, select bank0
 10101  0261' 1303               	bcf	3,6	;RP1=0, select bank0
 10102  0262' 0803'              	movf	?___lldiv+3,w
 10103  0263' 1683               	bsf	3,5	;RP0=1, select bank1
 10104  0264' 1303               	bcf	3,6	;RP1=0, select bank1
 10105  0265' 0080'              	movwf	(sprintf@tmpval+3)^(0+128)
 10106  0266' 1283               	bcf	3,5	;RP0=0, select bank0
 10107  0267' 1303               	bcf	3,6	;RP1=0, select bank0
 10108  0268' 0802'              	movf	?___lldiv+2,w
 10109  0269' 1683               	bsf	3,5	;RP0=1, select bank1
 10110  026A' 1303               	bcf	3,6	;RP1=0, select bank1
 10111  026B' 0080'              	movwf	(sprintf@tmpval+2)^(0+128)
 10112  026C' 1283               	bcf	3,5	;RP0=0, select bank0
 10113  026D' 1303               	bcf	3,6	;RP1=0, select bank0
 10114  026E' 0801'              	movf	?___lldiv+1,w
 10115  026F' 1683               	bsf	3,5	;RP0=1, select bank1
 10116  0270' 1303               	bcf	3,6	;RP1=0, select bank1
 10117  0271' 0080'              	movwf	(sprintf@tmpval+1)^(0+128)
 10118  0272' 1283               	bcf	3,5	;RP0=0, select bank0
 10119  0273' 1303               	bcf	3,6	;RP1=0, select bank0
 10120  0274' 0800'              	movf	?___lldiv,w
 10121  0275' 1683               	bsf	3,5	;RP0=1, select bank1
 10122  0276' 1303               	bcf	3,6	;RP1=0, select bank1
 10123  0277' 0080'              	movwf	sprintf@tmpval^(0+128)
 10124  0278'                    l4222:
 10125                           
 10126                           ;C:\Program Files\Microchip\xc8\v2.31\pic\sources\c90\common\doprnt.c: 1228:      tmpval
      +                          .vd %= 10;
 10127  0278' 3000               	movlw	0
 10128  0279' 1283               	bcf	3,5	;RP0=0, select bank0
 10129  027A' 1303               	bcf	3,6	;RP1=0, select bank0
 10130  027B' 008B'              	movwf	___llmod@divisor+3
 10131  027C' 3000               	movlw	0
 10132  027D' 008A'              	movwf	___llmod@divisor+2
 10133  027E' 3000               	movlw	0
 10134  027F' 0089'              	movwf	___llmod@divisor+1
 10135  0280' 300A               	movlw	10
 10136  0281' 0088'              	movwf	___llmod@divisor
 10137  0282' 1683               	bsf	3,5	;RP0=1, select bank1
 10138  0283' 1303               	bcf	3,6	;RP1=0, select bank1
 10139  0284' 0800'              	movf	(sprintf@tmpval+3)^(0+128),w
 10140  0285' 1283               	bcf	3,5	;RP0=0, select bank0
 10141  0286' 1303               	bcf	3,6	;RP1=0, select bank0
 10142  0287' 008F'              	movwf	___llmod@dividend+3
 10143  0288' 1683               	bsf	3,5	;RP0=1, select bank1
 10144  0289' 1303               	bcf	3,6	;RP1=0, select bank1
 10145  028A' 0800'              	movf	(sprintf@tmpval+2)^(0+128),w
 10146  028B' 1283               	bcf	3,5	;RP0=0, select bank0
 10147  028C' 1303               	bcf	3,6	;RP1=0, select bank0
 10148  028D' 008E'              	movwf	___llmod@dividend+2
 10149  028E' 1683               	bsf	3,5	;RP0=1, select bank1
 10150  028F' 1303               	bcf	3,6	;RP1=0, select bank1
 10151  0290' 0800'              	movf	(sprintf@tmpval+1)^(0+128),w
 10152  0291' 1283               	bcf	3,5	;RP0=0, select bank0
 10153  0292' 1303               	bcf	3,6	;RP1=0, select bank0
 10154  0293' 008D'              	movwf	___llmod@dividend+1
 10155  0294' 1683               	bsf	3,5	;RP0=1, select bank1
 10156  0295' 1303               	bcf	3,6	;RP1=0, select bank1
 10157  0296' 0800'              	movf	sprintf@tmpval^(0+128),w
 10158  0297' 1283               	bcf	3,5	;RP0=0, select bank0
 10159  0298' 1303               	bcf	3,6	;RP1=0, select bank0
 10160  0299' 008C'              	movwf	___llmod@dividend
 10161  029A' 120A' 118A' 2000' 120A' 118A' 	fcall	___llmod
 10162  029F' 1283               	bcf	3,5	;RP0=0, select bank0
 10163  02A0' 1303               	bcf	3,6	;RP1=0, select bank0
 10164  02A1' 080B'              	movf	?___llmod+3,w
 10165  02A2' 1683               	bsf	3,5	;RP0=1, select bank1
 10166  02A3' 1303               	bcf	3,6	;RP1=0, select bank1
 10167  02A4' 0080'              	movwf	(sprintf@tmpval+3)^(0+128)
 10168  02A5' 1283               	bcf	3,5	;RP0=0, select bank0
 10169  02A6' 1303               	bcf	3,6	;RP1=0, select bank0
 10170  02A7' 080A'              	movf	?___llmod+2,w
 10171  02A8' 1683               	bsf	3,5	;RP0=1, select bank1
 10172  02A9' 1303               	bcf	3,6	;RP1=0, select bank1
 10173  02AA' 0080'              	movwf	(sprintf@tmpval+2)^(0+128)
 10174  02AB' 1283               	bcf	3,5	;RP0=0, select bank0
 10175  02AC' 1303               	bcf	3,6	;RP1=0, select bank0
 10176  02AD' 0809'              	movf	?___llmod+1,w
 10177  02AE' 1683               	bsf	3,5	;RP0=1, select bank1
 10178  02AF' 1303               	bcf	3,6	;RP1=0, select bank1
 10179  02B0' 0080'              	movwf	(sprintf@tmpval+1)^(0+128)
 10180  02B1' 1283               	bcf	3,5	;RP0=0, select bank0
 10181  02B2' 1303               	bcf	3,6	;RP1=0, select bank0
 10182  02B3' 0808'              	movf	?___llmod,w
 10183  02B4' 1683               	bsf	3,5	;RP0=1, select bank1
 10184  02B5' 1303               	bcf	3,6	;RP1=0, select bank1
 10185  02B6' 0080'              	movwf	sprintf@tmpval^(0+128)
 10186  02B7'                    l4224:
 10187                           
 10188                           ;C:\Program Files\Microchip\xc8\v2.31\pic\sources\c90\common\doprnt.c: 1229:      ((*sp+
      +                          + = ('0' + tmpval.vd)));
 10189  02B7' 0800'              	movf	sprintf@tmpval^(0+128),w
 10190  02B8' 3E30               	addlw	48
 10191  02B9' 0080'              	movwf	??_sprintf^(0+128)
 10192  02BA' 0800'              	movf	sprintf@sp^(0+128),w
 10193  02BB' 0084               	movwf	4
 10194  02BC' 0800'              	movf	??_sprintf^(0+128),w
 10195  02BD' 1383               	bcf	3,7	;select IRP bank0
 10196  02BE' 0080               	movwf	0
 10197  02BF' 3001               	movlw	1
 10198  02C0' 0080'              	movwf	??_sprintf^(0+128)
 10199  02C1' 0800'              	movf	??_sprintf^(0+128),w
 10200  02C2' 0780'              	addwf	sprintf@sp^(0+128),f
 10201  02C3'                    l270:	
 10202                           ;C:\Program Files\Microchip\xc8\v2.31\pic\sources\c90\common\doprnt.c: 1230:     };C:\Pr
      +                          ogram Files\Microchip\xc8\v2.31\pic\sources\c90\common\doprnt.c: 1232:    }
 10203                           
 10204                           
 10205                           ;C:\Program Files\Microchip\xc8\v2.31\pic\sources\c90\common\doprnt.c: 1222:    while(c-
      +                          -) {
 10206  02C3' 3001               	movlw	1
 10207  02C4' 0280'              	subwf	sprintf@c^(0+128),f
 10208  02C5' 0A00'              	incf	sprintf@c^(0+128),w
 10209  02C6' 1D03               	btfss	3,2
 10210  02C7' 2800'              	goto	u7391
 10211  02C8' 2800'              	goto	u7390
 10212  02C9'                    u7391:
 10213  02C9' 2800'              	goto	l4220
 10214  02CA'                    u7390:
 10215  02CA' 2800'              	goto	l4232
 10216  02CB'                    l4226:
 10217                           
 10218                           ;C:\Program Files\Microchip\xc8\v2.31\pic\sources\c90\common\doprnt.c: 1234:     ((*sp++
      +                           = ('0')));
 10219  02CB' 3030               	movlw	48
 10220  02CC' 1683               	bsf	3,5	;RP0=1, select bank1
 10221  02CD' 1303               	bcf	3,6	;RP1=0, select bank1
 10222  02CE' 0080'              	movwf	??_sprintf^(0+128)
 10223  02CF' 0800'              	movf	sprintf@sp^(0+128),w
 10224  02D0' 0084               	movwf	4
 10225  02D1' 0800'              	movf	??_sprintf^(0+128),w
 10226  02D2' 1383               	bcf	3,7	;select IRP bank0
 10227  02D3' 0080               	movwf	0
 10228  02D4'                    l4228:
 10229  02D4' 3001               	movlw	1
 10230  02D5' 0080'              	movwf	??_sprintf^(0+128)
 10231  02D6' 0800'              	movf	??_sprintf^(0+128),w
 10232  02D7' 0780'              	addwf	sprintf@sp^(0+128),f
 10233  02D8'                    l4230:
 10234                           
 10235                           ;C:\Program Files\Microchip\xc8\v2.31\pic\sources\c90\common\doprnt.c: 1235:     eexp--;
 10236  02D8' 30FF               	movlw	255
 10237  02D9' 0780'              	addwf	sprintf@eexp^(0+128),f
 10238  02DA' 1803               	skipnc
 10239  02DB' 0A80'              	incf	(sprintf@eexp+1)^(0+128),f
 10240  02DC' 30FF               	movlw	255
 10241  02DD' 0780'              	addwf	(sprintf@eexp+1)^(0+128),f
 10242  02DE'                    l4232:
 10243                           
 10244                           ;C:\Program Files\Microchip\xc8\v2.31\pic\sources\c90\common\doprnt.c: 1233:    while(ee
      +                          xp > 0) {
 10245  02DE' 0800'              	movf	(sprintf@eexp+1)^(0+128),w
 10246  02DF' 3A80               	xorlw	128
 10247  02E0' 00FF               	movwf	btemp+1
 10248  02E1' 3080               	movlw	128
 10249  02E2' 027F               	subwf	btemp+1,w
 10250  02E3' 1D03               	skipz
 10251  02E4' 2800'              	goto	u7405
 10252  02E5' 3001               	movlw	1
 10253  02E6' 0200'              	subwf	sprintf@eexp^(0+128),w
 10254  02E7'                    u7405:
 10255  02E7' 1803               	skipnc
 10256  02E8' 2800'              	goto	u7401
 10257  02E9' 2800'              	goto	u7400
 10258  02EA'                    u7401:
 10259  02EA' 2800'              	goto	l4226
 10260  02EB'                    u7400:
 10261  02EB'                    l4234:
 10262                           
 10263                           ;C:\Program Files\Microchip\xc8\v2.31\pic\sources\c90\common\doprnt.c: 1237:    if(prec 
      +                          > (int)((sizeof dpowers/sizeof dpowers[0])-2))
 10264  02EB' 1683               	bsf	3,5	;RP0=1, select bank1
 10265  02EC' 1303               	bcf	3,6	;RP1=0, select bank1
 10266  02ED' 0800'              	movf	(sprintf@prec+1)^(0+128),w
 10267  02EE' 3A80               	xorlw	128
 10268  02EF' 00FF               	movwf	btemp+1
 10269  02F0' 3080               	movlw	128
 10270  02F1' 027F               	subwf	btemp+1,w
 10271  02F2' 1D03               	skipz
 10272  02F3' 2800'              	goto	u7415
 10273  02F4' 3009               	movlw	9
 10274  02F5' 0200'              	subwf	sprintf@prec^(0+128),w
 10275  02F6'                    u7415:
 10276  02F6' 1C03               	skipc
 10277  02F7' 2800'              	goto	u7411
 10278  02F8' 2800'              	goto	u7410
 10279  02F9'                    u7411:
 10280  02F9' 2800'              	goto	l4238
 10281  02FA'                    u7410:
 10282  02FA'                    l4236:
 10283                           
 10284                           ;C:\Program Files\Microchip\xc8\v2.31\pic\sources\c90\common\doprnt.c: 1238:     c = (si
      +                          zeof dpowers/sizeof dpowers[0])-2;
 10285  02FA' 3008               	movlw	8
 10286  02FB' 1683               	bsf	3,5	;RP0=1, select bank1
 10287  02FC' 1303               	bcf	3,6	;RP1=0, select bank1
 10288  02FD' 0080'              	movwf	??_sprintf^(0+128)
 10289  02FE' 0800'              	movf	??_sprintf^(0+128),w
 10290  02FF' 0080'              	movwf	sprintf@c^(0+128)
 10291  0300' 2800'              	goto	l277
 10292  0301'                    l4238:
 10293                           
 10294                           ;C:\Program Files\Microchip\xc8\v2.31\pic\sources\c90\common\doprnt.c: 1240:     c = (ch
      +                          ar)prec;
 10295  0301' 1683               	bsf	3,5	;RP0=1, select bank1
 10296  0302' 1303               	bcf	3,6	;RP1=0, select bank1
 10297  0303' 0800'              	movf	sprintf@prec^(0+128),w
 10298  0304' 0080'              	movwf	??_sprintf^(0+128)
 10299  0305' 0800'              	movf	??_sprintf^(0+128),w
 10300  0306' 0080'              	movwf	sprintf@c^(0+128)
 10301  0307'                    l277:
 10302                           
 10303                           ;C:\Program Files\Microchip\xc8\v2.31\pic\sources\c90\common\doprnt.c: 1241:    prec -= 
      +                          (int)c;
 10304  0307' 0800'              	movf	sprintf@c^(0+128),w
 10305  0308' 0080'              	movwf	??_sprintf^(0+128)
 10306  0309' 0181'              	clrf	(??_sprintf^(0+128)+1)
 10307  030A' 0800'              	movf	??_sprintf^(0+128),w
 10308  030B' 0280'              	subwf	sprintf@prec^(0+128),f
 10309  030C' 0800'              	movf	(??_sprintf+1)^(0+128),w
 10310  030D' 1C03               	skipc
 10311  030E' 0380'              	decf	(sprintf@prec+1)^(0+128),f
 10312  030F' 0280'              	subwf	(sprintf@prec+1)^(0+128),f
 10313  0310'                    l4240:
 10314                           
 10315                           ;C:\Program Files\Microchip\xc8\v2.31\pic\sources\c90\common\doprnt.c: 1245:    if(c)
 10316  0310' 0800'              	movf	sprintf@c^(0+128),w
 10317  0311' 1903               	btfsc	3,2
 10318  0312' 2800'              	goto	u7421
 10319  0313' 2800'              	goto	u7420
 10320  0314'                    u7421:
 10321  0314' 2800'              	goto	l4246
 10322  0315'                    u7420:
 10323  0315'                    l4242:
 10324                           
 10325                           ;C:\Program Files\Microchip\xc8\v2.31\pic\sources\c90\common\doprnt.c: 1247:     ((*sp++
      +                           = ('.')));
 10326  0315' 302E               	movlw	46
 10327  0316' 0080'              	movwf	??_sprintf^(0+128)
 10328  0317' 0800'              	movf	sprintf@sp^(0+128),w
 10329  0318' 0084               	movwf	4
 10330  0319' 0800'              	movf	??_sprintf^(0+128),w
 10331  031A' 1383               	bcf	3,7	;select IRP bank0
 10332  031B' 0080               	movwf	0
 10333  031C'                    l4244:
 10334  031C' 3001               	movlw	1
 10335  031D' 0080'              	movwf	??_sprintf^(0+128)
 10336  031E' 0800'              	movf	??_sprintf^(0+128),w
 10337  031F' 0780'              	addwf	sprintf@sp^(0+128),f
 10338  0320'                    l4246:
 10339                           
 10340                           ;C:\Program Files\Microchip\xc8\v2.31\pic\sources\c90\common\doprnt.c: 1253:    val = (u
      +                          nsigned long)(fval * scale((signed char)c));
 10341  0320' 0800'              	movf	sprintf@c^(0+128),w
 10342  0321' 120A' 118A' 2000' 120A' 118A' 	fcall	_scale
 10343  0326' 1283               	bcf	3,5	;RP0=0, select bank0
 10344  0327' 1303               	bcf	3,6	;RP1=0, select bank0
 10345  0328' 0827'              	movf	?_scale+3,w
 10346  0329' 1683               	bsf	3,5	;RP0=1, select bank1
 10347  032A' 1303               	bcf	3,6	;RP1=0, select bank1
 10348  032B' 0080'              	movwf	(_sprintf$899+3)^(0+128)
 10349  032C' 1283               	bcf	3,5	;RP0=0, select bank0
 10350  032D' 1303               	bcf	3,6	;RP1=0, select bank0
 10351  032E' 0826'              	movf	?_scale+2,w
 10352  032F' 1683               	bsf	3,5	;RP0=1, select bank1
 10353  0330' 1303               	bcf	3,6	;RP1=0, select bank1
 10354  0331' 0080'              	movwf	(_sprintf$899+2)^(0+128)
 10355  0332' 1283               	bcf	3,5	;RP0=0, select bank0
 10356  0333' 1303               	bcf	3,6	;RP1=0, select bank0
 10357  0334' 0825'              	movf	?_scale+1,w
 10358  0335' 1683               	bsf	3,5	;RP0=1, select bank1
 10359  0336' 1303               	bcf	3,6	;RP1=0, select bank1
 10360  0337' 0080'              	movwf	(_sprintf$899+1)^(0+128)
 10361  0338' 1283               	bcf	3,5	;RP0=0, select bank0
 10362  0339' 1303               	bcf	3,6	;RP1=0, select bank0
 10363  033A' 0824'              	movf	?_scale,w
 10364  033B' 1683               	bsf	3,5	;RP0=1, select bank1
 10365  033C' 1303               	bcf	3,6	;RP1=0, select bank1
 10366  033D' 0080'              	movwf	_sprintf$899^(0+128)
 10367  033E'                    l4248:
 10368                           
 10369                           ;C:\Program Files\Microchip\xc8\v2.31\pic\sources\c90\common\doprnt.c: 1253:    val = (u
      +                          nsigned long)(fval * scale((signed char)c));
 10370  033E' 0800'              	movf	(_sprintf$899+3)^(0+128),w
 10371  033F' 1283               	bcf	3,5	;RP0=0, select bank0
 10372  0340' 1303               	bcf	3,6	;RP1=0, select bank0
 10373  0341' 0091'              	movwf	___flmul@a+3
 10374  0342' 1683               	bsf	3,5	;RP0=1, select bank1
 10375  0343' 1303               	bcf	3,6	;RP1=0, select bank1
 10376  0344' 0800'              	movf	(_sprintf$899+2)^(0+128),w
 10377  0345' 1283               	bcf	3,5	;RP0=0, select bank0
 10378  0346' 1303               	bcf	3,6	;RP1=0, select bank0
 10379  0347' 0090'              	movwf	___flmul@a+2
 10380  0348' 1683               	bsf	3,5	;RP0=1, select bank1
 10381  0349' 1303               	bcf	3,6	;RP1=0, select bank1
 10382  034A' 0800'              	movf	(_sprintf$899+1)^(0+128),w
 10383  034B' 1283               	bcf	3,5	;RP0=0, select bank0
 10384  034C' 1303               	bcf	3,6	;RP1=0, select bank0
 10385  034D' 008F'              	movwf	___flmul@a+1
 10386  034E' 1683               	bsf	3,5	;RP0=1, select bank1
 10387  034F' 1303               	bcf	3,6	;RP1=0, select bank1
 10388  0350' 0800'              	movf	_sprintf$899^(0+128),w
 10389  0351' 1283               	bcf	3,5	;RP0=0, select bank0
 10390  0352' 1303               	bcf	3,6	;RP1=0, select bank0
 10391  0353' 008E'              	movwf	___flmul@a
 10392  0354' 1683               	bsf	3,5	;RP0=1, select bank1
 10393  0355' 1303               	bcf	3,6	;RP1=0, select bank1
 10394  0356' 0800'              	movf	(sprintf@fval+3)^(0+128),w
 10395  0357' 1283               	bcf	3,5	;RP0=0, select bank0
 10396  0358' 1303               	bcf	3,6	;RP1=0, select bank0
 10397  0359' 008D'              	movwf	___flmul@b+3
 10398  035A' 1683               	bsf	3,5	;RP0=1, select bank1
 10399  035B' 1303               	bcf	3,6	;RP1=0, select bank1
 10400  035C' 0800'              	movf	(sprintf@fval+2)^(0+128),w
 10401  035D' 1283               	bcf	3,5	;RP0=0, select bank0
 10402  035E' 1303               	bcf	3,6	;RP1=0, select bank0
 10403  035F' 008C'              	movwf	___flmul@b+2
 10404  0360' 1683               	bsf	3,5	;RP0=1, select bank1
 10405  0361' 1303               	bcf	3,6	;RP1=0, select bank1
 10406  0362' 0800'              	movf	(sprintf@fval+1)^(0+128),w
 10407  0363' 1283               	bcf	3,5	;RP0=0, select bank0
 10408  0364' 1303               	bcf	3,6	;RP1=0, select bank0
 10409  0365' 008B'              	movwf	___flmul@b+1
 10410  0366' 1683               	bsf	3,5	;RP0=1, select bank1
 10411  0367' 1303               	bcf	3,6	;RP1=0, select bank1
 10412  0368' 0800'              	movf	sprintf@fval^(0+128),w
 10413  0369' 1283               	bcf	3,5	;RP0=0, select bank0
 10414  036A' 1303               	bcf	3,6	;RP1=0, select bank0
 10415  036B' 008A'              	movwf	___flmul@b
 10416  036C' 120A' 118A' 2000' 120A' 118A' 	fcall	___flmul
 10417  0371' 1283               	bcf	3,5	;RP0=0, select bank0
 10418  0372' 1303               	bcf	3,6	;RP1=0, select bank0
 10419  0373' 080D'              	movf	?___flmul+3,w
 10420  0374' 00BA'              	movwf	___fltol@f1+3
 10421  0375' 080C'              	movf	?___flmul+2,w
 10422  0376' 00B9'              	movwf	___fltol@f1+2
 10423  0377' 080B'              	movf	?___flmul+1,w
 10424  0378' 00B8'              	movwf	___fltol@f1+1
 10425  0379' 080A'              	movf	?___flmul,w
 10426  037A' 00B7'              	movwf	___fltol@f1
 10427  037B' 120A' 118A' 2000' 120A' 118A' 	fcall	___fltol
 10428  0380' 1283               	bcf	3,5	;RP0=0, select bank0
 10429  0381' 1303               	bcf	3,6	;RP1=0, select bank0
 10430  0382' 083A'              	movf	?___fltol+3,w
 10431  0383' 1683               	bsf	3,5	;RP0=1, select bank1
 10432  0384' 1303               	bcf	3,6	;RP1=0, select bank1
 10433  0385' 0080'              	movwf	(sprintf@val+3)^(0+128)
 10434  0386' 1283               	bcf	3,5	;RP0=0, select bank0
 10435  0387' 1303               	bcf	3,6	;RP1=0, select bank0
 10436  0388' 0839'              	movf	?___fltol+2,w
 10437  0389' 1683               	bsf	3,5	;RP0=1, select bank1
 10438  038A' 1303               	bcf	3,6	;RP1=0, select bank1
 10439  038B' 0080'              	movwf	(sprintf@val+2)^(0+128)
 10440  038C' 1283               	bcf	3,5	;RP0=0, select bank0
 10441  038D' 1303               	bcf	3,6	;RP1=0, select bank0
 10442  038E' 0838'              	movf	?___fltol+1,w
 10443  038F' 1683               	bsf	3,5	;RP0=1, select bank1
 10444  0390' 1303               	bcf	3,6	;RP1=0, select bank1
 10445  0391' 0080'              	movwf	(sprintf@val+1)^(0+128)
 10446  0392' 1283               	bcf	3,5	;RP0=0, select bank0
 10447  0393' 1303               	bcf	3,6	;RP1=0, select bank0
 10448  0394' 0837'              	movf	?___fltol,w
 10449  0395' 1683               	bsf	3,5	;RP0=1, select bank1
 10450  0396' 1303               	bcf	3,6	;RP1=0, select bank1
 10451  0397' 0080'              	movwf	sprintf@val^(0+128)
 10452                           
 10453                           ;C:\Program Files\Microchip\xc8\v2.31\pic\sources\c90\common\doprnt.c: 1254:    while(c-
      +                          -) {
 10454  0398' 2800'              	goto	l4258
 10455  0399'                    l4250:
 10456                           
 10457                           ;C:\Program Files\Microchip\xc8\v2.31\pic\sources\c90\common\doprnt.c: 1255:     tmpval.
      +                          vd = val/dpowers[c];
 10458  0399' 0800'              	movf	sprintf@c^(0+128),w
 10459  039A' 0080'              	movwf	??_sprintf^(0+128)
 10460  039B' 3001               	movlw	1
 10461  039C'                    u7435:
 10462  039C' 1003               	clrc
 10463  039D' 0D80'              	rlf	??_sprintf^(0+128),f
 10464  039E' 3EFF               	addlw	-1
 10465  039F' 1D03               	skipz
 10466  03A0' 2800'              	goto	u7435
 10467  03A1' 1003               	clrc
 10468  03A2' 0D00'              	rlf	??_sprintf^(0+128),w
 10469  03A3' 3E69               	addlw	low ((_dpowers-__stringbase)| (0+32768))
 10470  03A4' 0084               	movwf	4
 10471  03A5' 120A' 118A' 2000' 120A' 118A' 	fcall	stringdir
 10472  03AA' 1283               	bcf	3,5	;RP0=0, select bank0
 10473  03AB' 1303               	bcf	3,6	;RP1=0, select bank0
 10474  03AC' 0080'              	movwf	___lldiv@divisor
 10475  03AD' 120A' 118A' 2000' 120A' 118A' 	fcall	stringdir
 10476  03B2' 0081'              	movwf	___lldiv@divisor+1
 10477  03B3' 120A' 118A' 2000' 120A' 118A' 	fcall	stringdir
 10478  03B8' 0082'              	movwf	___lldiv@divisor+2
 10479  03B9' 120A' 118A' 2000' 120A' 118A' 	fcall	stringdir
 10480  03BE' 0083'              	movwf	___lldiv@divisor+3
 10481  03BF' 1683               	bsf	3,5	;RP0=1, select bank1
 10482  03C0' 1303               	bcf	3,6	;RP1=0, select bank1
 10483  03C1' 0800'              	movf	(sprintf@val+3)^(0+128),w
 10484  03C2' 1283               	bcf	3,5	;RP0=0, select bank0
 10485  03C3' 1303               	bcf	3,6	;RP1=0, select bank0
 10486  03C4' 0087'              	movwf	___lldiv@dividend+3
 10487  03C5' 1683               	bsf	3,5	;RP0=1, select bank1
 10488  03C6' 1303               	bcf	3,6	;RP1=0, select bank1
 10489  03C7' 0800'              	movf	(sprintf@val+2)^(0+128),w
 10490  03C8' 1283               	bcf	3,5	;RP0=0, select bank0
 10491  03C9' 1303               	bcf	3,6	;RP1=0, select bank0
 10492  03CA' 0086'              	movwf	___lldiv@dividend+2
 10493  03CB' 1683               	bsf	3,5	;RP0=1, select bank1
 10494  03CC' 1303               	bcf	3,6	;RP1=0, select bank1
 10495  03CD' 0800'              	movf	(sprintf@val+1)^(0+128),w
 10496  03CE' 1283               	bcf	3,5	;RP0=0, select bank0
 10497  03CF' 1303               	bcf	3,6	;RP1=0, select bank0
 10498  03D0' 0085'              	movwf	___lldiv@dividend+1
 10499  03D1' 1683               	bsf	3,5	;RP0=1, select bank1
 10500  03D2' 1303               	bcf	3,6	;RP1=0, select bank1
 10501  03D3' 0800'              	movf	sprintf@val^(0+128),w
 10502  03D4' 1283               	bcf	3,5	;RP0=0, select bank0
 10503  03D5' 1303               	bcf	3,6	;RP1=0, select bank0
 10504  03D6' 0084'              	movwf	___lldiv@dividend
 10505  03D7' 120A' 118A' 2000' 120A' 118A' 	fcall	___lldiv
 10506  03DC' 1283               	bcf	3,5	;RP0=0, select bank0
 10507  03DD' 1303               	bcf	3,6	;RP1=0, select bank0
 10508  03DE' 0803'              	movf	?___lldiv+3,w
 10509  03DF' 1683               	bsf	3,5	;RP0=1, select bank1
 10510  03E0' 1303               	bcf	3,6	;RP1=0, select bank1
 10511  03E1' 0080'              	movwf	(sprintf@tmpval+3)^(0+128)
 10512  03E2' 1283               	bcf	3,5	;RP0=0, select bank0
 10513  03E3' 1303               	bcf	3,6	;RP1=0, select bank0
 10514  03E4' 0802'              	movf	?___lldiv+2,w
 10515  03E5' 1683               	bsf	3,5	;RP0=1, select bank1
 10516  03E6' 1303               	bcf	3,6	;RP1=0, select bank1
 10517  03E7' 0080'              	movwf	(sprintf@tmpval+2)^(0+128)
 10518  03E8' 1283               	bcf	3,5	;RP0=0, select bank0
 10519  03E9' 1303               	bcf	3,6	;RP1=0, select bank0
 10520  03EA' 0801'              	movf	?___lldiv+1,w
 10521  03EB' 1683               	bsf	3,5	;RP0=1, select bank1
 10522  03EC' 1303               	bcf	3,6	;RP1=0, select bank1
 10523  03ED' 0080'              	movwf	(sprintf@tmpval+1)^(0+128)
 10524  03EE' 1283               	bcf	3,5	;RP0=0, select bank0
 10525  03EF' 1303               	bcf	3,6	;RP1=0, select bank0
 10526  03F0' 0800'              	movf	?___lldiv,w
 10527  03F1' 1683               	bsf	3,5	;RP0=1, select bank1
 10528  03F2' 1303               	bcf	3,6	;RP1=0, select bank1
 10529  03F3' 0080'              	movwf	sprintf@tmpval^(0+128)
 10530  03F4'                    l4252:
 10531                           
 10532                           ;C:\Program Files\Microchip\xc8\v2.31\pic\sources\c90\common\doprnt.c: 1256:     tmpval.
      +                          vd %= 10;
 10533  03F4' 3000               	movlw	0
 10534  03F5' 1283               	bcf	3,5	;RP0=0, select bank0
 10535  03F6' 1303               	bcf	3,6	;RP1=0, select bank0
 10536  03F7' 008B'              	movwf	___llmod@divisor+3
 10537  03F8' 3000               	movlw	0
 10538  03F9' 008A'              	movwf	___llmod@divisor+2
 10539  03FA' 3000               	movlw	0
 10540  03FB' 0089'              	movwf	___llmod@divisor+1
 10541  03FC' 300A               	movlw	10
 10542  03FD' 0088'              	movwf	___llmod@divisor
 10543  03FE' 1683               	bsf	3,5	;RP0=1, select bank1
 10544  03FF' 1303               	bcf	3,6	;RP1=0, select bank1
 10545  0400' 0800'              	movf	(sprintf@tmpval+3)^(0+128),w
 10546  0401' 1283               	bcf	3,5	;RP0=0, select bank0
 10547  0402' 1303               	bcf	3,6	;RP1=0, select bank0
 10548  0403' 008F'              	movwf	___llmod@dividend+3
 10549  0404' 1683               	bsf	3,5	;RP0=1, select bank1
 10550  0405' 1303               	bcf	3,6	;RP1=0, select bank1
 10551  0406' 0800'              	movf	(sprintf@tmpval+2)^(0+128),w
 10552  0407' 1283               	bcf	3,5	;RP0=0, select bank0
 10553  0408' 1303               	bcf	3,6	;RP1=0, select bank0
 10554  0409' 008E'              	movwf	___llmod@dividend+2
 10555  040A' 1683               	bsf	3,5	;RP0=1, select bank1
 10556  040B' 1303               	bcf	3,6	;RP1=0, select bank1
 10557  040C' 0800'              	movf	(sprintf@tmpval+1)^(0+128),w
 10558  040D' 1283               	bcf	3,5	;RP0=0, select bank0
 10559  040E' 1303               	bcf	3,6	;RP1=0, select bank0
 10560  040F' 008D'              	movwf	___llmod@dividend+1
 10561  0410' 1683               	bsf	3,5	;RP0=1, select bank1
 10562  0411' 1303               	bcf	3,6	;RP1=0, select bank1
 10563  0412' 0800'              	movf	sprintf@tmpval^(0+128),w
 10564  0413' 1283               	bcf	3,5	;RP0=0, select bank0
 10565  0414' 1303               	bcf	3,6	;RP1=0, select bank0
 10566  0415' 008C'              	movwf	___llmod@dividend
 10567  0416' 120A' 118A' 2000' 120A' 118A' 	fcall	___llmod
 10568  041B' 1283               	bcf	3,5	;RP0=0, select bank0
 10569  041C' 1303               	bcf	3,6	;RP1=0, select bank0
 10570  041D' 080B'              	movf	?___llmod+3,w
 10571  041E' 1683               	bsf	3,5	;RP0=1, select bank1
 10572  041F' 1303               	bcf	3,6	;RP1=0, select bank1
 10573  0420' 0080'              	movwf	(sprintf@tmpval+3)^(0+128)
 10574  0421' 1283               	bcf	3,5	;RP0=0, select bank0
 10575  0422' 1303               	bcf	3,6	;RP1=0, select bank0
 10576  0423' 080A'              	movf	?___llmod+2,w
 10577  0424' 1683               	bsf	3,5	;RP0=1, select bank1
 10578  0425' 1303               	bcf	3,6	;RP1=0, select bank1
 10579  0426' 0080'              	movwf	(sprintf@tmpval+2)^(0+128)
 10580  0427' 1283               	bcf	3,5	;RP0=0, select bank0
 10581  0428' 1303               	bcf	3,6	;RP1=0, select bank0
 10582  0429' 0809'              	movf	?___llmod+1,w
 10583  042A' 1683               	bsf	3,5	;RP0=1, select bank1
 10584  042B' 1303               	bcf	3,6	;RP1=0, select bank1
 10585  042C' 0080'              	movwf	(sprintf@tmpval+1)^(0+128)
 10586  042D' 1283               	bcf	3,5	;RP0=0, select bank0
 10587  042E' 1303               	bcf	3,6	;RP1=0, select bank0
 10588  042F' 0808'              	movf	?___llmod,w
 10589  0430' 1683               	bsf	3,5	;RP0=1, select bank1
 10590  0431' 1303               	bcf	3,6	;RP1=0, select bank1
 10591  0432' 0080'              	movwf	sprintf@tmpval^(0+128)
 10592  0433'                    l4254:
 10593                           
 10594                           ;C:\Program Files\Microchip\xc8\v2.31\pic\sources\c90\common\doprnt.c: 1257:     ((*sp++
      +                           = ('0' + tmpval.vd)));
 10595  0433' 0800'              	movf	sprintf@tmpval^(0+128),w
 10596  0434' 3E30               	addlw	48
 10597  0435' 0080'              	movwf	??_sprintf^(0+128)
 10598  0436' 0800'              	movf	sprintf@sp^(0+128),w
 10599  0437' 0084               	movwf	4
 10600  0438' 0800'              	movf	??_sprintf^(0+128),w
 10601  0439' 1383               	bcf	3,7	;select IRP bank0
 10602  043A' 0080               	movwf	0
 10603  043B' 3001               	movlw	1
 10604  043C' 0080'              	movwf	??_sprintf^(0+128)
 10605  043D' 0800'              	movf	??_sprintf^(0+128),w
 10606  043E' 0780'              	addwf	sprintf@sp^(0+128),f
 10607  043F'                    l4256:
 10608                           
 10609                           ;C:\Program Files\Microchip\xc8\v2.31\pic\sources\c90\common\doprnt.c: 1258:     val %= 
      +                          dpowers[c];
 10610  043F' 0800'              	movf	sprintf@c^(0+128),w
 10611  0440' 0080'              	movwf	??_sprintf^(0+128)
 10612  0441' 3001               	movlw	1
 10613  0442'                    u7445:
 10614  0442' 1003               	clrc
 10615  0443' 0D80'              	rlf	??_sprintf^(0+128),f
 10616  0444' 3EFF               	addlw	-1
 10617  0445' 1D03               	skipz
 10618  0446' 2800'              	goto	u7445
 10619  0447' 1003               	clrc
 10620  0448' 0D00'              	rlf	??_sprintf^(0+128),w
 10621  0449' 3E69               	addlw	low ((_dpowers-__stringbase)| (0+32768))
 10622  044A' 0084               	movwf	4
 10623  044B' 120A' 118A' 2000' 120A' 118A' 	fcall	stringdir
 10624  0450' 1283               	bcf	3,5	;RP0=0, select bank0
 10625  0451' 1303               	bcf	3,6	;RP1=0, select bank0
 10626  0452' 0088'              	movwf	___llmod@divisor
 10627  0453' 120A' 118A' 2000' 120A' 118A' 	fcall	stringdir
 10628  0458' 0089'              	movwf	___llmod@divisor+1
 10629  0459' 120A' 118A' 2000' 120A' 118A' 	fcall	stringdir
 10630  045E' 008A'              	movwf	___llmod@divisor+2
 10631  045F' 120A' 118A' 2000' 120A' 118A' 	fcall	stringdir
 10632  0464' 008B'              	movwf	___llmod@divisor+3
 10633  0465' 1683               	bsf	3,5	;RP0=1, select bank1
 10634  0466' 1303               	bcf	3,6	;RP1=0, select bank1
 10635  0467' 0800'              	movf	(sprintf@val+3)^(0+128),w
 10636  0468' 1283               	bcf	3,5	;RP0=0, select bank0
 10637  0469' 1303               	bcf	3,6	;RP1=0, select bank0
 10638  046A' 008F'              	movwf	___llmod@dividend+3
 10639  046B' 1683               	bsf	3,5	;RP0=1, select bank1
 10640  046C' 1303               	bcf	3,6	;RP1=0, select bank1
 10641  046D' 0800'              	movf	(sprintf@val+2)^(0+128),w
 10642  046E' 1283               	bcf	3,5	;RP0=0, select bank0
 10643  046F' 1303               	bcf	3,6	;RP1=0, select bank0
 10644  0470' 008E'              	movwf	___llmod@dividend+2
 10645  0471' 1683               	bsf	3,5	;RP0=1, select bank1
 10646  0472' 1303               	bcf	3,6	;RP1=0, select bank1
 10647  0473' 0800'              	movf	(sprintf@val+1)^(0+128),w
 10648  0474' 1283               	bcf	3,5	;RP0=0, select bank0
 10649  0475' 1303               	bcf	3,6	;RP1=0, select bank0
 10650  0476' 008D'              	movwf	___llmod@dividend+1
 10651  0477' 1683               	bsf	3,5	;RP0=1, select bank1
 10652  0478' 1303               	bcf	3,6	;RP1=0, select bank1
 10653  0479' 0800'              	movf	sprintf@val^(0+128),w
 10654  047A' 1283               	bcf	3,5	;RP0=0, select bank0
 10655  047B' 1303               	bcf	3,6	;RP1=0, select bank0
 10656  047C' 008C'              	movwf	___llmod@dividend
 10657  047D' 120A' 118A' 2000' 120A' 118A' 	fcall	___llmod
 10658  0482' 1283               	bcf	3,5	;RP0=0, select bank0
 10659  0483' 1303               	bcf	3,6	;RP1=0, select bank0
 10660  0484' 080B'              	movf	?___llmod+3,w
 10661  0485' 1683               	bsf	3,5	;RP0=1, select bank1
 10662  0486' 1303               	bcf	3,6	;RP1=0, select bank1
 10663  0487' 0080'              	movwf	(sprintf@val+3)^(0+128)
 10664  0488' 1283               	bcf	3,5	;RP0=0, select bank0
 10665  0489' 1303               	bcf	3,6	;RP1=0, select bank0
 10666  048A' 080A'              	movf	?___llmod+2,w
 10667  048B' 1683               	bsf	3,5	;RP0=1, select bank1
 10668  048C' 1303               	bcf	3,6	;RP1=0, select bank1
 10669  048D' 0080'              	movwf	(sprintf@val+2)^(0+128)
 10670  048E' 1283               	bcf	3,5	;RP0=0, select bank0
 10671  048F' 1303               	bcf	3,6	;RP1=0, select bank0
 10672  0490' 0809'              	movf	?___llmod+1,w
 10673  0491' 1683               	bsf	3,5	;RP0=1, select bank1
 10674  0492' 1303               	bcf	3,6	;RP1=0, select bank1
 10675  0493' 0080'              	movwf	(sprintf@val+1)^(0+128)
 10676  0494' 1283               	bcf	3,5	;RP0=0, select bank0
 10677  0495' 1303               	bcf	3,6	;RP1=0, select bank0
 10678  0496' 0808'              	movf	?___llmod,w
 10679  0497' 1683               	bsf	3,5	;RP0=1, select bank1
 10680  0498' 1303               	bcf	3,6	;RP1=0, select bank1
 10681  0499' 0080'              	movwf	sprintf@val^(0+128)
 10682  049A'                    l4258:
 10683                           
 10684                           ;C:\Program Files\Microchip\xc8\v2.31\pic\sources\c90\common\doprnt.c: 1254:    while(c-
      +                          -) {
 10685  049A' 3001               	movlw	1
 10686  049B' 0280'              	subwf	sprintf@c^(0+128),f
 10687  049C' 0A00'              	incf	sprintf@c^(0+128),w
 10688  049D' 1D03               	btfss	3,2
 10689  049E' 2800'              	goto	u7451
 10690  049F' 2800'              	goto	u7450
 10691  04A0'                    u7451:
 10692  04A0' 2800'              	goto	l4250
 10693  04A1'                    u7450:
 10694  04A1' 2800'              	goto	l4266
 10695  04A2'                    l4260:
 10696                           
 10697                           ;C:\Program Files\Microchip\xc8\v2.31\pic\sources\c90\common\doprnt.c: 1262:     ((*sp++
      +                           = ('0')));
 10698  04A2' 3030               	movlw	48
 10699  04A3' 0080'              	movwf	??_sprintf^(0+128)
 10700  04A4' 0800'              	movf	sprintf@sp^(0+128),w
 10701  04A5' 0084               	movwf	4
 10702  04A6' 0800'              	movf	??_sprintf^(0+128),w
 10703  04A7' 1383               	bcf	3,7	;select IRP bank0
 10704  04A8' 0080               	movwf	0
 10705  04A9'                    l4262:
 10706  04A9' 3001               	movlw	1
 10707  04AA' 0080'              	movwf	??_sprintf^(0+128)
 10708  04AB' 0800'              	movf	??_sprintf^(0+128),w
 10709  04AC' 0780'              	addwf	sprintf@sp^(0+128),f
 10710  04AD'                    l4264:
 10711                           
 10712                           ;C:\Program Files\Microchip\xc8\v2.31\pic\sources\c90\common\doprnt.c: 1263:     prec--;
 10713  04AD' 30FF               	movlw	255
 10714  04AE' 0780'              	addwf	sprintf@prec^(0+128),f
 10715  04AF' 1803               	skipnc
 10716  04B0' 0A80'              	incf	(sprintf@prec+1)^(0+128),f
 10717  04B1' 30FF               	movlw	255
 10718  04B2' 0780'              	addwf	(sprintf@prec+1)^(0+128),f
 10719  04B3'                    l4266:
 10720                           
 10721                           ;C:\Program Files\Microchip\xc8\v2.31\pic\sources\c90\common\doprnt.c: 1261:    while(pr
      +                          ec) {
 10722  04B3' 0800'              	movf	sprintf@prec^(0+128),w
 10723  04B4' 0400'              	iorwf	(sprintf@prec+1)^(0+128),w
 10724  04B5' 1D03               	btfss	3,2
 10725  04B6' 2800'              	goto	u7461
 10726  04B7' 2800'              	goto	u7460
 10727  04B8'                    u7461:
 10728  04B8' 2800'              	goto	l4260
 10729  04B9'                    u7460:
 10730  04B9' 2800'              	goto	l4346
 10731  04BA'                    l4268:
 10732                           
 10733                           ;C:\Program Files\Microchip\xc8\v2.31\pic\sources\c90\common\doprnt.c: 1279:   {;C:\Prog
      +                          ram Files\Microchip\xc8\v2.31\pic\sources\c90\common\doprnt.c: 1285:     val = (unsigned
      +                           long)(*(int *)__va_arg((*(int **)ap), (int)0));
 10734  04BA' 0800'              	movf	sprintf@ap^(0+128),w
 10735  04BB' 0084               	movwf	4
 10736  04BC' 1383               	bcf	3,7	;select IRP bank0
 10737  04BD' 0800               	movf	0,w
 10738  04BE' 0080'              	movwf	??_sprintf^(0+128)
 10739  04BF' 0A84               	incf	4,f
 10740  04C0' 0800               	movf	0,w
 10741  04C1' 0081'              	movwf	(??_sprintf^(0+128)+1)
 10742  04C2' 0800'              	movf	??_sprintf^(0+128),w
 10743  04C3' 0080'              	movwf	sprintf@val^(0+128)
 10744  04C4' 0800'              	movf	(??_sprintf+1)^(0+128),w
 10745  04C5' 0080'              	movwf	(sprintf@val+1)^(0+128)
 10746  04C6' 3000               	movlw	0
 10747  04C7' 1B80'              	btfsc	(sprintf@val+1)^(0+128),7
 10748  04C8' 30FF               	movlw	255
 10749  04C9' 0080'              	movwf	(sprintf@val+2)^(0+128)
 10750  04CA' 0080'              	movwf	(sprintf@val+3)^(0+128)
 10751  04CB'                    l4270:
 10752  04CB' 3002               	movlw	2
 10753  04CC' 0080'              	movwf	??_sprintf^(0+128)
 10754  04CD' 0800'              	movf	??_sprintf^(0+128),w
 10755  04CE' 0780'              	addwf	sprintf@ap^(0+128),f
 10756  04CF'                    l4272:
 10757                           
 10758                           ;C:\Program Files\Microchip\xc8\v2.31\pic\sources\c90\common\doprnt.c: 1287:    if((long
      +                          )val < 0) {
 10759  04CF' 1F80'              	btfss	(sprintf@val+3)^(0+128),7
 10760  04D0' 2800'              	goto	u7471
 10761  04D1' 2800'              	goto	u7470
 10762  04D2'                    u7471:
 10763  04D2' 2800'              	goto	l4278
 10764  04D3'                    u7470:
 10765  04D3'                    l4274:
 10766                           
 10767                           ;C:\Program Files\Microchip\xc8\v2.31\pic\sources\c90\common\doprnt.c: 1288:     flag |=
      +                           0x03;
 10768  04D3' 3003               	movlw	3
 10769  04D4' 0480'              	iorwf	sprintf@flag^(0+128),f
 10770  04D5' 3000               	movlw	0
 10771  04D6' 0480'              	iorwf	(sprintf@flag+1)^(0+128),f
 10772  04D7'                    l4276:
 10773                           
 10774                           ;C:\Program Files\Microchip\xc8\v2.31\pic\sources\c90\common\doprnt.c: 1289:     val = -
      +                          val;
 10775  04D7' 0980'              	comf	sprintf@val^(0+128),f
 10776  04D8' 0980'              	comf	(sprintf@val+1)^(0+128),f
 10777  04D9' 0980'              	comf	(sprintf@val+2)^(0+128),f
 10778  04DA' 0980'              	comf	(sprintf@val+3)^(0+128),f
 10779  04DB' 0A80'              	incf	sprintf@val^(0+128),f
 10780  04DC' 1903               	skipnz
 10781  04DD' 0A80'              	incf	(sprintf@val+1)^(0+128),f
 10782  04DE' 1903               	skipnz
 10783  04DF' 0A80'              	incf	(sprintf@val+2)^(0+128),f
 10784  04E0' 1903               	skipnz
 10785  04E1' 0A80'              	incf	(sprintf@val+3)^(0+128),f
 10786  04E2'                    l4278:
 10787                           
 10788                           ;C:\Program Files\Microchip\xc8\v2.31\pic\sources\c90\common\doprnt.c: 1292:   };C:\Prog
      +                          ram Files\Microchip\xc8\v2.31\pic\sources\c90\common\doprnt.c: 1316:   if(prec == 0 && v
      +                          al == 0)
 10789  04E2' 0800'              	movf	sprintf@prec^(0+128),w
 10790  04E3' 0400'              	iorwf	(sprintf@prec+1)^(0+128),w
 10791  04E4' 1D03               	btfss	3,2
 10792  04E5' 2800'              	goto	u7481
 10793  04E6' 2800'              	goto	u7480
 10794  04E7'                    u7481:
 10795  04E7' 2800'              	goto	l4284
 10796  04E8'                    u7480:
 10797  04E8'                    l4280:
 10798  04E8' 0800'              	movf	(sprintf@val+3)^(0+128),w
 10799  04E9' 0400'              	iorwf	(sprintf@val+2)^(0+128),w
 10800  04EA' 0400'              	iorwf	(sprintf@val+1)^(0+128),w
 10801  04EB' 0400'              	iorwf	sprintf@val^(0+128),w
 10802  04EC' 1D03               	skipz
 10803  04ED' 2800'              	goto	u7491
 10804  04EE' 2800'              	goto	u7490
 10805  04EF'                    u7491:
 10806  04EF' 2800'              	goto	l4284
 10807  04F0'                    u7490:
 10808  04F0'                    l4282:
 10809                           
 10810                           ;C:\Program Files\Microchip\xc8\v2.31\pic\sources\c90\common\doprnt.c: 1317:    prec++;
 10811  04F0' 3001               	movlw	1
 10812  04F1' 0780'              	addwf	sprintf@prec^(0+128),f
 10813  04F2' 1803               	skipnc
 10814  04F3' 0A80'              	incf	(sprintf@prec+1)^(0+128),f
 10815  04F4' 3000               	movlw	0
 10816  04F5' 0780'              	addwf	(sprintf@prec+1)^(0+128),f
 10817  04F6'                    l4284:
 10818                           
 10819                           ;C:\Program Files\Microchip\xc8\v2.31\pic\sources\c90\common\doprnt.c: 1331:    for(c = 
      +                          1 ; c != sizeof dpowers/sizeof dpowers[0] ; c++)
 10820  04F6' 0180'              	clrf	sprintf@c^(0+128)
 10821  04F7' 0A80'              	incf	sprintf@c^(0+128),f
 10822  04F8'                    l4290:
 10823                           
 10824                           ;C:\Program Files\Microchip\xc8\v2.31\pic\sources\c90\common\doprnt.c: 1332:     if(val 
      +                          < dpowers[c])
 10825  04F8' 0800'              	movf	sprintf@c^(0+128),w
 10826  04F9' 0080'              	movwf	??_sprintf^(0+128)
 10827  04FA' 3001               	movlw	1
 10828  04FB'                    u7505:
 10829  04FB' 1003               	clrc
 10830  04FC' 0D80'              	rlf	??_sprintf^(0+128),f
 10831  04FD' 3EFF               	addlw	-1
 10832  04FE' 1D03               	skipz
 10833  04FF' 2800'              	goto	u7505
 10834  0500' 1003               	clrc
 10835  0501' 0D00'              	rlf	??_sprintf^(0+128),w
 10836  0502' 3E69               	addlw	low ((_dpowers-__stringbase)| (0+32768))
 10837  0503' 0084               	movwf	4
 10838  0504' 120A' 118A' 2000' 120A' 118A' 	fcall	stringdir
 10839  0509' 0080'              	movwf	(??_sprintf+1)^(0+128)
 10840  050A' 120A' 118A' 2000' 120A' 118A' 	fcall	stringdir
 10841  050F' 0081'              	movwf	((??_sprintf+1)^(0+128)+1)
 10842  0510' 120A' 118A' 2000' 120A' 118A' 	fcall	stringdir
 10843  0515' 0082'              	movwf	((??_sprintf+1)^(0+128)+2)
 10844  0516' 120A' 118A' 2000' 120A' 118A' 	fcall	stringdir
 10845  051B' 0083'              	movwf	((??_sprintf+1)^(0+128)+3)
 10846  051C' 0800'              	movf	(??_sprintf+4)^(0+128),w
 10847  051D' 0200'              	subwf	(sprintf@val+3)^(0+128),w
 10848  051E' 1D03               	skipz
 10849  051F' 2800'              	goto	u7515
 10850  0520' 0800'              	movf	(??_sprintf+3)^(0+128),w
 10851  0521' 0200'              	subwf	(sprintf@val+2)^(0+128),w
 10852  0522' 1D03               	skipz
 10853  0523' 2800'              	goto	u7515
 10854  0524' 0800'              	movf	(??_sprintf+2)^(0+128),w
 10855  0525' 0200'              	subwf	(sprintf@val+1)^(0+128),w
 10856  0526' 1D03               	skipz
 10857  0527' 2800'              	goto	u7515
 10858  0528' 0800'              	movf	(??_sprintf+1)^(0+128),w
 10859  0529' 0200'              	subwf	sprintf@val^(0+128),w
 10860  052A'                    u7515:
 10861  052A' 1803               	skipnc
 10862  052B' 2800'              	goto	u7511
 10863  052C' 2800'              	goto	u7510
 10864  052D'                    u7511:
 10865  052D' 2800'              	goto	l4294
 10866  052E'                    u7510:
 10867  052E' 2800'              	goto	l4296
 10868  052F'                    l4294:
 10869  052F' 3001               	movlw	1
 10870  0530' 0080'              	movwf	??_sprintf^(0+128)
 10871  0531' 0800'              	movf	??_sprintf^(0+128),w
 10872  0532' 0780'              	addwf	sprintf@c^(0+128),f
 10873  0533' 300A               	movlw	10
 10874  0534' 0600'              	xorwf	sprintf@c^(0+128),w
 10875  0535' 1D03               	btfss	3,2
 10876  0536' 2800'              	goto	u7521
 10877  0537' 2800'              	goto	u7520
 10878  0538'                    u7521:
 10879  0538' 2800'              	goto	l4290
 10880  0539'                    u7520:
 10881  0539'                    l4296:
 10882                           
 10883                           ;C:\Program Files\Microchip\xc8\v2.31\pic\sources\c90\common\doprnt.c: 1365:   if(c < pr
      +                          ec)
 10884  0539' 0800'              	movf	(sprintf@prec+1)^(0+128),w
 10885  053A' 3A80               	xorlw	128
 10886  053B' 3C80               	sublw	128
 10887  053C' 1D03               	skipz
 10888  053D' 2800'              	goto	u7535
 10889  053E' 0800'              	movf	sprintf@prec^(0+128),w
 10890  053F' 0200'              	subwf	sprintf@c^(0+128),w
 10891  0540'                    u7535:
 10892  0540' 1803               	skipnc
 10893  0541' 2800'              	goto	u7531
 10894  0542' 2800'              	goto	u7530
 10895  0543'                    u7531:
 10896  0543' 2800'              	goto	l4300
 10897  0544'                    u7530:
 10898  0544'                    l4298:
 10899                           
 10900                           ;C:\Program Files\Microchip\xc8\v2.31\pic\sources\c90\common\doprnt.c: 1366:    c = (cha
      +                          r)prec;
 10901  0544' 1683               	bsf	3,5	;RP0=1, select bank1
 10902  0545' 1303               	bcf	3,6	;RP1=0, select bank1
 10903  0546' 0800'              	movf	sprintf@prec^(0+128),w
 10904  0547' 0080'              	movwf	??_sprintf^(0+128)
 10905  0548' 0800'              	movf	??_sprintf^(0+128),w
 10906  0549' 0080'              	movwf	sprintf@c^(0+128)
 10907  054A' 2800'              	goto	l4304
 10908  054B'                    l4300:
 10909  054B' 1683               	bsf	3,5	;RP0=1, select bank1
 10910  054C' 1303               	bcf	3,6	;RP1=0, select bank1
 10911  054D' 0800'              	movf	(sprintf@prec+1)^(0+128),w
 10912  054E' 3A80               	xorlw	128
 10913  054F' 0080'              	movwf	??_sprintf^(0+128)
 10914  0550' 3080               	movlw	128
 10915  0551' 0200'              	subwf	??_sprintf^(0+128),w
 10916  0552' 1D03               	skipz
 10917  0553' 2800'              	goto	u7545
 10918  0554' 0800'              	movf	sprintf@c^(0+128),w
 10919  0555' 0200'              	subwf	sprintf@prec^(0+128),w
 10920  0556'                    u7545:
 10921  0556' 1803               	skipnc
 10922  0557' 2800'              	goto	u7541
 10923  0558' 2800'              	goto	u7540
 10924  0559'                    u7541:
 10925  0559' 2800'              	goto	l4304
 10926  055A'                    u7540:
 10927  055A'                    l4302:
 10928                           
 10929                           ;C:\Program Files\Microchip\xc8\v2.31\pic\sources\c90\common\doprnt.c: 1368:    prec = c
      +                          ;
 10930  055A' 1683               	bsf	3,5	;RP0=1, select bank1
 10931  055B' 1303               	bcf	3,6	;RP1=0, select bank1
 10932  055C' 0800'              	movf	sprintf@c^(0+128),w
 10933  055D' 0080'              	movwf	??_sprintf^(0+128)
 10934  055E' 0181'              	clrf	(??_sprintf^(0+128)+1)
 10935  055F' 0800'              	movf	??_sprintf^(0+128),w
 10936  0560' 0080'              	movwf	sprintf@prec^(0+128)
 10937  0561' 0800'              	movf	(??_sprintf+1)^(0+128),w
 10938  0562' 0080'              	movwf	(sprintf@prec+1)^(0+128)
 10939  0563'                    l4304:
 10940                           
 10941                           ;C:\Program Files\Microchip\xc8\v2.31\pic\sources\c90\common\doprnt.c: 1371:   if(width 
      +                          && flag & 0x03)
 10942  0563' 1683               	bsf	3,5	;RP0=1, select bank1
 10943  0564' 1303               	bcf	3,6	;RP1=0, select bank1
 10944  0565' 0800'              	movf	sprintf@width^(0+128),w
 10945  0566' 0400'              	iorwf	(sprintf@width+1)^(0+128),w
 10946  0567' 1903               	btfsc	3,2
 10947  0568' 2800'              	goto	u7551
 10948  0569' 2800'              	goto	u7550
 10949  056A'                    u7551:
 10950  056A' 2800'              	goto	l4310
 10951  056B'                    u7550:
 10952  056B'                    l4306:
 10953  056B' 3003               	movlw	3
 10954  056C' 0500'              	andwf	sprintf@flag^(0+128),w
 10955  056D' 0080'              	movwf	??_sprintf^(0+128)
 10956  056E' 3000               	movlw	0
 10957  056F' 0500'              	andwf	(sprintf@flag+1)^(0+128),w
 10958  0570' 0080'              	movwf	(??_sprintf+1)^(0+128)
 10959  0571' 0800'              	movf	??_sprintf^(0+128),w
 10960  0572' 0401'              	iorwf	(??_sprintf^(0+128)+1),w
 10961  0573' 1903               	btfsc	3,2
 10962  0574' 2800'              	goto	u7561
 10963  0575' 2800'              	goto	u7560
 10964  0576'                    u7561:
 10965  0576' 2800'              	goto	l4310
 10966  0577'                    u7560:
 10967  0577'                    l4308:
 10968                           
 10969                           ;C:\Program Files\Microchip\xc8\v2.31\pic\sources\c90\common\doprnt.c: 1372:    width--;
 10970  0577' 30FF               	movlw	255
 10971  0578' 0780'              	addwf	sprintf@width^(0+128),f
 10972  0579' 1803               	skipnc
 10973  057A' 0A80'              	incf	(sprintf@width+1)^(0+128),f
 10974  057B' 30FF               	movlw	255
 10975  057C' 0780'              	addwf	(sprintf@width+1)^(0+128),f
 10976  057D'                    l4310:
 10977                           
 10978                           ;C:\Program Files\Microchip\xc8\v2.31\pic\sources\c90\common\doprnt.c: 1374:   if(flag &
      +                           0x4000) {
 10979  057D' 1F00'              	btfss	(sprintf@flag+1)^(0+128),6
 10980  057E' 2800'              	goto	u7571
 10981  057F' 2800'              	goto	u7570
 10982  0580'                    u7571:
 10983  0580' 2800'              	goto	l4318
 10984  0581'                    u7570:
 10985  0581'                    l4312:
 10986                           
 10987                           ;C:\Program Files\Microchip\xc8\v2.31\pic\sources\c90\common\doprnt.c: 1375:    if(width
      +                           > prec)
 10988  0581' 0800'              	movf	(sprintf@prec+1)^(0+128),w
 10989  0582' 3A80               	xorlw	128
 10990  0583' 0080'              	movwf	??_sprintf^(0+128)
 10991  0584' 0800'              	movf	(sprintf@width+1)^(0+128),w
 10992  0585' 3A80               	xorlw	128
 10993  0586' 0200'              	subwf	??_sprintf^(0+128),w
 10994  0587' 1D03               	skipz
 10995  0588' 2800'              	goto	u7585
 10996  0589' 0800'              	movf	sprintf@width^(0+128),w
 10997  058A' 0200'              	subwf	sprintf@prec^(0+128),w
 10998  058B'                    u7585:
 10999  058B' 1803               	skipnc
 11000  058C' 2800'              	goto	u7581
 11001  058D' 2800'              	goto	u7580
 11002  058E'                    u7581:
 11003  058E' 2800'              	goto	l4316
 11004  058F'                    u7580:
 11005  058F'                    l4314:
 11006                           
 11007                           ;C:\Program Files\Microchip\xc8\v2.31\pic\sources\c90\common\doprnt.c: 1376:     width -
      +                          = prec;
 11008  058F' 1683               	bsf	3,5	;RP0=1, select bank1
 11009  0590' 1303               	bcf	3,6	;RP1=0, select bank1
 11010  0591' 0800'              	movf	sprintf@prec^(0+128),w
 11011  0592' 0280'              	subwf	sprintf@width^(0+128),f
 11012  0593' 0800'              	movf	(sprintf@prec+1)^(0+128),w
 11013  0594' 1C03               	skipc
 11014  0595' 0380'              	decf	(sprintf@width+1)^(0+128),f
 11015  0596' 0280'              	subwf	(sprintf@width+1)^(0+128),f
 11016  0597' 2800'              	goto	l4318
 11017  0598'                    l4316:
 11018                           
 11019                           ;C:\Program Files\Microchip\xc8\v2.31\pic\sources\c90\common\doprnt.c: 1378:     width =
      +                           0;
 11020  0598' 1683               	bsf	3,5	;RP0=1, select bank1
 11021  0599' 1303               	bcf	3,6	;RP1=0, select bank1
 11022  059A' 0180'              	clrf	sprintf@width^(0+128)
 11023  059B' 0180'              	clrf	(sprintf@width+1)^(0+128)
 11024  059C'                    l4318:
 11025                           
 11026                           ;C:\Program Files\Microchip\xc8\v2.31\pic\sources\c90\common\doprnt.c: 1407:   if(width 
      +                          > c)
 11027  059C' 0800'              	movf	(sprintf@width+1)^(0+128),w
 11028  059D' 3A80               	xorlw	128
 11029  059E' 3C80               	sublw	128
 11030  059F' 1D03               	skipz
 11031  05A0' 2800'              	goto	u7595
 11032  05A1' 0800'              	movf	sprintf@width^(0+128),w
 11033  05A2' 0200'              	subwf	sprintf@c^(0+128),w
 11034  05A3'                    u7595:
 11035  05A3' 1803               	skipnc
 11036  05A4' 2800'              	goto	u7591
 11037  05A5' 2800'              	goto	u7590
 11038  05A6'                    u7591:
 11039  05A6' 2800'              	goto	l4322
 11040  05A7'                    u7590:
 11041  05A7'                    l4320:
 11042                           
 11043                           ;C:\Program Files\Microchip\xc8\v2.31\pic\sources\c90\common\doprnt.c: 1408:    width -=
      +                           c;
 11044  05A7' 1683               	bsf	3,5	;RP0=1, select bank1
 11045  05A8' 1303               	bcf	3,6	;RP1=0, select bank1
 11046  05A9' 0800'              	movf	sprintf@c^(0+128),w
 11047  05AA' 0080'              	movwf	??_sprintf^(0+128)
 11048  05AB' 0181'              	clrf	(??_sprintf^(0+128)+1)
 11049  05AC' 0800'              	movf	??_sprintf^(0+128),w
 11050  05AD' 0280'              	subwf	sprintf@width^(0+128),f
 11051  05AE' 0800'              	movf	(??_sprintf+1)^(0+128),w
 11052  05AF' 1C03               	skipc
 11053  05B0' 0380'              	decf	(sprintf@width+1)^(0+128),f
 11054  05B1' 0280'              	subwf	(sprintf@width+1)^(0+128),f
 11055  05B2' 2800'              	goto	l4324
 11056  05B3'                    l4322:
 11057                           
 11058                           ;C:\Program Files\Microchip\xc8\v2.31\pic\sources\c90\common\doprnt.c: 1410:    width = 
      +                          0;
 11059  05B3' 1683               	bsf	3,5	;RP0=1, select bank1
 11060  05B4' 1303               	bcf	3,6	;RP1=0, select bank1
 11061  05B5' 0180'              	clrf	sprintf@width^(0+128)
 11062  05B6' 0180'              	clrf	(sprintf@width+1)^(0+128)
 11063  05B7'                    l4324:
 11064                           
 11065                           ;C:\Program Files\Microchip\xc8\v2.31\pic\sources\c90\common\doprnt.c: 1448:   {;C:\Prog
      +                          ram Files\Microchip\xc8\v2.31\pic\sources\c90\common\doprnt.c: 1450:    if(width
 11066  05B7' 0800'              	movf	sprintf@width^(0+128),w
 11067  05B8' 0400'              	iorwf	(sprintf@width+1)^(0+128),w
 11068  05B9' 1903               	btfsc	3,2
 11069  05BA' 2800'              	goto	u7601
 11070  05BB' 2800'              	goto	u7600
 11071  05BC'                    u7601:
 11072  05BC' 2800'              	goto	l4332
 11073  05BD'                    u7600:
 11074  05BD'                    l4326:
 11075                           
 11076                           ;C:\Program Files\Microchip\xc8\v2.31\pic\sources\c90\common\doprnt.c: 1456:      ((*sp+
      +                          + = (' ')));
 11077  05BD' 3020               	movlw	32
 11078  05BE' 0080'              	movwf	??_sprintf^(0+128)
 11079  05BF' 0800'              	movf	sprintf@sp^(0+128),w
 11080  05C0' 0084               	movwf	4
 11081  05C1' 0800'              	movf	??_sprintf^(0+128),w
 11082  05C2' 1383               	bcf	3,7	;select IRP bank0
 11083  05C3' 0080               	movwf	0
 11084  05C4'                    l4328:
 11085  05C4' 3001               	movlw	1
 11086  05C5' 0080'              	movwf	??_sprintf^(0+128)
 11087  05C6' 0800'              	movf	??_sprintf^(0+128),w
 11088  05C7' 0780'              	addwf	sprintf@sp^(0+128),f
 11089  05C8'                    l4330:
 11090  05C8' 30FF               	movlw	255
 11091  05C9' 0780'              	addwf	sprintf@width^(0+128),f
 11092  05CA' 1803               	skipnc
 11093  05CB' 0A80'              	incf	(sprintf@width+1)^(0+128),f
 11094  05CC' 30FF               	movlw	255
 11095  05CD' 0780'              	addwf	(sprintf@width+1)^(0+128),f
 11096  05CE' 0800'              	movf	sprintf@width^(0+128),w
 11097  05CF' 0400'              	iorwf	(sprintf@width+1)^(0+128),w
 11098  05D0' 1D03               	btfss	3,2
 11099  05D1' 2800'              	goto	u7611
 11100  05D2' 2800'              	goto	u7610
 11101  05D3'                    u7611:
 11102  05D3' 2800'              	goto	l4326
 11103  05D4'                    u7610:
 11104  05D4'                    l4332:
 11105                           
 11106                           ;C:\Program Files\Microchip\xc8\v2.31\pic\sources\c90\common\doprnt.c: 1464:    if(flag 
      +                          & 0x03)
 11107  05D4' 3003               	movlw	3
 11108  05D5' 0500'              	andwf	sprintf@flag^(0+128),w
 11109  05D6' 0080'              	movwf	??_sprintf^(0+128)
 11110  05D7' 3000               	movlw	0
 11111  05D8' 0500'              	andwf	(sprintf@flag+1)^(0+128),w
 11112  05D9' 0080'              	movwf	(??_sprintf+1)^(0+128)
 11113  05DA' 0800'              	movf	??_sprintf^(0+128),w
 11114  05DB' 0401'              	iorwf	(??_sprintf^(0+128)+1),w
 11115  05DC' 1903               	btfsc	3,2
 11116  05DD' 2800'              	goto	u7621
 11117  05DE' 2800'              	goto	u7620
 11118  05DF'                    u7621:
 11119  05DF' 2800'              	goto	l4344
 11120  05E0'                    u7620:
 11121  05E0'                    l4334:
 11122                           
 11123                           ;C:\Program Files\Microchip\xc8\v2.31\pic\sources\c90\common\doprnt.c: 1465:     ((*sp++
      +                           = ('-')));
 11124  05E0' 302D               	movlw	45
 11125  05E1' 0080'              	movwf	??_sprintf^(0+128)
 11126  05E2' 0800'              	movf	sprintf@sp^(0+128),w
 11127  05E3' 0084               	movwf	4
 11128  05E4' 0800'              	movf	??_sprintf^(0+128),w
 11129  05E5' 1383               	bcf	3,7	;select IRP bank0
 11130  05E6' 0080               	movwf	0
 11131  05E7'                    l4336:
 11132  05E7' 3001               	movlw	1
 11133  05E8' 0080'              	movwf	??_sprintf^(0+128)
 11134  05E9' 0800'              	movf	??_sprintf^(0+128),w
 11135  05EA' 0780'              	addwf	sprintf@sp^(0+128),f
 11136  05EB' 2800'              	goto	l4344
 11137  05EC'                    l4338:
 11138                           
 11139                           ;C:\Program Files\Microchip\xc8\v2.31\pic\sources\c90\common\doprnt.c: 1504:    {;C:\Pro
      +                          gram Files\Microchip\xc8\v2.31\pic\sources\c90\common\doprnt.c: 1515:     c = (val / dpo
      +                          wers[(unsigned int)prec]) % 10 + '0';
 11140  05EC' 3000               	movlw	0
 11141  05ED' 1283               	bcf	3,5	;RP0=0, select bank0
 11142  05EE' 1303               	bcf	3,6	;RP1=0, select bank0
 11143  05EF' 008B'              	movwf	___llmod@divisor+3
 11144  05F0' 3000               	movlw	0
 11145  05F1' 008A'              	movwf	___llmod@divisor+2
 11146  05F2' 3000               	movlw	0
 11147  05F3' 0089'              	movwf	___llmod@divisor+1
 11148  05F4' 300A               	movlw	10
 11149  05F5' 0088'              	movwf	___llmod@divisor
 11150  05F6' 1683               	bsf	3,5	;RP0=1, select bank1
 11151  05F7' 1303               	bcf	3,6	;RP1=0, select bank1
 11152  05F8' 0800'              	movf	sprintf@prec^(0+128),w
 11153  05F9' 0080'              	movwf	??_sprintf^(0+128)
 11154  05FA' 3001               	movlw	1
 11155  05FB'                    u7635:
 11156  05FB' 1003               	clrc
 11157  05FC' 0D80'              	rlf	??_sprintf^(0+128),f
 11158  05FD' 3EFF               	addlw	-1
 11159  05FE' 1D03               	skipz
 11160  05FF' 2800'              	goto	u7635
 11161  0600' 1003               	clrc
 11162  0601' 0D00'              	rlf	??_sprintf^(0+128),w
 11163  0602' 3E69               	addlw	low ((_dpowers-__stringbase)| (0+32768))
 11164  0603' 0084               	movwf	4
 11165  0604' 120A' 118A' 2000' 120A' 118A' 	fcall	stringdir
 11166  0609' 1283               	bcf	3,5	;RP0=0, select bank0
 11167  060A' 1303               	bcf	3,6	;RP1=0, select bank0
 11168  060B' 0080'              	movwf	___lldiv@divisor
 11169  060C' 120A' 118A' 2000' 120A' 118A' 	fcall	stringdir
 11170  0611' 0081'              	movwf	___lldiv@divisor+1
 11171  0612' 120A' 118A' 2000' 120A' 118A' 	fcall	stringdir
 11172  0617' 0082'              	movwf	___lldiv@divisor+2
 11173  0618' 120A' 118A' 2000' 120A' 118A' 	fcall	stringdir
 11174  061D' 0083'              	movwf	___lldiv@divisor+3
 11175  061E' 1683               	bsf	3,5	;RP0=1, select bank1
 11176  061F' 1303               	bcf	3,6	;RP1=0, select bank1
 11177  0620' 0800'              	movf	(sprintf@val+3)^(0+128),w
 11178  0621' 1283               	bcf	3,5	;RP0=0, select bank0
 11179  0622' 1303               	bcf	3,6	;RP1=0, select bank0
 11180  0623' 0087'              	movwf	___lldiv@dividend+3
 11181  0624' 1683               	bsf	3,5	;RP0=1, select bank1
 11182  0625' 1303               	bcf	3,6	;RP1=0, select bank1
 11183  0626' 0800'              	movf	(sprintf@val+2)^(0+128),w
 11184  0627' 1283               	bcf	3,5	;RP0=0, select bank0
 11185  0628' 1303               	bcf	3,6	;RP1=0, select bank0
 11186  0629' 0086'              	movwf	___lldiv@dividend+2
 11187  062A' 1683               	bsf	3,5	;RP0=1, select bank1
 11188  062B' 1303               	bcf	3,6	;RP1=0, select bank1
 11189  062C' 0800'              	movf	(sprintf@val+1)^(0+128),w
 11190  062D' 1283               	bcf	3,5	;RP0=0, select bank0
 11191  062E' 1303               	bcf	3,6	;RP1=0, select bank0
 11192  062F' 0085'              	movwf	___lldiv@dividend+1
 11193  0630' 1683               	bsf	3,5	;RP0=1, select bank1
 11194  0631' 1303               	bcf	3,6	;RP1=0, select bank1
 11195  0632' 0800'              	movf	sprintf@val^(0+128),w
 11196  0633' 1283               	bcf	3,5	;RP0=0, select bank0
 11197  0634' 1303               	bcf	3,6	;RP1=0, select bank0
 11198  0635' 0084'              	movwf	___lldiv@dividend
 11199  0636' 120A' 118A' 2000' 120A' 118A' 	fcall	___lldiv
 11200  063B' 1283               	bcf	3,5	;RP0=0, select bank0
 11201  063C' 1303               	bcf	3,6	;RP1=0, select bank0
 11202  063D' 0803'              	movf	?___lldiv+3,w
 11203  063E' 008F'              	movwf	___llmod@dividend+3
 11204  063F' 0802'              	movf	?___lldiv+2,w
 11205  0640' 008E'              	movwf	___llmod@dividend+2
 11206  0641' 0801'              	movf	?___lldiv+1,w
 11207  0642' 008D'              	movwf	___llmod@dividend+1
 11208  0643' 0800'              	movf	?___lldiv,w
 11209  0644' 008C'              	movwf	___llmod@dividend
 11210  0645' 120A' 118A' 2000' 120A' 118A' 	fcall	___llmod
 11211  064A' 1283               	bcf	3,5	;RP0=0, select bank0
 11212  064B' 1303               	bcf	3,6	;RP1=0, select bank0
 11213  064C' 0808'              	movf	?___llmod,w
 11214  064D' 3E30               	addlw	48
 11215  064E' 1683               	bsf	3,5	;RP0=1, select bank1
 11216  064F' 1303               	bcf	3,6	;RP1=0, select bank1
 11217  0650' 0080'              	movwf	(??_sprintf+1)^(0+128)
 11218  0651' 0800'              	movf	(??_sprintf+1)^(0+128),w
 11219  0652' 0080'              	movwf	sprintf@c^(0+128)
 11220  0653'                    l4340:
 11221                           
 11222                           ;C:\Program Files\Microchip\xc8\v2.31\pic\sources\c90\common\doprnt.c: 1549:    };C:\Pro
      +                          gram Files\Microchip\xc8\v2.31\pic\sources\c90\common\doprnt.c: 1550:    ((*sp++ = (c)))
      +                          ;
 11223  0653' 0800'              	movf	sprintf@c^(0+128),w
 11224  0654' 0080'              	movwf	??_sprintf^(0+128)
 11225  0655' 0800'              	movf	sprintf@sp^(0+128),w
 11226  0656' 0084               	movwf	4
 11227  0657' 0800'              	movf	??_sprintf^(0+128),w
 11228  0658' 1383               	bcf	3,7	;select IRP bank0
 11229  0659' 0080               	movwf	0
 11230  065A' 2800'              	goto	l4336
 11231  065B'                    l4344:
 11232                           
 11233                           ;C:\Program Files\Microchip\xc8\v2.31\pic\sources\c90\common\doprnt.c: 1500:   while(pre
      +                          c--) {
 11234  065B' 30FF               	movlw	255
 11235  065C' 0780'              	addwf	sprintf@prec^(0+128),f
 11236  065D' 1803               	skipnc
 11237  065E' 0A80'              	incf	(sprintf@prec+1)^(0+128),f
 11238  065F' 30FF               	movlw	255
 11239  0660' 0780'              	addwf	(sprintf@prec+1)^(0+128),f
 11240  0661' 0A00'              	incf	sprintf@prec^(0+128),w
 11241  0662' 1D03               	skipz
 11242  0663' 2800'              	goto	u7641
 11243  0664' 0A00'              	incf	(sprintf@prec+1)^(0+128),w
 11244  0665' 1D03               	btfss	3,2
 11245  0666' 2800'              	goto	u7641
 11246  0667' 2800'              	goto	u7640
 11247  0668'                    u7641:
 11248  0668' 2800'              	goto	l4338
 11249  0669'                    u7640:
 11250  0669'                    l4346:
 11251                           
 11252                           ;C:\Program Files\Microchip\xc8\v2.31\pic\sources\c90\common\doprnt.c: 553:  while((c = 
      +                          *f++)) {
 11253  0669' 3001               	movlw	1
 11254  066A' 0780'              	addwf	sprintf@f^(0+128),f
 11255  066B' 30FF               	movlw	-1
 11256  066C' 0700'              	addwf	sprintf@f^(0+128),w
 11257  066D' 0084               	movwf	4
 11258  066E' 120A' 118A' 2000' 120A' 118A' 	fcall	stringdir
 11259  0673' 0080'              	movwf	??_sprintf^(0+128)
 11260  0674' 0800'              	movf	??_sprintf^(0+128),w
 11261  0675' 0080'              	movwf	sprintf@c^(0+128)
 11262  0676' 0800'              	movf	sprintf@c^(0+128),w
 11263  0677' 1D03               	btfss	3,2
 11264  0678' 2800'              	goto	u7651
 11265  0679' 2800'              	goto	u7650
 11266  067A'                    u7651:
 11267  067A' 120A' 118A' 2800'  	goto	l4066
 11268  067D'                    u7650:
 11269  067D'                    l4348:
 11270                           
 11271                           ;C:\Program Files\Microchip\xc8\v2.31\pic\sources\c90\common\doprnt.c: 1564:  *sp = 0;
 11272  067D' 0800'              	movf	sprintf@sp^(0+128),w
 11273  067E' 0084               	movwf	4
 11274  067F' 1383               	bcf	3,7	;select IRP bank0
 11275  0680' 0180               	clrf	0
 11276  0681'                    l307:
 11277  0681' 0008               	return
 11278  0682'                    __end_of_sprintf:

Data Sizes:
    Strings     60
    Constant    144
    Data        0
    BSS         30
    Persistent  0
    Stack       0

Auto Spaces:
    Space          Size  Autos    Used
    COMMON           14     10      11
    BANK0            80     79      79
    BANK1            80     51      80
    BANK3            96      0       0
    BANK2            96      0       0

Pointer List with Targets:

    Write_USART_String$0	PTR unsigned char  size(2) Largest target is 20
		 -> data_total(BANK1[20]), STR_4(CODE[15]), 

    Lcd_Write_String$0	PTR unsigned char  size(2) Largest target is 20
		 -> STR_6(CODE[16]), data_total(BANK1[20]), STR_3(CODE[4]), STR_2(CODE[4]), 
		 -> STR_1(CODE[4]), 

    sprintf@f	PTR const unsigned char  size(1) Largest target is 21
		 -> STR_5(CODE[21]), 

    sprintf@sp	PTR unsigned char  size(1) Largest target is 20
		 -> data_total(BANK1[20]), 

    sprintf@ap	PTR void [1] size(1) Largest target is 2
		 -> ?_sprintf(BANK1[2]), 


Critical Paths under _main in COMMON

    _sprintf->___llmod
    _sprintf->__div_to_l_
    _scale->___awmod
    ___awdiv->___awmod
    _fround->___lwdiv
    ___lwdiv->___lwmod
    ___llmod->___lldiv
    ___flmul->___awmod
    ___flmul->___lwdiv

Critical Paths under _ISR in COMMON

    None.

Critical Paths under _main in BANK0

    _sprintf->___fladd
    _scale->___flmul
    _fround->___flmul
    ___llmod->___lldiv
    ___fltol->_scale
    ___flsub->___fladd
    ___fladd->_fround
    _ADC_channel2->___fldiv
    _ADC_channel1->___fldiv
    ___flmul->___xxtofl
    ___fldiv->___flmul

Critical Paths under _ISR in BANK0

    None.

Critical Paths under _main in BANK1

    _main->_sprintf
    _sprintf->___flsub

Critical Paths under _ISR in BANK1

    None.

Critical Paths under _main in BANK3

    None.

Critical Paths under _ISR in BANK3

    None.

Critical Paths under _main in BANK2

    None.

Critical Paths under _ISR in BANK2

    None.

Call Graph Tables:

 ---------------------------------------------------------------------------------
 (Depth) Function   	        Calls       Base Space   Used Autos Params    Refs
 ---------------------------------------------------------------------------------
 (0) _main                                                 3     3      0   49931
                                             76 BANK0      3     3      0
                       _ADC_channel1
                       _ADC_channel2
                          _Lcd_Clear
                           _Lcd_Init
                     _Lcd_Set_Cursor
                   _Lcd_Write_String
                        _Write_USART
                 _Write_USART_String
                              _setup
                            _sprintf
 ---------------------------------------------------------------------------------
 (1) _sprintf                                             48    37     11   36051
                                              8 BANK1     43    32     11
                            ___awdiv
                            ___fladd
                             ___fleq
                             ___flge
                            ___flmul
                            ___flneg
                            ___flsub
                            ___fltol
                            ___lldiv
                            ___llmod
                             ___wmul
                           ___xxtofl
                         __div_to_l_
                        __tdiv_to_l_
                             _fround
                            _isdigit
                              _scale
 ---------------------------------------------------------------------------------
 (2) _scale                                               19    15      4    8239
                                             36 BANK0     19    15      4
                            ___awdiv
                            ___awmod
                            ___flmul
 ---------------------------------------------------------------------------------
 (3) ___awmod                                              7     3      4    1208
                                              3 COMMON     7     3      4
 ---------------------------------------------------------------------------------
 (3) ___awdiv                                              9     5      4    1705
                                              0 BANK0      9     5      4
                            ___awmod (ARG)
 ---------------------------------------------------------------------------------
 (2) _isdigit                                              2     2      0      68
                                              3 COMMON     2     2      0
 ---------------------------------------------------------------------------------
 (2) _fround                                              20    16      4    6175
                                             36 BANK0     20    16      4
                            ___flmul
                            ___lwdiv
                            ___lwmod
 ---------------------------------------------------------------------------------
 (3) ___lwmod                                              6     2      4     615
                                              3 COMMON     6     2      4
 ---------------------------------------------------------------------------------
 (3) ___lwdiv                                              8     4      4     618
                                              9 COMMON     1     1      0
                                              0 BANK0      7     3      4
                            ___lwmod (ARG)
 ---------------------------------------------------------------------------------
 (2) __tdiv_to_l_                                         18    10      8     634
                                              3 COMMON     4     4      0
                                              0 BANK0     14     6      8
 ---------------------------------------------------------------------------------
 (2) __div_to_l_                                          15     7      8     634
                                              3 COMMON     7     7      0
                                              0 BANK0      8     0      8
 ---------------------------------------------------------------------------------
 (2) ___wmul                                               6     2      4     548
                                              3 COMMON     6     2      4
 ---------------------------------------------------------------------------------
 (2) ___llmod                                             10     2      8     952
                                              9 COMMON     1     1      0
                                              8 BANK0      9     1      8
                            ___lldiv (ARG)
 ---------------------------------------------------------------------------------
 (2) ___lldiv                                             14     6      8     781
                                              3 COMMON     6     6      0
                                              0 BANK0      8     0      8
 ---------------------------------------------------------------------------------
 (2) ___fltol                                             11     7      4     457
                                             55 BANK0     11     7      4
                            ___flmul (ARG)
                              _scale (ARG)
 ---------------------------------------------------------------------------------
 (2) ___flsub                                              8     0      8    2485
                                              0 BANK1      8     0      8
                            ___fladd
                           ___xxtofl (ARG)
 ---------------------------------------------------------------------------------
 (3) ___fladd                                             20    12      8    2288
                                             56 BANK0     20    12      8
                             _fround (ARG)
 ---------------------------------------------------------------------------------
 (2) ___flneg                                              4     0      4     121
                                              3 COMMON     4     0      4
 ---------------------------------------------------------------------------------
 (2) ___flge                                              12     4      8     986
                                              3 COMMON     4     4      0
                                              0 BANK0      8     0      8
 ---------------------------------------------------------------------------------
 (2) ___fleq                                              12     4      8     490
                                              3 COMMON     4     4      0
                                              0 BANK0      8     0      8
 ---------------------------------------------------------------------------------
 (1) _setup                                                0     0      0       0
                    _USART_INTERRUPT
                         _USART_Init
                _USART_Init_BaudRate
                            _initOsc
 ---------------------------------------------------------------------------------
 (2) _initOsc                                              2     0      2       0
 ---------------------------------------------------------------------------------
 (2) _USART_Init_BaudRate                                  0     0      0       0
 ---------------------------------------------------------------------------------
 (2) _USART_Init                                           0     0      0       0
 ---------------------------------------------------------------------------------
 (2) _USART_INTERRUPT                                      0     0      0       0
 ---------------------------------------------------------------------------------
 (1) _Write_USART_String                                   2     0      2      24
 ---------------------------------------------------------------------------------
 (1) _Write_USART                                          0     0      0       0
 ---------------------------------------------------------------------------------
 (1) _Lcd_Write_String                                     2     0      2      60
 ---------------------------------------------------------------------------------
 (1) _Lcd_Set_Cursor                                       1     0      1      60
 ---------------------------------------------------------------------------------
 (1) _Lcd_Init                                             0     0      0       0
 ---------------------------------------------------------------------------------
 (1) _Lcd_Clear                                            0     0      0       0
 ---------------------------------------------------------------------------------
 (1) _ADC_channel2                                         4     4      0    6868
                                             62 BANK0      4     4      0
                         _ADC_Config
                            ___fldiv
                            ___flmul
                           ___xxtofl
 ---------------------------------------------------------------------------------
 (1) _ADC_channel1                                         4     4      0    6868
                                             62 BANK0      4     4      0
                         _ADC_Config
                            ___fldiv
                            ___flmul
                           ___xxtofl
 ---------------------------------------------------------------------------------
 (2) ___xxtofl                                            14    10      4     746
                                              3 COMMON     4     0      4
                                              0 BANK0     10    10      0
 ---------------------------------------------------------------------------------
 (3) ___flmul                                             26    18      8    4697
                                             10 BANK0     26    18      8
                          __Umul8_16
                            ___awdiv (ARG)
                            ___awmod (ARG)
                            ___lwdiv (ARG)
                            ___lwmod (ARG)
                           ___xxtofl (ARG)
 ---------------------------------------------------------------------------------
 (4) __Umul8_16                                            9     7      2     799
                                              3 COMMON     4     2      2
                                              0 BANK0      5     5      0
 ---------------------------------------------------------------------------------
 (2) ___fldiv                                             26    18      8    1425
                                             36 BANK0     26    18      8
                            ___flmul (ARG)
                           ___xxtofl (ARG)
 ---------------------------------------------------------------------------------
 (2) _ADC_Config                                           0     0      0       0
 ---------------------------------------------------------------------------------
 Estimated maximum stack depth 4
 ---------------------------------------------------------------------------------
 (Depth) Function   	        Calls       Base Space   Used Autos Params    Refs
 ---------------------------------------------------------------------------------
 (5) _ISR                                                  3     3      0       0
                                              0 COMMON     3     3      0
 ---------------------------------------------------------------------------------
 Estimated maximum stack depth 5
 ---------------------------------------------------------------------------------

 Call Graph Graphs:

 _main (ROOT)
   _ADC_channel1
     _ADC_Config
     ___fldiv
       ___flmul (ARG)
         __Umul8_16
         ___awdiv (ARG)
           ___awmod (ARG)
         ___awmod (ARG)
         ___lwdiv (ARG)
           ___lwmod (ARG)
         ___lwmod (ARG)
         ___xxtofl (ARG)
       ___xxtofl (ARG)
     ___flmul
       __Umul8_16
       ___awdiv (ARG)
         ___awmod (ARG)
       ___awmod (ARG)
       ___lwdiv (ARG)
         ___lwmod (ARG)
       ___lwmod (ARG)
       ___xxtofl (ARG)
     ___xxtofl
   _ADC_channel2
     _ADC_Config
     ___fldiv
       ___flmul (ARG)
         __Umul8_16
         ___awdiv (ARG)
           ___awmod (ARG)
         ___awmod (ARG)
         ___lwdiv (ARG)
           ___lwmod (ARG)
         ___lwmod (ARG)
         ___xxtofl (ARG)
       ___xxtofl (ARG)
     ___flmul
       __Umul8_16
       ___awdiv (ARG)
         ___awmod (ARG)
       ___awmod (ARG)
       ___lwdiv (ARG)
         ___lwmod (ARG)
       ___lwmod (ARG)
       ___xxtofl (ARG)
     ___xxtofl
   _Lcd_Clear
   _Lcd_Init
   _Lcd_Set_Cursor
   _Lcd_Write_String
   _Write_USART
   _Write_USART_String
   _setup
     _USART_INTERRUPT
     _USART_Init
     _USART_Init_BaudRate
     _initOsc
   _sprintf
     ___awdiv
       ___awmod (ARG)
     ___fladd
       _fround (ARG)
         ___flmul
           __Umul8_16
           ___awdiv (ARG)
             ___awmod (ARG)
           ___awmod (ARG)
           ___lwdiv (ARG)
             ___lwmod (ARG)
           ___lwmod (ARG)
           ___xxtofl (ARG)
         ___lwdiv
           ___lwmod (ARG)
         ___lwmod
     ___fleq
     ___flge
     ___flmul
       __Umul8_16
       ___awdiv (ARG)
         ___awmod (ARG)
       ___awmod (ARG)
       ___lwdiv (ARG)
         ___lwmod (ARG)
       ___lwmod (ARG)
       ___xxtofl (ARG)
     ___flneg
     ___flsub
       ___fladd
         _fround (ARG)
           ___flmul
             __Umul8_16
             ___awdiv (ARG)
               ___awmod (ARG)
             ___awmod (ARG)
             ___lwdiv (ARG)
               ___lwmod (ARG)
             ___lwmod (ARG)
             ___xxtofl (ARG)
           ___lwdiv
             ___lwmod (ARG)
           ___lwmod
       ___xxtofl (ARG)
     ___fltol
       ___flmul (ARG)
         __Umul8_16
         ___awdiv (ARG)
           ___awmod (ARG)
         ___awmod (ARG)
         ___lwdiv (ARG)
           ___lwmod (ARG)
         ___lwmod (ARG)
         ___xxtofl (ARG)
       _scale (ARG)
         ___awdiv
           ___awmod (ARG)
         ___awmod
         ___flmul
           __Umul8_16
           ___awdiv (ARG)
             ___awmod (ARG)
           ___awmod (ARG)
           ___lwdiv (ARG)
             ___lwmod (ARG)
           ___lwmod (ARG)
           ___xxtofl (ARG)
     ___lldiv
     ___llmod
       ___lldiv (ARG)
     ___wmul
     ___xxtofl
     __div_to_l_
     __tdiv_to_l_
     _fround
       ___flmul
         __Umul8_16
         ___awdiv (ARG)
           ___awmod (ARG)
         ___awmod (ARG)
         ___lwdiv (ARG)
           ___lwmod (ARG)
         ___lwmod (ARG)
         ___xxtofl (ARG)
       ___lwdiv
         ___lwmod (ARG)
       ___lwmod
     _isdigit
     _scale
       ___awdiv
         ___awmod (ARG)
       ___awmod
       ___flmul
         __Umul8_16
         ___awdiv (ARG)
           ___awmod (ARG)
         ___awmod (ARG)
         ___lwdiv (ARG)
           ___lwmod (ARG)
         ___lwmod (ARG)
         ___xxtofl (ARG)

 _ISR (ROOT)

 Address spaces:
Name               Size   Autos  Total    Cost      Usage
BITCOMMON            E      0       0       0        0.0%
EEDATA             100      0       0       0        0.0%
NULL                 0      0       0       0        0.0%
CODE                 0      0       0       0        0.0%
COMMON               E      A       B       1       78.6%
BITSFR0              0      0       0       1        0.0%
SFR0                 0      0       0       1        0.0%
BITSFR1              0      0       0       2        0.0%
SFR1                 0      0       0       2        0.0%
STACK                0      0       0       2        0.0%
ABS                  0      0      AA       3        0.0%
BITBANK0            50      0       0       4        0.0%
BITSFR3              0      0       0       4        0.0%
SFR3                 0      0       0       4        0.0%
BANK0               50     4F      4F       5       98.8%
BITSFR2              0      0       0       5        0.0%
SFR2                 0      0       0       5        0.0%
BITBANK1            50      0       0       6        0.0%
BANK1               50     33      50       7      100.0%
BITBANK3            60      0       0       8        0.0%
BANK3               60      0       0       9        0.0%
BITBANK2            60      0       0      10        0.0%
BANK2               60      0       0      11        0.0%
DATA                 0      0      AA      12        0.0%


Microchip Technology PIC Macro Assembler V2.31 build 20201012212115 
Symbol Table                                                                                   Fri Feb 12 21:54:22 2021

           ___fldiv@aexp 003D             ___fldiv@bexp 003C                        pc 0002  
           ___fldiv@sign 0035                       l94 002D             ___awdiv@sign 0006  
                     fsr 0004      ___wmul@multiplicand 0005      __Umul8_16@word_mpld 0002  
       ?_USART_INTERRUPT 0000                      l100 006F                      l106 006F  
                    l311 000C                      l215 0362                      l208 020C  
                    l313 0024                      l307 0681                      l237 00C7  
                    l502 001E                      l510 000A                      l270 02C3  
                    l505 008A                      l521 0066                      l506 00A3  
                    l514 007B                      l347 0067                      l524 007B  
                    l532 007F                      l277 0307                      l710 014E  
                    l528 00BC                      l464 0068                      l481 00BF  
                    l529 002E                      l617 0045                      l642 010A  
                    l482 0022                      l651 0287                      l539 00AF  
                    l627 0039                      l716 01C0                      l740 02CC  
                    l644 00E1                      l492 00B0                      l485 0080  
                    l477 0058                      l718 01D0                      l734 0360  
                    l638 0063                      l663 01F9                      l567 0055  
                    l680 027B                      l672 0259                      l753 0016  
                    l497 001E                      l681 0287                      l746 0354  
                    l498 003A                      l755 0028                      l499 004F  
                    l659 01D5                      l780 00BB                      l684 004F  
                    l669 021B                      l694 005C                      l791 0085  
                    l696 01DC                      l792 0091                      l784 0069  
                    l778 0024                      l798 0011                      _ISR 0000  
                    fsr0 0004                      indf 0000             ___awmod@sign 0009  
           ___flmul@aexp 001C             ___flmul@bexp 001D              _sprintf$899 0018  
           ___flmul@sign 0017             ___flmul@temp 0022             ___flmul@prod 001E  
                   ?_ISR 0000             ___fltol@exp1 0041                     l3110 0012  
                   l3102 0000                     l2310 0003                     l3200 012E  
                   l3112 0017                     l3120 0027                     l3104 0007  
                   l2320 0024                     l2312 0005                     l4000 0003  
                   l3032 0000                     l3040 0000                     l2400 004F  
                   l3202 0132                     l3130 003F                     l3122 002F  
                   l3114 001C                     l3106 000D                     l2314 000C  
                   l4002 0008                     l3034 0008                     l3050 002C  
                   l3042 000D                     l2410 000A                     l2402 0054  
                   l3220 0183                     l3212 0153                     l3204 0133  
                   l3132 0044                     l3140 0054                     l3124 0034  
                   l3116 0024                     l3108 0011                     l2316 0010  
                   l4020 0052                     l4012 0035                     l4004 000C  
                   l3300 0014                     l3036 000A                     l2500 006D  
                   l3052 0034                     l2420 002D                     l2412 000D  
                   l4100 00B2                     l3230 01B7                     l3214 0158  
                   l3222 0189                     l3206 0137                     l3142 0064  
                   l3150 007D                     l3134 0049                     l3126 003A  
                   l3118 0025                     l2318 001F                     l4030 0089  
                   l4022 0060                     l4014 003A                     l4006 001C  
                   l3310 001B                     l3302 0015                     l2510 0081  
                   l2502 0071                     l3070 005B                     l3062 0042  
                   l3054 0036                     l3046 0016                     l2422 0033  
                   l2414 0014                     l2406 0000                     l4110 00EB  
                   l4102 00C3                     l3232 01BF                     l3224 0196  
                   l3216 0166                     l3208 014B                     l3160 00A5  
                   l3152 0082                     l3144 0070                     l3136 0051  
                   l3128 003E                     l4040 00B3                     l4032 0093  
                   l4024 0070                     l4016 0047                     l4008 002C  
                   l3320 0028                     l3312 001C                     l3304 0016  
                   l2600 01FD                     l2520 0095                     l2512 0085  
                   l2504 0075                     l3072 006B                     l3056 003A  
                   l3064 0054                     l3048 002B                     l2424 0034  
                   l2416 0018                     l2408 0004                     l2440 0014  
                   l2432 0000                     l4200 01CF                     l4120 0113  
                   l4112 00F9                     l4104 00C5                     l3234 01C6  
                   l3226 01A4                     l3218 016A                     l3170 00CE  
                   l3162 00AD                     l3146 0074                     l3138 0052  
                   l4034 00A9                     l4026 007B                     l4018 004E  
                   l4050 0011                     l3314 001D                     l3306 0017  
                   l2602 0200                     l2610 020D                     l2530 00A9  
                   l2522 0099                     l2514 0089                     l2506 0079  
                   l3074 0070                     l2426 003B                     l2418 001C  
                   l2442 0018                     l2434 0006                     l2450 0035  
                   l2370 0001                     l4202 01D5                     l4130 0182  
                   l4122 013A                     l4114 00FD                     l3236 01CA  
                   l3228 01B3                     l3180 00EF                     l3172 00D2  
                   l3164 00B5                     l3156 008B                     l2700 00C3  
                   l4036 00AE                     l4028 007F                     l4052 006A  
                   l4044 0000                     l4060 0011                     l3316 001E  
                   l3308 001A                     l2620 0220                     l2612 020E  
                   l2604 0202                     l2540 00EE                     l2524 009D  
                   l2516 008D                     l2508 007D                     l2532 00AD  
                   l2460 0011                     l2428 0041                     l2444 0022  
                   l2436 0009                     l2380 0015                     l2372 0005  
                   l4300 054B                     l4220 021D                     l4204 01E1  
                   l4212 01F6                     l4140 01CD                     l4132 018D  
                   l4124 0153                     l4116 0101                     l4108 00C9  
                   l3238 01CC                     l3190 0111                     l3182 00FD  
                   l3174 00D3                     l3166 00B7                     l3158 009D  
                   l2710 0140                     l2702 00EF                     l4038 00B2  
                   l4046 0006                     l4062 006A                     l4054 0000  
                   l3318 0023                     l2630 025E                     l2622 0225  
                   l2614 0212                     l2606 0207                     l2542 00F0  
                   l2550 0102                     l2534 00AE                     l2526 00A1  
                   l2518 0091                     l2470 0025                     l2462 0012  
                   l2454 0000                     l2446 0028                     l2438 0010  
                   l2390 002D                     l2382 001B                     l2374 000A  
                   l4310 057D                     l4302 055A                     l4230 02D8  
                   l4222 0278                     l4214 0203                     l4206 01E8  
                   l4150 026D                     l4142 01D3                     l4134 0193  
                   l4126 0157                     l4118 010F                     l4070 0017  
                   l3192 011A                     l3168 00BC                     l3176 00DC  
                   l3184 0101                     l2720 01C0                     l2712 015D  
                   l2704 010B                     l4048 000D                     l4056 0006  
                   l2640 0275                     l2632 0263                     l2624 0233  
                   l2616 0218                     l2608 0209                     l2560 0133  
                   l2552 010E                     l2544 00F4                     l2536 00C5  
                   l2528 00A5                     l2480 003B                     l2464 0017  
                   l2472 0027                     l2456 0007                     l3096 0000  
                   l2448 002F                     l2392 0037                     l2384 001E  
                   l2376 000C                     l2368 0000                     l4320 05A7  
                   l4312 0581                     l4304 0563                     l4240 0310  
                   l4232 02DE                     l4224 02B7                     l4216 0211  
                   l4208 01F1                     l4160 0000                     l4152 0296  
                   l4144 01F2                     l4136 01A6                     l4128 015B  
                   l4080 0049                     l4072 001C                     l4064 0003  
                   l4400 00C6                     l3194 011E                     l3186 0107  
                   l3178 00EE                     l2730 0278                     l2722 01ED  
                   l2714 016D                     l2706 0127                     l2650 0007  
                   l4058 000D                     l3290 0009                     l2642 0277  
                   l2634 026B                     l2626 0237                     l2570 014A  
                   l2562 0137                     l2554 0113                     l2546 00F5  
                   l2538 00E5                     l2490 0050                     l2482 0041  
                   l2474 002F                     l2466 001C                     l2458 000D  
                   l3098 0004                     l2802 01C9                     l2394 003D  
                   l2386 0025                     l2378 0010                     l4330 05C8  
                   l4322 05B3                     l4314 058F                     l4306 056B  
                   l4250 0399                     l4242 0315                     l4234 02EB  
                   l4226 02CB                     l4218 0218                     l4170 0091  
                   l4162 0029                     l4146 023D                     l4138 01C9  
                   l4154 029E                     l4090 007F                     l4082 005C  
                   l4074 0020                     l4066 000A                     l4402 00CE  
                   l3196 011F                     l3188 010F                     l2740 029D  
                   l2732 0281                     l2724 01FD                     l2716 018A  
                   l2708 0130                     l2660 001C                     l2652 000D  
                   l3292 000D                     l2644 0282                     l2636 0270  
                   l2628 0255                     l2580 01AD                     l2572 014B  
                   l2564 013B                     l2548 00FE                     l2492 0058  
                   l2484 0045                     l2476 0034                     l2468 0024  
                   l2396 0044                     l2388 0029                     l4340 0653  
                   l4332 05D4                     l4324 05B7                     l4316 0598  
                   l4308 0577                     l4260 04A2                     l4252 03F4  
                   l4244 031C                     l4236 02FA                     l4228 02D4  
                   l4172 0099                     l4164 0050                     l4180 010B  
                   l4156 02AD                     l4148 0264                     l4092 0083  
                   l4084 0060                     l4076 0030                     l4068 0010  
                   l3198 0128                     l2750 02B5                     l2742 02A6  
                   l2734 028F                     l2726 022A                     l2718 01A3  
                   l2670 0039                     l2662 0024                     l2654 0011  
                   l3294 000E                     l2646 0286                     l2638 0271  
                   l2590 01E2                     l2582 01B3                     l2574 0154  
                   l2566 0144                     l2558 011C                     l2494 0059  
                   l2486 0046                     l2478 003A                     l2398 004A  
                   l4334 05E0                     l4326 05BD                     l4318 059C  
                   l4270 04CB                     l4262 04A9                     l4254 0433  
                   l4246 0320                     l4238 0301                     l4182 0140  
                   l4174 00B7                     l4166 005F                     l4158 02F4  
                   l4094 0086                     l4078 0034                     l4086 0070  
                   l2760 02E4                     l2752 02C9                     l2736 0298  
                   l2744 02AC                     l2728 0250                     l2680 0050  
                   l2672 003D                     l2664 0026                     l2656 0012  
                   l2648 0000                     l3296 0012                     l3288 0000  
                   l2584 01B8                     l2568 0146                     l2576 0159  
                   l2488 004B                     l2496 005B                     l4336 05E7  
                   l4344 065B                     l4328 05C4                     l4280 04E8  
                   l4272 04CF                     l4264 04AD                     l4256 043F  
                   l4248 033E                     l4192 0173                     l4184 016F  
                   l4168 0088                     l4096 009B                     l4088 007E  
                   l4360 0005                     l2770 031F                     l2762 02E8  
                   l2746 02B0                     l2738 029C                     l2682 0052  
                   l2674 003E                     l2666 002E                     l2658 0017  
                   l3298 0013                     l2594 01EB                     l2578 016F  
                   l2586 01C7                     l2498 0069                     l2850 0008  
                   l3810 02A7                     l3802 01B6                     l4338 05EC  
                   l4290 04F8                     l4282 04F0                     l4274 04D3  
                   l4266 04B3                     l4258 049A                     l4186 0171  
                   l4178 0102                     l4434 00DD                     l4098 00AE  
                   l4346 0669                     l4370 0023                     l4362 0008  
                   l2780 034C                     l2772 032E                     l2764 0301  
                   l2756 02D1                     l2748 02B1                     l2692 006D  
                   l2684 005A                     l2676 0043                     l2668 0033  
                   l2596 01F4                     l2588 01DD                     l3900 0071  
                   l3820 0000                     l2852 000E                     l3740 0007  
                   l3812 02AE                     l3804 01BD                     l4284 04F6  
                   l4276 04D7                     l4196 01AA                     l4268 04BA  
                   l4348 067D                     l4380 0052                     l4372 002F  
                   l4364 000D                     l2782 034D                     l2774 0338  
                   l2758 02D6                     l2766 0307                     l2694 007D  
                   l2686 005F                     l2678 0048                     l2598 01F8  
                   l3910 008C                     l3902 007A                     l3822 0013  
                   l2790 0009                     l2854 0010                     l2846 0001  
                   l3750 001B                     l3742 000C                     l4294 052F  
                   l4278 04E2                     l4198 01B4                     l4390 00A0  
                   l4382 005C                     l4374 0038                     l4366 0012  
                   l4358 0000                     l2784 0358                     l2776 033A  
                   l2768 0314                     l2696 008A                     l2688 0064  
                   l3920 00B5                     l3904 0084                     l3912 009E  
                   l3840 004F                     l3832 002F                     l2848 0002  
                   l3760 0031                     l3752 001D                     l3744 000E  
                   l3736 0000                     l3816 0336                     l4296 0539  
                   l4392 00A6                     l4384 0061                     l4376 0044  
                   l4368 001A                     l2778 0348                     l2698 00A7  
                   l3930 0022                     l2970 001A                     l2962 0000  
                   l3850 0079                     l3842 0058                     l3834 0035  
                   l3826 001C                     l3770 0054                     l3762 0035  
                   l3754 0023                     l3746 0012                     l3738 0003  
                   l4298 0544                     l4394 00AC                     l4386 006A  
                   l4378 004D                     l3940 0050                     l3932 0026  
                   l3924 0000                     l2972 0020                     l2964 0002  
                   l3852 0083                     l3860 009D                     l3844 0066  
                   l3836 0044                     l2796 0118                     l2788 0003  
                   l3764 0046                     l3756 0026                     l3772 005A  
                   l3748 0017                     l3780 0003                     l4396 00B1  
                   l4388 0097                     l3950 0016                     l3942 0059  
                   l3934 002F                     l3926 0012                     l2966 0006  
                   l3918 00A5                     l3846 0070                     l3838 0046  
                   l2798 011E                     l3774 005F                     l3766 004C  
                   l3758 002D                     l3782 0007                     l4398 00BD  
                   l3952 0032                     l3960 0000                     l3936 0041  
                   l3928 0015                     l3944 005F                     l2968 0013  
                   l3872 0000                     l3848 0071                     l3776 0064  
                   l3768 004D                     l3792 00FA                     l3784 0009  
                   l3954 004C                     l3970 0062                     l3962 0016  
                   l3938 004F                     l3890 003E                     l3874 000D  
                   l3866 00A4                     l3858 008B                     l3794 0101  
                   l3786 0010                     l3956 004E                     l3948 0000  
                   l3972 0066                     l3964 0032                     l3980 0000  
                   l3892 0047                     l3884 0023                     l3868 00B4  
                   l3974 00A0                     l3966 003A                     l3990 0030  
                   l3982 000A                     l3894 0050                     l3886 002B  
                   l3878 0016                     l3798 0189                     l3976 00A2  
                   l3968 003E                     l3992 003E                     l3984 000D  
                   l3896 0062                     l3888 003C                     l3994 0047  
                   l3986 001A                     l3898 0070                     l3988 001E  
                   l3996 004D                     STR_1 00CA                     STR_2 00CE  
                   STR_3 00B7                     STR_4 00BB                     STR_5 0096  
                   STR_6 00AB                     u3110 0010                     u3111 000F  
                   u4001 00B5                     u3130 0024                     u4002 00BC  
                   u3131 0023                     u4011 00D1                     u4003 00C3  
                   u4012 00D8                     u3125 0017                     u4101 020C  
                   u4021 00FD                     u4013 00DF                     u4110 0236  
                   u4102 0213                     u4022 0104                     u3310 004A  
                   u4103 021A                     u4031 0119                     u4023 010B  
                   u3311 0049                     u4200 02B5                     u4032 0120  
                   u3400 0006                     u3320 004F                     u3240 0005  
                   u4201 02B4                     u4121 0242                     u4033 0127  
                   u3401 0005                     u3321 004E                     u3305 003E  
                   u3241 0004                     u4210 02C9                     u4130 025E  
                   u4122 0249                     u3330 000A                     u3250 0010  
                   u4211 02C8                     u4123 0250                     u4115 0231  
                   u4051 014F                     u3331 0009                     u3251 000F  
                   u4220 02D0                     u4052 0156                     u3500 0045  
                   u5100 005A                     u3420 0018                     u3260 001B  
                   u4221 02CF                     u4141 026A                     u4061 017C  
                   u4053 015D                     u4045 0129                     u3501 0044  
                   u5101 0059                     u3421 0017                     u3261 001A  
                   u4230 02D6                     u4142 0271                     u4062 0183  
                   u5030 0008                     u3510 004B                     u3350 001C  
                   u3430 0022                     u4231 02D5                     u4143 0278  
                   u4135 0259                     u4063 018A                     u5031 0007  
                   u3511 004A                     u3351 001B                     u3431 0021  
                   u3415 000A                     u5200 0011                     u4240 02E8  
                   u3520 0050                     u5120 006B                     u5040 000D  
                   u3280 002D                     u5201 0010                     u4241 02E7  
                   u4081 01B2                     u3521 004F                     u5121 006A  
                   u5041 000C                     u3345 000E                     u4305 0026  
                   u3281 002C                     u5210 0017                     u4250 02F7  
                   u4170 029C                     u4082 01B9                     u3610 010A  
                   u3530 0069                     u5130 0070                     u5050 0024  
                   u3370 002D                     u3450 0035                     u4330 011E  
                   u3290 0037                     u5211 0016                     u4171 029B  
                   u4155 027A                     u4091 01DF                     u4083 01C0  
                   u4075 018C                     u3611 0109                     u3531 0068  
                   u5131 006F                     u5115 005D                     u3371 002C  
                   u3451 0034                     u3435 001E                     u4331 011D  
                   u4315 0082                     u3291 0036                     u3275 001F  
                   u5220 001C                     u4260 0314                     u4092 01E6  
                   u3620 010E                     u3540 006D                     u3460 0011  
                   u5060 003A                     u5221 001B                     u4261 0313  
                   u4165 0291                     u4093 01ED                     u3701 0186  
                   u3621 010D                     u3605 00F7                     u3541 006C  
                   u3461 0010                     u5061 0039                     u3365 001D  
                   u3445 0029                     u4325 00D7                     u5310 00D2  
                   u5230 003E                     u4270 032E                     u4190 02B0  
                   u3710 019A                     u3702 0187                     u3630 0113  
                   u3550 00C5                     u3470 0017                     u5070 0041  
                   u3390 0041                     u5311 00D1                     u5231 003D  
                   u4271 032D                     u4255 02F2                     u4191 02AF  
                   u3711 019B                     u3703 018C                     u3631 0112  
                   u3551 00C4                     u3471 0016                     u5071 0040  
                   u5055 001F                     u3391 0040                     u3375 0029  
                   u3295 0033                     u5400 0137                     u5240 0044  
                   u4280 034C                     u3800 0212                     u3720 01B8  
                   u3712 01A0                     u3704 018D                     u3560 00D0  
                   u3480 001C                     u5401 0136                     u5305 00C7  
                   u5241 0043                     u4281 034B                     u4265 0310  
                   u4185 029F                     u3801 0211                     u3721 01B7  
                   u3713 01A1                     u3705 0192                     u3641 0125  
                   u3561 00CE                     u3481 001B                     u3385 0035  
                   u4345 013B                     u5410 014B                     u5330 00EE  
                   u5250 0049                     u7010 004D                     u3810 0218  
                   u3730 01DD                     u3706 0193                     u3650 0137  
                   u3642 012C                     u3570 00D1                     u3490 003A  
                   u5090 0053                     u4290 0009                     u6210 0007  
                   u5411 014A                     u5331 00ED                     u5251 0048  
                   u4275 032A                     u7011 004C                     u3811 0217  
                   u3731 01DC                     u3651 0136                     u3643 0133  
                   u3555 00C1                     u3491 0039                     u5091 0052  
                   u4355 0188                     u4291 0008                     u6211 0006  
                   u5420 0152                     u5340 0107                     u5260 0064  
                   u7100 00B2                     u3900 0275                     u3820 021F  
                   u3740 01E2                     u3660 013B                     u3580 00E5  
                   u4540 0008                     u6300 005F                     u6220 0012  
                   u5421 0151                     u5341 0106                     u5325 00D5  
                   u5261 0063                     u7101 00B1                     u7005 003F  
                   u3901 0274                     u3821 021E                     u3741 01E1  
                   u3661 013A                     u3581 00E4                     u5085 0043  
                   u4365 01D4                     u4541 0007                     u6301 005E  
                   u6221 0011                     u5430 0158                     u5350 010F  
                   u5270 0082                     u7030 006F                     u7110 006F  
                   u3910 0286                     u3830 0225                     u3670 014A  
                   u3590 00F4                     u4550 000E                     u6230 0023  
                   u6310 0007                     u5431 0157                     u5351 010E  
                   u5335 00EA                     u5271 0081                     u7031 006E  
                   u7111 006E                     u3911 0285                     u3831 0224  
                   u3671 0149                     u3591 00F3                     u4551 000D  
                   u6231 0022                     u6311 0006                     u5440 016A  
                   u5280 00BC                     u3920 0011                     u7120 006F  
                   u3840 0237                     u3760 01F8                     u6400 01BD  
                   u6320 0010                     u7200 013A                     u5441 0169  
                   u5281 00BB                     u3921 0010                     u7025 0061  
                   u7121 006E                     u3841 0236                     u3761 01F7  
                   u6401 01BC                     u6321 000F                     u7201 0139  
                   u5450 0179                     u5370 011E                     u3930 0017  
                   u7050 007F                     u3850 0246                     u3770 01FD  
                   u3690 016F                     u6250 0035                     u7210 0182  
                   u7130 0010                     u5371 011D                     u3931 0016  
                   u7051 007E                     u3771 01FC                     u3755 01ED  
                   u3691 016E                     u6251 0034                     u7211 0181  
                   u7131 000F                     u5460 0196                     u3940 001C  
                   u7060 0085                     u3860 0255                     u3780 0207  
                   u4820 0006                     u7300 0088                     u7220 01CD  
                   u7140 0030                     _RCIF 0065                     u5461 0195  
                   u5365 0113                     u3941 001B                     u7061 0084  
                   u7045 0074                     u3861 0254                     u3781 0206  
                   u3693 016B                     u3685 014D                     u4821 0005  
                   u6245 0027                     u7301 0087                     u7221 01CC  
                   u7141 002F                     u5470 01B3                     u5390 0132  
                   u3950 003D                     u7070 0089                     u3870 025E  
                   u3790 020D                     u6510 0066                     u6270 0046  
                   u7230 0264                     u7150 0070                     u5471 01B2  
                   u5455 0174                     u5391 0131                     u5295 00BE  
                   u3951 003C                     u7071 0088                     u3871 025D  
                   u3855 0241                     u3791 020C                     u6511 0065  
                   u6271 0045                     u6415 01DF                     u6335 0032  
                   u7231 0263                     u7151 006F                     u5480 01CA  
                   u3960 0043                     u7080 009E                     u3880 0263  
                   u6600 00B4                     u6440 02AE                     u6360 0101  
                   u7400 02EB                     u7320 01A9                     u7240 0296  
                   u7160 007E                     u5481 01C9                     u5465 0192  
                   u5385 0121                     u3961 0042                     u3881 0262  
                   u6601 00B3                     u6505 0051                     u6265 0036  
                   u6441 02AD                     u6425 021B                     u6361 0100  
                   u6345 006E                     u7401 02EA                     u7321 01A8  
                   u7241 0295                     u7161 007D                     u3970 0048  
                   u7090 00AE                     u3890 0270                     u4850 0020  
                   u6610 000D                     u6530 007F                     u6290 005A  
                   u7410 02FA                     u7330 01B4                     u7250 02AD  
                   u7170 00C2                     i1l83 0026                     u5475 01AF  
                   u3971 0047                     u7091 00AD                     u3891 026F  
                   u4851 001F                     u4835 000D                     u6611 000C  
                   u6531 007E                     u6515 0062                     u6291 0059  
                   u6275 0042                     u6435 0266                     u6355 00B9  
                   u7411 02F9                     u7331 01B3                     u7315 0176  
                   u7251 02AC                     u7171 00C1                     u3980 005F  
                   u6700 009D                     u6620 0021                     u6540 0083  
                   u7420 0315                     u7340 01CF                     u7260 0000  
                   u7180 00F9                     u3981 005E                     u7085 0099  
                   u4845 0014                     u6701 009C                     u6621 0020  
                   u6541 0082                     u6525 0072                     u6285 004E  
                   u7421 0314                     u7405 02E7                     u7341 01CE  
                   u7325 01A5                     u7261 0304                     u7181 00F6  
                   u3990 0064                     u6710 00A4                     u6550 008A  
                   u7510 052E                     u7350 01E1                     u7270 0029  
                   u7190 00FD                     u3991 0063                     u6711 00A3  
                   u6551 0089                     u6455 02C1                     u6375 0114  
                   u7511 052D                     u7415 02F6                     u7351 01E0  
                   u7271 0028                     u7255 02A9                     u7191 00FC  
                   u6800 005F                     u6640 0062                     u6480 0013  
                   u7600 05BD                     u7520 0539                     u7360 0203  
                   u7280 0050                     u6801 005E                     u6641 0061  
                   u6481 0012                     u6465 02FD                     u6385 0150  
                   u7601 05BC                     u7521 0538                     u7505 04FB  
                   u7361 0202                     u7281 004F                     u7265 02FF  
                   u6810 0016                     u6730 00B5                     u6570 009C  
                   u6490 002D                     u7610 05D4                     u7530 0544  
                   u7450 04A1                     u7370 0211                     u7290 005F  
                   u6811 0015                     u6731 00B4                     u6635 0049  
                   u6571 009B                     u6491 002C                     u6475 0339  
                   u6395 018C                     u7611 05D3                     u7531 0543  
                   u7515 052A                     u7451 04A0                     u7435 039C  
                   u7371 0210                     u7291 005E                     u6820 0032  
                   u6900 00A0                     u6740 0012                     u6660 0080  
                   u6580 00A3                     u7620 05E0                     u7540 055A  
                   u7460 04B9                     u6821 0031                     u6901 009F  
                   u6741 0011                     u6725 00A7                     u6661 007F  
                   u6645 005E                     u6581 00A2                     u6565 008C  
                   u7621 05DF                     u7541 0559                     u7461 04B8  
                   u7445 0442                     u7365 01FF                     u6830 004C  
                   u6910 000A                     u6670 0084                     u7550 056B  
                   u7470 04D3                     u7390 02CA                     u6831 004B  
                   u6911 0009                     u6671 0083                     u6655 0073  
                   u7551 056A                     u7535 0540                     u7471 04D2  
                   u7391 02C9                     u7295 005B                     u6840 0016  
                   u6760 0026                     u6680 008B                     u7640 0669  
                   u7560 0577                     u7480 04E8                     u6905 009C  
                   u6841 0015                     u6761 0025                     u6681 008A  
                   u7641 0668                     u7561 0576                     u7545 0556  
                   u7481 04E7                     u7385 0220                     u6850 0032  
                   u6930 001E                     u7650 067D                     u7570 0581  
                   u7490 04F0                     u6835 0048                     u6851 0031  
                   u6755 0017                     u6931 001D                     u6595 00A6  
                   u7651 067A                     u7635 05FB                     u7571 0580  
                   u7491 04EF                     u6860 003E                     u6780 0041  
                   u6940 0030                     u7580 058F                     u6861 003D  
                   u6781 0040                     u6941 002F                     u6925 000F  
                   u7581 058E                     u7590 05A7                     u6871 004D  
                   u6775 0028                     u6695 008D                     u7591 05A6  
                   u6880 0066                     u6872 004E                     u6960 004D  
                   u6881 0065                     u6873 0053                     u6785 003D  
                   u6961 004C                     u6945 002C                     u7585 058B  
                   u6970 0008                     u6874 0054                     u6971 0007  
                   u6891 0075                     u6875 0059                     u6795 0051  
                   u6955 003F                     u7595 05A3                     u7667 0058  
                   u6980 000C                     u6892 0076                     u6876 005A  
                   u6981 000B                     u7677 000A                     u6893 007B  
                   u6990 002C                     u6894 007C                     u6991 002B  
                   u7687 000A                     u6895 0081                     u6896 0082  
      ?_Lcd_Write_String 0000                     _cont 0008                     _main 0000  
                   btemp 007E                     start 0000*      ??_Lcd_Write_String 0000  
        ___fldiv@new_exp 0036                    ??_ISR 0000            ___fltol@sign1 0040  
        __end_of___fladd 0288                    ?_main 0000          __end_of___fldiv 01DD  
        __end_of___awdiv 0069          __end_of___flneg 000B          __end_of___awmod 0059  
        __end_of___flmul 0361          __end_of___flsub 0050          __end_of___fltol 007C  
                  _ANSEL 0188          __end_of___lldiv 0068          ___awdiv@divisor 0000  
        __end_of___llmod 0056          __end_of___lwdiv 0046          __end_of___lwmod 003A  
        ___awdiv@counter 0005                    _RCREG 001A                    _PORTA 0005  
                  _PORTB 0006                    _PORTC 0007                    _PORTD 0008  
                  _PORTE 0009                    _TRISA 0085                    _TRISB 0086  
                  _TRISD 0088                    _TRISE 0089          __end_of_dpowers 0096  
                  _scale 0000          __end_of_isdigit 0012                    _setup 0000  
                  pclath 000A                    status 0003                    wtemp0 007E  
        __end_of_sprintf 0682              ?_USART_Init 0000    __size_of_ADC_channel1 0070  
  __size_of_ADC_channel2 0070          __initialization 0000             __end_of_main 00DB  
                 ??_main 004C     __size_of__tdiv_to_l_ 00BD         _Lcd_Set_Cursor$1 0000  
       ___llmod@dividend 000C                   ?_scale 0024                   _ADRESH 001E  
       ___awdiv@dividend 0002      _USART_Init_BaudRate 0000*                  ?_setup 0000  
                 _ANSELH 0189             ??_ADC_Config 0000                   i1l3640 000A  
                 i1l3650 0025                   i1l3642 0010                   i1l3644 0016  
                 i1l3636 0000                   i1l3646 001B                   i1l3638 0006  
                 i1l3648 0021             _ADC_channel1 0000             _ADC_channel2 0000  
                 u620_20 0021                   u620_21 0020                   u618_20 0006  
                 u618_21 0005                   u619_20 0010                   u619_21 000F  
                 _S1_val 0004                   _S2_val 0000         __end_of___xxtofl 00BC  
     _Lcd_Write_String$0 0000         __end_of__powers_ 003A                   ___flge 0000  
                 ___fleq 0000                ??___fladd 0040                   ___wmul 0000  
              ??___fldiv 002C                ??___awdiv 0004                ??___flneg 0007  
              ??___awmod 0007                ??___flmul 0012     ?_USART_Init_BaudRate 0000  
              ??___flsub 000A                ??___fltol 003B                ??___lldiv 0003  
              ??___llmod 0009                ??___lwdiv 0009                ??___lwmod 0007  
                 _fround 0000         ___awdiv@quotient 0007          ___awmod@divisor 0003  
        ___awmod@counter 0008                ??_initOsc 0000                ??_isdigit 0003  
     __size_of__Umul8_16 0029                   saved_w 007E                ??_sprintf 0013  
             ___flge@ff1 0000               ___flge@ff2 0004             ___xxtofl@arg 0006  
           ___xxtofl@exp 0005             ___xxtofl@val 0003               ___fleq@ff1 0000  
             ___fleq@ff2 0004  __end_of__initialization 000A               ___flneg@f1 0003  
             ___fltol@f1 0037           __pcstackCOMMON 0000    ??_USART_Init_BaudRate 0000  
          __end_of_scale 0363            __end_of_setup 002E           _Lcd_Set_Cursor 0000* 
             __div_to_l_ 0000                ?_Lcd_Init 0000          __div_to_l_@exp1 0009  
        __div_to_l_@cntr 0008                  ??_scale 0028          __div_to_l_@quot 0004  
           sprintf@width 001F                  ??_setup 0003               __pbssBANK1 0000  
             _data_total 0009            __div_to_l_@f1 0000            __div_to_l_@f2 0004  
      __end_of__Umul8_16 0029               __pmaintext 0000                  ?___flge 0000  
                ?___fleq 0000                  ?___wmul 0003            ??_Write_USART 0000  
             __pintentry 0000                  ?_fround 0024                ?___xxtofl 0003  
             ??_Lcd_Init 0000               __stringtab 0000             ??_USART_Init 0000  
      __end_of__npowers_ 006E          __size_of___flge 00A4          __size_of___fleq 0050  
                ___fladd 0000                  ___fldiv 0000                  ___awdiv 0000  
                ___flneg 0000                  ___awmod 0000                  ___flmul 0000  
                ___flsub 0000                  ___fltol 0000                  ___lldiv 0000  
        __size_of___wmul 0025                  ___llmod 0000                  ___lwdiv 0000  
             _fround$896 0033               _fround$897 002F                  ___lwmod 0000  
        __size_of_fround 020D          ?_Lcd_Set_Cursor 0000                  __ptext1 0000  
                __ptext2 0000                  __ptext3 0000                  __ptext4 0000  
                __ptext5 0000                  __ptext6 0000                  __ptext7 0000  
                __ptext8 0000                  __ptext9 0000             __size_of_ISR 002D  
            ?__div_to_l_ 0000                  _dpowers 006E                  _initOsc 0000* 
                _isdigit 0000               ??___xxtofl 0000         ___awmod@dividend 0005  
                _sprintf 0000                  clrloop0 0001     end_of_initialization 000A  
        ___lldiv@divisor 0000          ___lldiv@counter 0008                  psplit$0 B0028  
         __tdiv_to_l_@f1 0000           __tdiv_to_l_@f2 0004            ??__tdiv_to_l_ 0003  
            ___fladd@grs 004B            ___xxtofl@sign 0004                _TRISCbits 0087  
            ___fldiv@grs 0038              ___fldiv@rem 0031              ___flmul@grs 0018  
      ??_USART_INTERRUPT 0000      __size_of__div_to_l_ 00C0                _Lcd_Clear 0000* 
         __end_of___flge 00A4           __end_of___fleq 0050              _Write_USART 0000* 
         __end_of___wmul 0025         _Lcd_Write_String 0000*       pnum$text1_split_1 0028  
         __end_of_fround 020D      start_initialization 0000              __end_of_ISR 002D  
    __end_of__tdiv_to_l_ 00BD          ___llmod@divisor 0008          ___llmod@counter 0010  
             ?_Lcd_Clear 0000                 ??___flge 0003                 ??___fleq 0003  
               ??___wmul 0007                __Umul8_16 0000     _Write_USART_String$0 0000  
               ??_fround 0028            sprintf@tmpval 0021                ___fladd@a 003C  
              ___fladd@b 0038               fround@prec 0037                ___fldiv@a 0024  
              ___fldiv@b 0028                ___flmul@a 000E                ___flmul@b 000A  
            __pbssCOMMON 0000                ___flsub@a 0000                ___flsub@b 0004  
              ___latbits 0002            __pcstackBANK0 0000            __pcstackBANK1 0000  
      __size_of___xxtofl 00BC              _data_recive 0000              sprintf@flag 001D  
            sprintf@eexp 0029              sprintf@fval 002B       _Write_USART_String 0000* 
            sprintf@prec 0030         ___lwdiv@dividend 0002         ??_Lcd_Set_Cursor 0000  
    ?_Write_USART_String 0000                 ?___fladd 0038                 ?___fldiv 0024  
               ?___awdiv 0000                 ?___flneg 0003                 ?___awmod 0003  
               ?___flmul 000A                 ?___flsub 0000                 ?___fltol 0037  
               ?___lldiv 0000                 ?___llmod 0008                __npowers_ 003A  
             ?__Umul8_16 0003                 ?___lwdiv 0000                 ?___lwmod 0003  
              __pstrings 0000              __tdiv_to_l_ 0000             ??__div_to_l_ 0003  
               ?_initOsc 0000                 ?_isdigit 0000                _scale$898 0032  
   ??_Write_USART_String 0000         ___lwdiv@quotient 0004                 ?_sprintf 0008  
         __size_of_scale 0363           __size_of_setup 002E            ?_ADC_channel1 0000  
          ?_ADC_channel2 0000        interrupt_function 0000           ___wmul@product 0007  
              clear_ram0 0000       __end_of__div_to_l_ 00C0              ??_Lcd_Clear 0000  
             _ADCON0bits 001F              __stringbase 0005        ___wmul@multiplier 0003  
        _USART_INTERRUPT 0000*                _Lcd_Init 0000*          ??_ADC_channel1 003E  
         ??_ADC_channel2 003E               _ADC_Config 0000*             ??__Umul8_16 0005  
           ?_Write_USART 0000         __size_of___fladd 0288         __size_of___fldiv 01DD  
       __size_of___awdiv 0069         __size_of___flneg 000B         __size_of___awmod 0059  
       __size_of___flmul 0361         __size_of___flsub 0050         __size_of___fltol 007C  
       __size_of___lldiv 0068         __size_of___llmod 0056         __size_of___lwdiv 0046  
       __size_of___lwmod 003A       __end_of__stringtab 0006              _isdigit$727 0003  
             sprintf@val 0025                 ___xxtofl 0000         __size_of_isdigit 0012  
        ___lwdiv@divisor 0000          ___lwdiv@counter 0006                 __ptext10 0000  
               __ptext11 0000                 __ptext20 0000                 __ptext12 0000  
               __ptext21 0000                 __ptext13 0000                 __ptext22 0000  
               __ptext14 0000                 __ptext23 0000                 __ptext15 0000  
               __ptext24 0000                 __ptext16 0000                 __ptext25 0000  
               __ptext17 0000                 __ptext26 0000                 __ptext18 0000  
               __ptext27 0000                 __ptext19 0000                 __powers_ 0006  
       __size_of_sprintf 0000            __size_of_main 00DB                pnum$text1 000B  
               isdigit@c 0004                 scale@scl 0036                 intlevel1 0000* 
              sprintf@ap 001C         __tdiv_to_l_@exp1 000D         __tdiv_to_l_@cntr 000C  
              sprintf@sp 002F              ?_ADC_Config 0000         __tdiv_to_l_@quot 0008  
       ___lwmod@dividend 0005         ___lldiv@dividend 0004                stringcode 0000  
   __end_of_ADC_channel1 0070     __end_of_ADC_channel2 0070             ?__tdiv_to_l_ 0000  
 __Umul8_16@multiplicand 0003                 sprintf@c 0032                 sprintf@f 0008  
       ___lldiv@quotient 0004          ___lwmod@divisor 0003          ___lwmod@counter 0008  
               stringdir 0000                 stringtab 0000            ___fladd@signs 0048  
           ___fladd@aexp 0049             ___fladd@bexp 004A     __Umul8_16@multiplier 0004  
             _USART_Init 0000*       __Umul8_16@product 0000  
